SF:C:\Users\nexts\opensource\hayabusa\src\afterfact.rs
FN:1784,_RNCNCNvNtCsh5cigu73tlT_8hayabusa9afterfact19extract_author_names_00B7_
FN:316,_RNCINvNtCsh5cigu73tlT_8hayabusa9afterfact8emit_csvINtNtCskpAJhxNUYl3_5alloc5boxed3BoxDNtNtCs5LKwF2oluhI_3std2io5WriteEL_EE0B6_
FN:40,_RNvXNtCsh5cigu73tlT_8hayabusa9afterfactNtB2_6ColorsNtNtCsjwgglklCTGv_4core3fmt5Debug3fmt
FN:1322,_RNvNtCsh5cigu73tlT_8hayabusa9afterfact26__create_json_output_format
FN:877,_RNvNtCsh5cigu73tlT_8hayabusa9afterfact27__get_serialized_disp_output
FN:1753,_RNvNtCsh5cigu73tlT_8hayabusa9afterfact19extract_author_name
FN:1688,_RNCNvNtCsh5cigu73tlT_8hayabusa9afterfact15output_json_strs1_0B5_
FN:1704,_RNCNvNtCsh5cigu73tlT_8hayabusa9afterfact28output_detected_rule_authors0B5_
FN:1307,_RNCNvNtCsh5cigu73tlT_8hayabusa9afterfact13__get_json_vec0B5_
FN:1364,_RNCNvNtCsh5cigu73tlT_8hayabusa9afterfact26__create_json_output_formats0_0B5_
FN:109,_RNvNtCsh5cigu73tlT_8hayabusa9afterfact16__get_table_color
FN:343,_RNCINvNtCsh5cigu73tlT_8hayabusa9afterfact8emit_csvINtNtCskpAJhxNUYl3_5alloc5boxed3BoxDNtNtCs5LKwF2oluhI_3std2io5WriteEL_EEs_0B6_
FN:1040,_RNvNtCsh5cigu73tlT_8hayabusa9afterfact32__print_detection_summary_by_date
FN:101,_RNvNtCsh5cigu73tlT_8hayabusa9afterfact17__get_output_color
FN:954,_RNvNtCsh5cigu73tlT_8hayabusa9afterfact21__print_unique_results
FN:1343,_RNCNvNtCsh5cigu73tlT_8hayabusa9afterfact26__create_json_output_formats_0B5_
FN:1200,_RNCNvNtCsh5cigu73tlT_8hayabusa9afterfact31__print_detection_summary_tables0B5_
FN:1498,_RNCNvNtCsh5cigu73tlT_8hayabusa9afterfact15output_json_str0B5_
FN:1782,_RNCNvNtCsh5cigu73tlT_8hayabusa9afterfact19extract_author_names_0B5_
FN:365,_RNCINvNtCsh5cigu73tlT_8hayabusa9afterfact8emit_csvINtNtCskpAJhxNUYl3_5alloc5boxed3BoxDNtNtCs5LKwF2oluhI_3std2io5WriteEL_EEs0_0B6_
FN:439,_RNCINvNtCsh5cigu73tlT_8hayabusa9afterfact8emit_csvINtNtCskpAJhxNUYl3_5alloc5boxed3BoxDNtNtCs5LKwF2oluhI_3std2io5WriteEL_EEs1_0B6_
FN:1332,_RNCNvNtCsh5cigu73tlT_8hayabusa9afterfact26__create_json_output_format0B5_
FN:442,_RNCINvNtCsh5cigu73tlT_8hayabusa9afterfact8emit_csvINtNtCskpAJhxNUYl3_5alloc5boxed3BoxDNtNtCs5LKwF2oluhI_3std2io5WriteEL_EEs2_0B6_
FN:1430,_RNvNtCsh5cigu73tlT_8hayabusa9afterfact15output_json_str
FN:1096,_RNvNtCsh5cigu73tlT_8hayabusa9afterfact36__print_detection_summary_by_computer
FN:1698,_RNvNtCsh5cigu73tlT_8hayabusa9afterfact28output_detected_rule_authors
FN:488,_RNCINvNtCsh5cigu73tlT_8hayabusa9afterfact8emit_csvINtNtCskpAJhxNUYl3_5alloc5boxed3BoxDNtNtCs5LKwF2oluhI_3std2io5WriteEL_EEs3_0B6_
FN:945,_RNvNtCsh5cigu73tlT_8hayabusa9afterfact15__format_cellpos
FN:1178,_RNvNtCsh5cigu73tlT_8hayabusa9afterfact31__print_detection_summary_tables
FN:67,_RNCNvNtCsh5cigu73tlT_8hayabusa9afterfact16set_output_color0B5_
FN:1669,_RNCNvNtCsh5cigu73tlT_8hayabusa9afterfact15output_json_strs0_0B5_
FN:861,_RNCNvNtCsh5cigu73tlT_8hayabusa9afterfact19countup_aggregation0B5_
FN:210,_RINvNtCsh5cigu73tlT_8hayabusa9afterfact8emit_csvINtNtCskpAJhxNUYl3_5alloc5boxed3BoxDNtNtCs5LKwF2oluhI_3std2io5WriteEL_EEB4_
FN:1650,_RNCNvNtCsh5cigu73tlT_8hayabusa9afterfact15output_json_strs_0B5_
FN:853,_RNvNtCsh5cigu73tlT_8hayabusa9afterfact19countup_aggregation
FN:1115,_RNCNvNtCsh5cigu73tlT_8hayabusa9afterfact36__print_detection_summary_by_computer0B5_
FN:47,_RNvNtCsh5cigu73tlT_8hayabusa9afterfact16set_output_color
FN:1310,_RNCNvNtCsh5cigu73tlT_8hayabusa9afterfact13__get_json_vecs_0B5_
FN:121,_RNvNtCsh5cigu73tlT_8hayabusa9afterfact20__print_timeline_hist
FN:1118,_RNCNvNtCsh5cigu73tlT_8hayabusa9afterfact36__print_detection_summary_by_computers_0B5_
FN:1304,_RNvNtCsh5cigu73tlT_8hayabusa9afterfact13__get_json_vec
FN:1392,_RNvNtCsh5cigu73tlT_8hayabusa9afterfact23__convert_valid_json_str
FN:1772,_RNCNvNtCsh5cigu73tlT_8hayabusa9afterfact19extract_author_name0B5_
FN:1380,_RNCNvNtCsh5cigu73tlT_8hayabusa9afterfact26__create_json_output_formats1_0B5_
FN:1290,_RNvNtCsh5cigu73tlT_8hayabusa9afterfact14__get_timestamp
FN:2469,_RNvNtNtCsh5cigu73tlT_8hayabusa9afterfact5testss_46test_emit_csv_output_with_remove_duplicate_opt
FN:1828,_RNCNvNtNtCsh5cigu73tlT_8hayabusa9afterfact5tests20test_emit_csv_output0B7_
FN:2791,_RNCNvNtNtCsh5cigu73tlT_8hayabusa9afterfact5tests47test_emit_json_output_with_remove_duplicate_opt0B7_
FN:3338,_RNCNvNtNtCsh5cigu73tlT_8hayabusa9afterfact5tests25test_emit_csv_json_output0B7_
FN:1829,_RNvNtNtCsh5cigu73tlT_8hayabusa9afterfact5testss_20test_emit_csv_output
FN:2792,_RNvNtNtCsh5cigu73tlT_8hayabusa9afterfact5testss_47test_emit_json_output_with_remove_duplicate_opt
FN:2154,_RNCNvNtNtCsh5cigu73tlT_8hayabusa9afterfact5tests39test_emit_csv_output_with_multiline_opt0B7_
FN:3189,_RNCNvNtNtCsh5cigu73tlT_8hayabusa9afterfact5tests21test_emit_csv_display0B7_
FN:2468,_RNCNvNtNtCsh5cigu73tlT_8hayabusa9afterfact5tests46test_emit_csv_output_with_remove_duplicate_opt0B7_
FN:3331,_RNCNvNtNtCsh5cigu73tlT_8hayabusa9afterfact5tests35test_set_output_color_no_color_flag0B7_
FN:3320,_RNvNtNtCsh5cigu73tlT_8hayabusa9afterfact5tests18check_hashmap_data
FN:3333,_RNvNtNtCsh5cigu73tlT_8hayabusa9afterfact5testss_35test_set_output_color_no_color_flag
FN:3339,_RNvNtNtCsh5cigu73tlT_8hayabusa9afterfact5testss_25test_emit_csv_json_output
FN:3601,_RNCNvNtNtCsh5cigu73tlT_8hayabusa9afterfact5tests26test_emit_csv_jsonl_output0B7_
FN:2155,_RNvNtNtCsh5cigu73tlT_8hayabusa9afterfact5testss_39test_emit_csv_output_with_multiline_opt
FN:3190,_RNvNtNtCsh5cigu73tlT_8hayabusa9afterfact5testss_21test_emit_csv_display
FN:3602,_RNvNtNtCsh5cigu73tlT_8hayabusa9afterfact5testss_26test_emit_csv_jsonl_output
FN:168,_RNvNtCsh5cigu73tlT_8hayabusa9afterfact10after_fact
FN:176,_RNCNvNtCsh5cigu73tlT_8hayabusa9afterfact10after_fact0B5_
FN:1290,_RNvNtCsk6AfKij8NQT_8hayabusa9afterfact14__get_timestamp
FN:1669,_RNCNvNtCsk6AfKij8NQT_8hayabusa9afterfact15output_json_strs0_0B5_
FN:1322,_RNvNtCsk6AfKij8NQT_8hayabusa9afterfact26__create_json_output_format
FN:1704,_RNCNvNtCsk6AfKij8NQT_8hayabusa9afterfact28output_detected_rule_authors0B5_
FN:877,_RNvNtCsk6AfKij8NQT_8hayabusa9afterfact27__get_serialized_disp_output
FN:316,_RNCINvNtCsk6AfKij8NQT_8hayabusa9afterfact8emit_csvINtNtCskpAJhxNUYl3_5alloc5boxed3BoxDNtNtCs5LKwF2oluhI_3std2io5WriteEL_EE0B6_
FN:1343,_RNCNvNtCsk6AfKij8NQT_8hayabusa9afterfact26__create_json_output_formats_0B5_
FN:1753,_RNvNtCsk6AfKij8NQT_8hayabusa9afterfact19extract_author_name
FN:439,_RNCINvNtCsk6AfKij8NQT_8hayabusa9afterfact8emit_csvINtNtCskpAJhxNUYl3_5alloc5boxed3BoxDNtNtCs5LKwF2oluhI_3std2io5WriteEL_EEs1_0B6_
FN:210,_RINvNtCsk6AfKij8NQT_8hayabusa9afterfact8emit_csvINtNtCskpAJhxNUYl3_5alloc5boxed3BoxDNtNtCs5LKwF2oluhI_3std2io5WriteEL_EEB4_
FN:109,_RNvNtCsk6AfKij8NQT_8hayabusa9afterfact16__get_table_color
FN:1040,_RNvNtCsk6AfKij8NQT_8hayabusa9afterfact32__print_detection_summary_by_date
FN:40,_RNvXNtCsk6AfKij8NQT_8hayabusa9afterfactNtB2_6ColorsNtNtCsjwgglklCTGv_4core3fmt5Debug3fmt
FN:101,_RNvNtCsk6AfKij8NQT_8hayabusa9afterfact17__get_output_color
FN:954,_RNvNtCsk6AfKij8NQT_8hayabusa9afterfact21__print_unique_results
FN:442,_RNCINvNtCsk6AfKij8NQT_8hayabusa9afterfact8emit_csvINtNtCskpAJhxNUYl3_5alloc5boxed3BoxDNtNtCs5LKwF2oluhI_3std2io5WriteEL_EEs2_0B6_
FN:1118,_RNCNvNtCsk6AfKij8NQT_8hayabusa9afterfact36__print_detection_summary_by_computers_0B5_
FN:1310,_RNCNvNtCsk6AfKij8NQT_8hayabusa9afterfact13__get_json_vecs_0B5_
FN:168,_RNvNtCsk6AfKij8NQT_8hayabusa9afterfact10after_fact
FN:1200,_RNCNvNtCsk6AfKij8NQT_8hayabusa9afterfact31__print_detection_summary_tables0B5_
FN:861,_RNCNvNtCsk6AfKij8NQT_8hayabusa9afterfact19countup_aggregation0B5_
FN:343,_RNCINvNtCsk6AfKij8NQT_8hayabusa9afterfact8emit_csvINtNtCskpAJhxNUYl3_5alloc5boxed3BoxDNtNtCs5LKwF2oluhI_3std2io5WriteEL_EEs_0B6_
FN:1430,_RNvNtCsk6AfKij8NQT_8hayabusa9afterfact15output_json_str
FN:1650,_RNCNvNtCsk6AfKij8NQT_8hayabusa9afterfact15output_json_strs_0B5_
FN:1096,_RNvNtCsk6AfKij8NQT_8hayabusa9afterfact36__print_detection_summary_by_computer
FN:1698,_RNvNtCsk6AfKij8NQT_8hayabusa9afterfact28output_detected_rule_authors
FN:1782,_RNCNvNtCsk6AfKij8NQT_8hayabusa9afterfact19extract_author_names_0B5_
FN:945,_RNvNtCsk6AfKij8NQT_8hayabusa9afterfact15__format_cellpos
FN:1178,_RNvNtCsk6AfKij8NQT_8hayabusa9afterfact31__print_detection_summary_tables
FN:1332,_RNCNvNtCsk6AfKij8NQT_8hayabusa9afterfact26__create_json_output_format0B5_
FN:1380,_RNCNvNtCsk6AfKij8NQT_8hayabusa9afterfact26__create_json_output_formats1_0B5_
FN:176,_RNCNvNtCsk6AfKij8NQT_8hayabusa9afterfact10after_fact0B5_
FN:1688,_RNCNvNtCsk6AfKij8NQT_8hayabusa9afterfact15output_json_strs1_0B5_
FN:365,_RNCINvNtCsk6AfKij8NQT_8hayabusa9afterfact8emit_csvINtNtCskpAJhxNUYl3_5alloc5boxed3BoxDNtNtCs5LKwF2oluhI_3std2io5WriteEL_EEs0_0B6_
FN:1115,_RNCNvNtCsk6AfKij8NQT_8hayabusa9afterfact36__print_detection_summary_by_computer0B5_
FN:1364,_RNCNvNtCsk6AfKij8NQT_8hayabusa9afterfact26__create_json_output_formats0_0B5_
FN:853,_RNvNtCsk6AfKij8NQT_8hayabusa9afterfact19countup_aggregation
FN:488,_RNCINvNtCsk6AfKij8NQT_8hayabusa9afterfact8emit_csvINtNtCskpAJhxNUYl3_5alloc5boxed3BoxDNtNtCs5LKwF2oluhI_3std2io5WriteEL_EEs3_0B6_
FN:47,_RNvNtCsk6AfKij8NQT_8hayabusa9afterfact16set_output_color
FN:67,_RNCNvNtCsk6AfKij8NQT_8hayabusa9afterfact16set_output_color0B5_
FN:1772,_RNCNvNtCsk6AfKij8NQT_8hayabusa9afterfact19extract_author_name0B5_
FN:121,_RNvNtCsk6AfKij8NQT_8hayabusa9afterfact20__print_timeline_hist
FN:1498,_RNCNvNtCsk6AfKij8NQT_8hayabusa9afterfact15output_json_str0B5_
FN:1784,_RNCNCNvNtCsk6AfKij8NQT_8hayabusa9afterfact19extract_author_names_00B7_
FN:1304,_RNvNtCsk6AfKij8NQT_8hayabusa9afterfact13__get_json_vec
FN:1392,_RNvNtCsk6AfKij8NQT_8hayabusa9afterfact23__convert_valid_json_str
FN:1307,_RNCNvNtCsk6AfKij8NQT_8hayabusa9afterfact13__get_json_vec0B5_
FNDA:0,_RNCNCNvNtCsh5cigu73tlT_8hayabusa9afterfact19extract_author_names_00B7_
FNDA:8,_RNCINvNtCsh5cigu73tlT_8hayabusa9afterfact8emit_csvINtNtCskpAJhxNUYl3_5alloc5boxed3BoxDNtNtCs5LKwF2oluhI_3std2io5WriteEL_EE0B6_
FNDA:0,_RNvXNtCsh5cigu73tlT_8hayabusa9afterfactNtB2_6ColorsNtNtCsjwgglklCTGv_4core3fmt5Debug3fmt
FNDA:52,_RNvNtCsh5cigu73tlT_8hayabusa9afterfact26__create_json_output_format
FNDA:2,_RNvNtCsh5cigu73tlT_8hayabusa9afterfact27__get_serialized_disp_output
FNDA:0,_RNvNtCsh5cigu73tlT_8hayabusa9afterfact19extract_author_name
FNDA:13,_RNCNvNtCsh5cigu73tlT_8hayabusa9afterfact15output_json_strs1_0B5_
FNDA:0,_RNCNvNtCsh5cigu73tlT_8hayabusa9afterfact28output_detected_rule_authors0B5_
FNDA:8,_RNCNvNtCsh5cigu73tlT_8hayabusa9afterfact13__get_json_vec0B5_
FNDA:0,_RNCNvNtCsh5cigu73tlT_8hayabusa9afterfact26__create_json_output_formats0_0B5_
FNDA:0,_RNvNtCsh5cigu73tlT_8hayabusa9afterfact16__get_table_color
FNDA:4,_RNCINvNtCsh5cigu73tlT_8hayabusa9afterfact8emit_csvINtNtCskpAJhxNUYl3_5alloc5boxed3BoxDNtNtCs5LKwF2oluhI_3std2io5WriteEL_EEs_0B6_
FNDA:0,_RNvNtCsh5cigu73tlT_8hayabusa9afterfact32__print_detection_summary_by_date
FNDA:0,_RNvNtCsh5cigu73tlT_8hayabusa9afterfact17__get_output_color
FNDA:0,_RNvNtCsh5cigu73tlT_8hayabusa9afterfact21__print_unique_results
FNDA:0,_RNCNvNtCsh5cigu73tlT_8hayabusa9afterfact26__create_json_output_formats_0B5_
FNDA:0,_RNCNvNtCsh5cigu73tlT_8hayabusa9afterfact31__print_detection_summary_tables0B5_
FNDA:24,_RNCNvNtCsh5cigu73tlT_8hayabusa9afterfact15output_json_str0B5_
FNDA:0,_RNCNvNtCsh5cigu73tlT_8hayabusa9afterfact19extract_author_names_0B5_
FNDA:0,_RNCINvNtCsh5cigu73tlT_8hayabusa9afterfact8emit_csvINtNtCskpAJhxNUYl3_5alloc5boxed3BoxDNtNtCs5LKwF2oluhI_3std2io5WriteEL_EEs0_0B6_
FNDA:36,_RNCINvNtCsh5cigu73tlT_8hayabusa9afterfact8emit_csvINtNtCskpAJhxNUYl3_5alloc5boxed3BoxDNtNtCs5LKwF2oluhI_3std2io5WriteEL_EEs1_0B6_
FNDA:0,_RNCNvNtCsh5cigu73tlT_8hayabusa9afterfact26__create_json_output_format0B5_
FNDA:72,_RNCINvNtCsh5cigu73tlT_8hayabusa9afterfact8emit_csvINtNtCskpAJhxNUYl3_5alloc5boxed3BoxDNtNtCs5LKwF2oluhI_3std2io5WriteEL_EEs2_0B6_
FNDA:4,_RNvNtCsh5cigu73tlT_8hayabusa9afterfact15output_json_str
FNDA:0,_RNvNtCsh5cigu73tlT_8hayabusa9afterfact36__print_detection_summary_by_computer
FNDA:0,_RNvNtCsh5cigu73tlT_8hayabusa9afterfact28output_detected_rule_authors
FNDA:0,_RNCINvNtCsh5cigu73tlT_8hayabusa9afterfact8emit_csvINtNtCskpAJhxNUYl3_5alloc5boxed3BoxDNtNtCs5LKwF2oluhI_3std2io5WriteEL_EEs3_0B6_
FNDA:18,_RNvNtCsh5cigu73tlT_8hayabusa9afterfact15__format_cellpos
FNDA:0,_RNvNtCsh5cigu73tlT_8hayabusa9afterfact31__print_detection_summary_tables
FNDA:0,_RNCNvNtCsh5cigu73tlT_8hayabusa9afterfact16set_output_color0B5_
FNDA:6,_RNCNvNtCsh5cigu73tlT_8hayabusa9afterfact15output_json_strs0_0B5_
FNDA:0,_RNCNvNtCsh5cigu73tlT_8hayabusa9afterfact19countup_aggregation0B5_
FNDA:6,_RINvNtCsh5cigu73tlT_8hayabusa9afterfact8emit_csvINtNtCskpAJhxNUYl3_5alloc5boxed3BoxDNtNtCs5LKwF2oluhI_3std2io5WriteEL_EEB4_
FNDA:16,_RNCNvNtCsh5cigu73tlT_8hayabusa9afterfact15output_json_strs_0B5_
FNDA:0,_RNvNtCsh5cigu73tlT_8hayabusa9afterfact19countup_aggregation
FNDA:0,_RNCNvNtCsh5cigu73tlT_8hayabusa9afterfact36__print_detection_summary_by_computer0B5_
FNDA:1,_RNvNtCsh5cigu73tlT_8hayabusa9afterfact16set_output_color
FNDA:6,_RNCNvNtCsh5cigu73tlT_8hayabusa9afterfact13__get_json_vecs_0B5_
FNDA:0,_RNvNtCsh5cigu73tlT_8hayabusa9afterfact20__print_timeline_hist
FNDA:0,_RNCNvNtCsh5cigu73tlT_8hayabusa9afterfact36__print_detection_summary_by_computers_0B5_
FNDA:52,_RNvNtCsh5cigu73tlT_8hayabusa9afterfact13__get_json_vec
FNDA:55,_RNvNtCsh5cigu73tlT_8hayabusa9afterfact23__convert_valid_json_str
FNDA:0,_RNCNvNtCsh5cigu73tlT_8hayabusa9afterfact19extract_author_name0B5_
FNDA:0,_RNCNvNtCsh5cigu73tlT_8hayabusa9afterfact26__create_json_output_formats1_0B5_
FNDA:6,_RNvNtCsh5cigu73tlT_8hayabusa9afterfact14__get_timestamp
FNDA:1,_RNvNtNtCsh5cigu73tlT_8hayabusa9afterfact5testss_46test_emit_csv_output_with_remove_duplicate_opt
FNDA:1,_RNCNvNtNtCsh5cigu73tlT_8hayabusa9afterfact5tests20test_emit_csv_output0B7_
FNDA:1,_RNCNvNtNtCsh5cigu73tlT_8hayabusa9afterfact5tests47test_emit_json_output_with_remove_duplicate_opt0B7_
FNDA:1,_RNCNvNtNtCsh5cigu73tlT_8hayabusa9afterfact5tests25test_emit_csv_json_output0B7_
FNDA:1,_RNvNtNtCsh5cigu73tlT_8hayabusa9afterfact5testss_20test_emit_csv_output
FNDA:1,_RNvNtNtCsh5cigu73tlT_8hayabusa9afterfact5testss_47test_emit_json_output_with_remove_duplicate_opt
FNDA:1,_RNCNvNtNtCsh5cigu73tlT_8hayabusa9afterfact5tests39test_emit_csv_output_with_multiline_opt0B7_
FNDA:1,_RNCNvNtNtCsh5cigu73tlT_8hayabusa9afterfact5tests21test_emit_csv_display0B7_
FNDA:1,_RNCNvNtNtCsh5cigu73tlT_8hayabusa9afterfact5tests46test_emit_csv_output_with_remove_duplicate_opt0B7_
FNDA:1,_RNCNvNtNtCsh5cigu73tlT_8hayabusa9afterfact5tests35test_set_output_color_no_color_flag0B7_
FNDA:1,_RNvNtNtCsh5cigu73tlT_8hayabusa9afterfact5tests18check_hashmap_data
FNDA:1,_RNvNtNtCsh5cigu73tlT_8hayabusa9afterfact5testss_35test_set_output_color_no_color_flag
FNDA:1,_RNvNtNtCsh5cigu73tlT_8hayabusa9afterfact5testss_25test_emit_csv_json_output
FNDA:1,_RNCNvNtNtCsh5cigu73tlT_8hayabusa9afterfact5tests26test_emit_csv_jsonl_output0B7_
FNDA:1,_RNvNtNtCsh5cigu73tlT_8hayabusa9afterfact5testss_39test_emit_csv_output_with_multiline_opt
FNDA:1,_RNvNtNtCsh5cigu73tlT_8hayabusa9afterfact5testss_21test_emit_csv_display
FNDA:1,_RNvNtNtCsh5cigu73tlT_8hayabusa9afterfact5testss_26test_emit_csv_jsonl_output
FNDA:0,_RNvNtCsh5cigu73tlT_8hayabusa9afterfact10after_fact
FNDA:0,_RNCNvNtCsh5cigu73tlT_8hayabusa9afterfact10after_fact0B5_
FNDA:2,_RNvNtCsk6AfKij8NQT_8hayabusa9afterfact14__get_timestamp
FNDA:0,_RNCNvNtCsk6AfKij8NQT_8hayabusa9afterfact15output_json_strs0_0B5_
FNDA:49,_RNvNtCsk6AfKij8NQT_8hayabusa9afterfact26__create_json_output_format
FNDA:0,_RNCNvNtCsk6AfKij8NQT_8hayabusa9afterfact28output_detected_rule_authors0B5_
FNDA:0,_RNvNtCsk6AfKij8NQT_8hayabusa9afterfact27__get_serialized_disp_output
FNDA:0,_RNCINvNtCsk6AfKij8NQT_8hayabusa9afterfact8emit_csvINtNtCskpAJhxNUYl3_5alloc5boxed3BoxDNtNtCs5LKwF2oluhI_3std2io5WriteEL_EE0B6_
FNDA:0,_RNCNvNtCsk6AfKij8NQT_8hayabusa9afterfact26__create_json_output_formats_0B5_
FNDA:0,_RNvNtCsk6AfKij8NQT_8hayabusa9afterfact19extract_author_name
FNDA:9,_RNCINvNtCsk6AfKij8NQT_8hayabusa9afterfact8emit_csvINtNtCskpAJhxNUYl3_5alloc5boxed3BoxDNtNtCs5LKwF2oluhI_3std2io5WriteEL_EEs1_0B6_
FNDA:2,_RINvNtCsk6AfKij8NQT_8hayabusa9afterfact8emit_csvINtNtCskpAJhxNUYl3_5alloc5boxed3BoxDNtNtCs5LKwF2oluhI_3std2io5WriteEL_EEB4_
FNDA:0,_RNvNtCsk6AfKij8NQT_8hayabusa9afterfact16__get_table_color
FNDA:0,_RNvNtCsk6AfKij8NQT_8hayabusa9afterfact32__print_detection_summary_by_date
FNDA:0,_RNvXNtCsk6AfKij8NQT_8hayabusa9afterfactNtB2_6ColorsNtNtCsjwgglklCTGv_4core3fmt5Debug3fmt
FNDA:0,_RNvNtCsk6AfKij8NQT_8hayabusa9afterfact17__get_output_color
FNDA:0,_RNvNtCsk6AfKij8NQT_8hayabusa9afterfact21__print_unique_results
FNDA:9,_RNCINvNtCsk6AfKij8NQT_8hayabusa9afterfact8emit_csvINtNtCskpAJhxNUYl3_5alloc5boxed3BoxDNtNtCs5LKwF2oluhI_3std2io5WriteEL_EEs2_0B6_
FNDA:0,_RNCNvNtCsk6AfKij8NQT_8hayabusa9afterfact36__print_detection_summary_by_computers_0B5_
FNDA:10,_RNCNvNtCsk6AfKij8NQT_8hayabusa9afterfact13__get_json_vecs_0B5_
FNDA:2,_RNvNtCsk6AfKij8NQT_8hayabusa9afterfact10after_fact
FNDA:0,_RNCNvNtCsk6AfKij8NQT_8hayabusa9afterfact31__print_detection_summary_tables0B5_
FNDA:0,_RNCNvNtCsk6AfKij8NQT_8hayabusa9afterfact19countup_aggregation0B5_
FNDA:0,_RNCINvNtCsk6AfKij8NQT_8hayabusa9afterfact8emit_csvINtNtCskpAJhxNUYl3_5alloc5boxed3BoxDNtNtCs5LKwF2oluhI_3std2io5WriteEL_EEs_0B6_
FNDA:1,_RNvNtCsk6AfKij8NQT_8hayabusa9afterfact15output_json_str
FNDA:0,_RNCNvNtCsk6AfKij8NQT_8hayabusa9afterfact15output_json_strs_0B5_
FNDA:0,_RNvNtCsk6AfKij8NQT_8hayabusa9afterfact36__print_detection_summary_by_computer
FNDA:0,_RNvNtCsk6AfKij8NQT_8hayabusa9afterfact28output_detected_rule_authors
FNDA:0,_RNCNvNtCsk6AfKij8NQT_8hayabusa9afterfact19extract_author_names_0B5_
FNDA:0,_RNvNtCsk6AfKij8NQT_8hayabusa9afterfact15__format_cellpos
FNDA:0,_RNvNtCsk6AfKij8NQT_8hayabusa9afterfact31__print_detection_summary_tables
FNDA:0,_RNCNvNtCsk6AfKij8NQT_8hayabusa9afterfact26__create_json_output_format0B5_
FNDA:0,_RNCNvNtCsk6AfKij8NQT_8hayabusa9afterfact26__create_json_output_formats1_0B5_
FNDA:0,_RNCNvNtCsk6AfKij8NQT_8hayabusa9afterfact10after_fact0B5_
FNDA:0,_RNCNvNtCsk6AfKij8NQT_8hayabusa9afterfact15output_json_strs1_0B5_
FNDA:0,_RNCINvNtCsk6AfKij8NQT_8hayabusa9afterfact8emit_csvINtNtCskpAJhxNUYl3_5alloc5boxed3BoxDNtNtCs5LKwF2oluhI_3std2io5WriteEL_EEs0_0B6_
FNDA:0,_RNCNvNtCsk6AfKij8NQT_8hayabusa9afterfact36__print_detection_summary_by_computer0B5_
FNDA:0,_RNCNvNtCsk6AfKij8NQT_8hayabusa9afterfact26__create_json_output_formats0_0B5_
FNDA:0,_RNvNtCsk6AfKij8NQT_8hayabusa9afterfact19countup_aggregation
FNDA:0,_RNCINvNtCsk6AfKij8NQT_8hayabusa9afterfact8emit_csvINtNtCskpAJhxNUYl3_5alloc5boxed3BoxDNtNtCs5LKwF2oluhI_3std2io5WriteEL_EEs3_0B6_
FNDA:2,_RNvNtCsk6AfKij8NQT_8hayabusa9afterfact16set_output_color
FNDA:8,_RNCNvNtCsk6AfKij8NQT_8hayabusa9afterfact16set_output_color0B5_
FNDA:0,_RNCNvNtCsk6AfKij8NQT_8hayabusa9afterfact19extract_author_name0B5_
FNDA:0,_RNvNtCsk6AfKij8NQT_8hayabusa9afterfact20__print_timeline_hist
FNDA:6,_RNCNvNtCsk6AfKij8NQT_8hayabusa9afterfact15output_json_str0B5_
FNDA:0,_RNCNCNvNtCsk6AfKij8NQT_8hayabusa9afterfact19extract_author_names_00B7_
FNDA:9,_RNvNtCsk6AfKij8NQT_8hayabusa9afterfact13__get_json_vec
FNDA:91,_RNvNtCsk6AfKij8NQT_8hayabusa9afterfact23__convert_valid_json_str
FNDA:0,_RNCNvNtCsk6AfKij8NQT_8hayabusa9afterfact13__get_json_vec0B5_
FNF:64
FNH:38
DA:40,0
DA:47,3
DA:48,3
DA:49,3
DA:50,3
DA:51,3
DA:52,3
DA:53,3
DA:54,3
DA:55,3
DA:56,3
DA:57,3
DA:58,3
DA:59,3
DA:60,1
DA:61,2
DA:62,2
DA:64,0
DA:65,0
DA:66,2
DA:67,8
DA:68,8
DA:69,0
DA:70,8
DA:71,8
DA:72,8
DA:73,8
DA:74,8
DA:75,0
DA:76,0
DA:77,0
DA:78,0
DA:79,0
DA:80,0
DA:81,8
DA:82,8
DA:83,8
DA:84,0
DA:85,8
DA:86,8
DA:87,8
DA:88,8
DA:89,8
DA:90,8
DA:91,8
DA:92,8
DA:93,8
DA:94,8
DA:95,8
DA:96,8
DA:97,8
DA:98,2
DA:99,3
DA:101,0
DA:102,0
DA:103,0
DA:104,0
DA:105,0
DA:106,0
DA:107,0
DA:109,0
DA:110,0
DA:111,0
DA:112,0
DA:113,0
DA:114,0
DA:115,0
DA:116,0
DA:117,0
DA:118,0
DA:121,0
DA:122,0
DA:123,0
DA:124,0
DA:125,0
DA:126,0
DA:127,0
DA:128,0
DA:129,0
DA:130,0
DA:131,0
DA:132,0
DA:133,0
DA:134,0
DA:135,0
DA:136,0
DA:137,0
DA:138,0
DA:139,0
DA:140,0
DA:141,0
DA:142,0
DA:143,0
DA:145,0
DA:146,0
DA:148,0
DA:150,0
DA:151,0
DA:152,0
DA:153,0
DA:154,0
DA:155,0
DA:156,0
DA:157,0
DA:158,0
DA:159,0
DA:160,0
DA:161,0
DA:162,0
DA:163,0
DA:165,0
DA:166,0
DA:168,2
DA:169,2
DA:170,2
DA:171,2
DA:172,2
DA:173,2
DA:174,2
DA:175,2
DA:176,2
DA:177,0
DA:178,0
DA:181,2
DA:182,2
DA:184,2
DA:185,2
DA:186,0
DA:187,0
DA:188,0
DA:192,0
DA:193,0
DA:194,0
DA:196,2
DA:197,2
DA:198,2
DA:199,2
DA:200,2
DA:201,2
DA:202,2
DA:203,2
DA:204,2
DA:205,2
DA:206,0
DA:207,2
DA:208,2
DA:210,8
DA:211,8
DA:212,8
DA:213,8
DA:214,8
DA:215,8
DA:216,8
DA:217,8
DA:218,8
DA:219,8
DA:220,8
DA:221,8
DA:222,8
DA:223,8
DA:224,1
DA:225,1
DA:226,7
DA:227,8
DA:228,8
DA:229,8
DA:230,8
DA:231,8
DA:232,8
DA:233,8
DA:234,8
DA:235,8
DA:236,8
DA:237,8
DA:238,8
DA:239,8
DA:240,8
DA:241,8
DA:242,8
DA:243,8
DA:245,8
DA:246,4
DA:247,4
DA:248,4
DA:249,4
DA:250,4
DA:251,4
DA:252,4
DA:253,4
DA:254,4
DA:255,4
DA:256,4
DA:258,4
DA:259,4
DA:260,4
DA:261,4
DA:262,4
DA:263,4
DA:264,4
DA:266,0
DA:269,8
DA:270,0
DA:271,8
DA:272,8
DA:273,8
DA:274,8
DA:275,8
DA:276,8
DA:277,8
DA:278,8
DA:279,8
DA:280,8
DA:281,8
DA:282,8
DA:283,8
DA:284,8
DA:285,8
DA:286,8
DA:287,8
DA:288,8
DA:289,8
DA:290,8
DA:291,8
DA:292,8
DA:293,8
DA:294,8
DA:296,56
DA:297,48
DA:298,48
DA:299,48
DA:300,48
DA:301,8
DA:302,0
DA:303,8
DA:304,8
DA:305,8
DA:306,8
DA:307,8
DA:308,8
DA:309,8
DA:310,8
DA:311,8
DA:312,8
DA:313,8
DA:314,8
DA:315,8
DA:316,8
DA:317,8
DA:318,8
DA:319,8
DA:320,8
DA:321,8
DA:322,8
DA:323,8
DA:324,8
DA:325,8
DA:326,8
DA:327,8
DA:328,8
DA:329,8
DA:330,8
DA:331,8
DA:332,8
DA:333,8
DA:334,8
DA:335,8
DA:336,8
DA:337,8
DA:339,8
DA:340,8
DA:341,8
DA:342,8
DA:343,12
DA:344,4
DA:345,4
DA:346,4
DA:347,4
DA:348,4
DA:349,4
DA:350,4
DA:351,4
DA:352,4
DA:353,4
DA:354,4
DA:355,4
DA:356,4
DA:357,4
DA:358,4
DA:359,4
DA:360,8
DA:361,12
DA:362,0
DA:363,0
DA:364,0
DA:365,0
DA:366,0
DA:367,0
DA:368,0
DA:369,0
DA:370,0
DA:371,12
DA:372,12
DA:373,12
DA:374,12
DA:375,12
DA:376,12
DA:377,12
DA:378,12
DA:380,0
DA:381,0
DA:382,0
DA:383,0
DA:384,0
DA:385,0
DA:386,0
DA:387,0
DA:388,0
DA:389,0
DA:390,0
DA:391,0
DA:392,0
DA:393,0
DA:394,0
DA:395,0
DA:396,0
DA:397,0
DA:398,0
DA:399,0
DA:400,0
DA:401,0
DA:402,0
DA:403,0
DA:404,0
DA:405,0
DA:406,12
DA:408,1
DA:409,1
DA:410,1
DA:411,1
DA:412,1
DA:413,1
DA:414,1
DA:415,1
DA:416,1
DA:417,1
DA:418,1
DA:419,1
DA:420,11
DA:422,4
DA:423,4
DA:424,4
DA:425,4
DA:426,4
DA:427,4
DA:428,4
DA:429,4
DA:430,4
DA:431,4
DA:432,4
DA:433,4
DA:434,4
DA:435,4
DA:438,7
DA:439,45
DA:440,4
DA:441,3
DA:442,81
DA:443,81
DA:447,14
DA:448,4
DA:449,4
DA:450,4
DA:451,4
DA:452,4
DA:454,2
DA:456,12
DA:457,12
DA:458,12
DA:459,12
DA:460,12
DA:461,12
DA:462,12
DA:463,12
DA:464,12
DA:465,12
DA:467,14
DA:468,14
DA:470,67
DA:471,67
DA:472,67
DA:473,67
DA:474,67
DA:475,67
DA:476,67
DA:477,67
DA:478,67
DA:479,67
DA:481,81
DA:484,12
DA:485,0
DA:486,0
DA:487,0
DA:488,0
DA:489,0
DA:490,0
DA:491,0
DA:492,0
DA:493,0
DA:494,0
DA:495,0
DA:496,0
DA:497,0
DA:498,0
DA:499,0
DA:500,0
DA:501,0
DA:502,0
DA:503,0
DA:504,0
DA:505,0
DA:506,0
DA:507,0
DA:509,0
DA:510,0
DA:511,0
DA:512,0
DA:513,0
DA:514,0
DA:515,0
DA:516,0
DA:517,0
DA:518,0
DA:519,0
DA:520,0
DA:521,0
DA:522,0
DA:523,0
DA:524,0
DA:525,0
DA:526,0
DA:527,0
DA:528,0
DA:529,0
DA:530,0
DA:531,0
DA:532,0
DA:533,0
DA:534,0
DA:535,0
DA:536,0
DA:537,12
DA:541,8
DA:542,0
DA:543,0
DA:544,8
DA:547,8
DA:548,8
DA:549,8
DA:550,8
DA:551,8
DA:552,8
DA:553,8
DA:554,8
DA:555,8
DA:556,8
DA:557,8
DA:558,8
DA:559,8
DA:560,8
DA:561,8
DA:563,8
DA:564,8
DA:565,0
DA:568,8
DA:569,0
DA:570,0
DA:571,0
DA:572,0
DA:573,0
DA:574,0
DA:575,0
DA:576,0
DA:577,0
DA:578,0
DA:579,0
DA:580,0
DA:581,0
DA:582,0
DA:583,0
DA:584,0
DA:585,0
DA:586,0
DA:587,0
DA:588,0
DA:589,0
DA:590,0
DA:591,0
DA:592,0
DA:593,0
DA:594,0
DA:595,0
DA:597,0
DA:599,0
DA:600,8
DA:602,8
DA:603,8
DA:604,0
DA:605,0
DA:606,8
DA:608,8
DA:609,0
DA:610,0
DA:611,0
DA:612,0
DA:613,0
DA:614,0
DA:615,0
DA:616,0
DA:617,0
DA:618,0
DA:619,0
DA:620,0
DA:621,0
DA:622,0
DA:623,0
DA:624,0
DA:625,0
DA:626,0
DA:627,0
DA:628,0
DA:629,0
DA:630,0
DA:631,0
DA:632,0
DA:633,0
DA:634,0
DA:635,0
DA:636,0
DA:637,0
DA:638,0
DA:639,0
DA:640,0
DA:641,0
DA:642,0
DA:643,0
DA:644,0
DA:645,0
DA:646,0
DA:647,0
DA:648,0
DA:649,0
DA:651,0
DA:652,0
DA:653,0
DA:655,0
DA:657,0
DA:658,0
DA:659,0
DA:660,0
DA:661,0
DA:662,0
DA:663,0
DA:664,0
DA:665,0
DA:666,0
DA:667,0
DA:668,0
DA:669,0
DA:670,0
DA:671,0
DA:672,0
DA:673,0
DA:674,0
DA:675,0
DA:676,0
DA:677,0
DA:678,0
DA:679,0
DA:680,0
DA:681,0
DA:682,0
DA:683,0
DA:684,0
DA:685,0
DA:686,0
DA:687,0
DA:688,0
DA:689,0
DA:690,0
DA:691,0
DA:692,0
DA:693,0
DA:694,0
DA:695,0
DA:696,0
DA:697,0
DA:698,0
DA:699,0
DA:700,0
DA:701,0
DA:702,0
DA:703,0
DA:704,0
DA:705,0
DA:706,0
DA:707,0
DA:708,0
DA:709,0
DA:710,0
DA:711,0
DA:712,0
DA:713,0
DA:714,0
DA:715,0
DA:716,0
DA:717,0
DA:718,0
DA:719,0
DA:720,0
DA:721,0
DA:722,0
DA:723,0
DA:724,0
DA:725,0
DA:726,0
DA:727,0
DA:728,0
DA:729,0
DA:730,0
DA:731,0
DA:732,0
DA:733,0
DA:734,0
DA:735,0
DA:736,0
DA:737,0
DA:738,0
DA:739,0
DA:740,0
DA:741,0
DA:742,0
DA:743,0
DA:744,0
DA:745,0
DA:746,0
DA:747,0
DA:748,0
DA:749,0
DA:750,0
DA:751,0
DA:752,0
DA:753,0
DA:754,0
DA:755,0
DA:756,0
DA:757,0
DA:758,0
DA:759,0
DA:760,0
DA:761,0
DA:762,0
DA:763,0
DA:764,0
DA:765,0
DA:766,0
DA:767,0
DA:768,0
DA:769,0
DA:770,0
DA:771,0
DA:772,0
DA:773,0
DA:774,0
DA:775,0
DA:776,0
DA:777,0
DA:778,0
DA:779,0
DA:780,0
DA:781,0
DA:782,0
DA:783,0
DA:784,0
DA:785,0
DA:786,0
DA:787,0
DA:788,0
DA:789,0
DA:790,0
DA:791,0
DA:792,0
DA:794,0
DA:795,0
DA:796,0
DA:797,0
DA:798,0
DA:799,0
DA:800,0
DA:801,0
DA:802,0
DA:803,0
DA:804,0
DA:805,0
DA:806,0
DA:807,0
DA:808,0
DA:809,0
DA:810,0
DA:811,0
DA:812,0
DA:813,0
DA:814,0
DA:815,0
DA:816,0
DA:817,0
DA:818,0
DA:819,0
DA:821,0
DA:822,0
DA:823,0
DA:824,0
DA:825,0
DA:826,0
DA:827,0
DA:828,0
DA:829,0
DA:830,0
DA:831,0
DA:833,0
DA:834,0
DA:835,0
DA:836,0
DA:837,0
DA:838,0
DA:839,0
DA:840,0
DA:841,0
DA:842,0
DA:843,0
DA:844,0
DA:845,0
DA:846,8
DA:847,8
DA:848,0
DA:849,8
DA:850,8
DA:851,8
DA:853,0
DA:854,0
DA:855,0
DA:856,0
DA:857,0
DA:858,0
DA:859,0
DA:860,0
DA:861,0
DA:862,0
DA:863,0
DA:864,0
DA:865,0
DA:877,2
DA:878,2
DA:879,2
DA:880,2
DA:881,9
DA:882,9
DA:883,1
DA:884,8
DA:885,1
DA:887,7
DA:891,9
DA:892,9
DA:893,1
DA:894,1
DA:895,1
DA:896,1
DA:897,1
DA:898,1
DA:899,1
DA:900,1
DA:901,1
DA:902,1
DA:903,8
DA:904,1
DA:905,1
DA:906,1
DA:907,1
DA:908,1
DA:909,1
DA:910,1
DA:911,1
DA:912,1
DA:913,1
DA:915,7
DA:916,7
DA:917,7
DA:918,7
DA:919,7
DA:920,7
DA:921,7
DA:922,7
DA:923,7
DA:924,7
DA:928,2
DA:929,2
DA:930,2
DA:931,2
DA:932,2
DA:933,2
DA:934,2
DA:935,2
DA:936,2
DA:937,2
DA:938,2
DA:939,2
DA:940,2
DA:941,2
DA:942,2
DA:945,18
DA:946,18
DA:947,2
DA:948,2
DA:949,14
DA:951,18
DA:954,0
DA:955,0
DA:956,0
DA:957,0
DA:958,0
DA:959,0
DA:960,0
DA:961,0
DA:962,0
DA:963,0
DA:964,0
DA:965,0
DA:966,0
DA:967,0
DA:968,0
DA:969,0
DA:970,0
DA:971,0
DA:972,0
DA:973,0
DA:974,0
DA:975,0
DA:976,0
DA:977,0
DA:978,0
DA:979,0
DA:980,0
DA:981,0
DA:982,0
DA:983,0
DA:984,0
DA:985,0
DA:987,0
DA:988,0
DA:989,0
DA:990,0
DA:991,0
DA:992,0
DA:994,0
DA:996,0
DA:997,0
DA:999,0
DA:1001,0
DA:1002,0
DA:1003,0
DA:1004,0
DA:1005,0
DA:1006,0
DA:1007,0
DA:1008,0
DA:1009,0
DA:1010,0
DA:1011,0
DA:1012,0
DA:1013,0
DA:1014,0
DA:1015,0
DA:1016,0
DA:1017,0
DA:1018,0
DA:1019,0
DA:1020,0
DA:1021,0
DA:1022,0
DA:1023,0
DA:1024,0
DA:1025,0
DA:1026,0
DA:1027,0
DA:1028,0
DA:1029,0
DA:1030,0
DA:1031,0
DA:1033,0
DA:1034,0
DA:1035,0
DA:1036,0
DA:1037,0
DA:1040,0
DA:1041,0
DA:1042,0
DA:1043,0
DA:1044,0
DA:1045,0
DA:1046,0
DA:1047,0
DA:1048,0
DA:1049,0
DA:1050,0
DA:1051,0
DA:1052,0
DA:1053,0
DA:1054,0
DA:1055,0
DA:1056,0
DA:1058,0
DA:1059,0
DA:1060,0
DA:1061,0
DA:1062,0
DA:1063,0
DA:1064,0
DA:1065,0
DA:1066,0
DA:1067,0
DA:1068,0
DA:1070,0
DA:1071,0
DA:1072,0
DA:1073,0
DA:1074,0
DA:1075,0
DA:1076,0
DA:1077,0
DA:1078,0
DA:1079,0
DA:1080,0
DA:1081,0
DA:1082,0
DA:1083,0
DA:1084,0
DA:1085,0
DA:1086,0
DA:1087,0
DA:1088,0
DA:1089,0
DA:1090,0
DA:1092,0
DA:1093,0
DA:1096,0
DA:1097,0
DA:1098,0
DA:1099,0
DA:1100,0
DA:1101,0
DA:1102,0
DA:1103,0
DA:1104,0
DA:1105,0
DA:1106,0
DA:1107,0
DA:1108,0
DA:1110,0
DA:1111,0
DA:1112,0
DA:1113,0
DA:1114,0
DA:1115,0
DA:1116,0
DA:1117,0
DA:1118,0
DA:1119,0
DA:1120,0
DA:1121,0
DA:1122,0
DA:1123,0
DA:1124,0
DA:1125,0
DA:1126,0
DA:1127,0
DA:1128,0
DA:1129,0
DA:1130,0
DA:1131,0
DA:1132,0
DA:1133,0
DA:1134,0
DA:1135,0
DA:1136,0
DA:1137,0
DA:1138,0
DA:1139,0
DA:1140,0
DA:1141,0
DA:1142,0
DA:1143,0
DA:1144,0
DA:1146,0
DA:1149,0
DA:1150,0
DA:1151,0
DA:1152,0
DA:1153,0
DA:1154,0
DA:1155,0
DA:1156,0
DA:1157,0
DA:1158,0
DA:1159,0
DA:1160,0
DA:1162,0
DA:1163,0
DA:1178,0
DA:1179,0
DA:1180,0
DA:1181,0
DA:1182,0
DA:1183,0
DA:1184,0
DA:1185,0
DA:1186,0
DA:1187,0
DA:1188,0
DA:1189,0
DA:1190,0
DA:1191,0
DA:1192,0
DA:1193,0
DA:1194,0
DA:1195,0
DA:1196,0
DA:1197,0
DA:1198,0
DA:1199,0
DA:1200,0
DA:1201,0
DA:1202,0
DA:1203,0
DA:1204,0
DA:1205,0
DA:1206,0
DA:1207,0
DA:1208,0
DA:1209,0
DA:1210,0
DA:1211,0
DA:1212,0
DA:1213,0
DA:1214,0
DA:1215,0
DA:1216,0
DA:1217,0
DA:1218,0
DA:1219,0
DA:1220,0
DA:1221,0
DA:1222,0
DA:1223,0
DA:1225,0
DA:1226,0
DA:1228,0
DA:1230,0
DA:1231,0
DA:1232,0
DA:1234,0
DA:1236,0
DA:1237,0
DA:1238,0
DA:1239,0
DA:1241,0
DA:1242,0
DA:1244,0
DA:1246,0
DA:1247,0
DA:1248,0
DA:1249,0
DA:1252,0
DA:1253,0
DA:1254,0
DA:1255,0
DA:1256,0
DA:1257,0
DA:1258,0
DA:1259,0
DA:1260,0
DA:1261,0
DA:1262,0
DA:1263,0
DA:1264,0
DA:1265,0
DA:1266,0
DA:1267,0
DA:1268,0
DA:1269,0
DA:1270,0
DA:1271,0
DA:1272,0
DA:1273,0
DA:1274,0
DA:1276,0
DA:1277,0
DA:1278,0
DA:1279,0
DA:1280,0
DA:1281,0
DA:1282,0
DA:1283,0
DA:1284,0
DA:1285,0
DA:1286,0
DA:1287,0
DA:1290,8
DA:1291,8
DA:1292,0
DA:1294,8
DA:1295,8
DA:1296,8
DA:1297,8
DA:1298,8
DA:1299,8
DA:1301,8
DA:1304,61
DA:1305,61
DA:1307,8
DA:1310,16
DA:1311,8
DA:1312,7
DA:1314,1
DA:1317,45
DA:1319,61
DA:1322,101
DA:1323,101
DA:1324,101
DA:1325,101
DA:1326,101
DA:1327,101
DA:1328,101
DA:1329,101
DA:1330,0
DA:1331,0
DA:1332,0
DA:1333,0
DA:1335,0
DA:1337,0
DA:1338,0
DA:1340,101
DA:1341,101
DA:1342,101
DA:1343,1043
DA:1344,0
DA:1346,1043
DA:1348,1043
DA:1349,101
DA:1352,101
DA:1353,24
DA:1354,77
DA:1355,0
DA:1356,77
DA:1357,8
DA:1358,8
DA:1359,8
DA:1360,8
DA:1361,8
DA:1362,8
DA:1363,8
DA:1364,292
DA:1365,0
DA:1367,292
DA:1369,292
DA:1370,8
DA:1371,8
DA:1373,69
DA:1374,69
DA:1375,69
DA:1376,69
DA:1377,69
DA:1378,69
DA:1379,69
DA:1380,2057
DA:1381,0
DA:1383,2057
DA:1385,2057
DA:1386,69
DA:1387,69
DA:1389,101
DA:1392,146
DA:1393,146
DA:1394,146
DA:1395,0
DA:1396,0
DA:1398,0
DA:1400,146
DA:1401,146
DA:1402,0
DA:1403,146
DA:1404,0
DA:1405,0
DA:1406,0
DA:1407,0
DA:1408,0
DA:1410,0
DA:1412,0
DA:1413,0
DA:1414,0
DA:1415,0
DA:1416,0
DA:1417,0
DA:1418,0
DA:1419,0
DA:1420,0
DA:1422,146
DA:1423,146
DA:1424,146
DA:1425,146
DA:1427,146
DA:1430,5
DA:1431,5
DA:1432,5
DA:1433,5
DA:1434,5
DA:1435,5
DA:1436,5
DA:1437,5
DA:1438,5
DA:1439,5
DA:1440,5
DA:1441,5
DA:1442,5
DA:1443,5
DA:1444,26
DA:1445,26
DA:1447,4
DA:1448,2
DA:1449,2
DA:1450,0
DA:1451,0
DA:1454,4
DA:1455,4
DA:1456,4
DA:1457,4
DA:1458,4
DA:1459,4
DA:1460,4
DA:1461,4
DA:1462,2
DA:1463,2
DA:1464,2
DA:1465,2
DA:1466,2
DA:1467,3
DA:1468,4
DA:1469,2
DA:1470,2
DA:1471,2
DA:1472,2
DA:1473,2
DA:1474,2
DA:1475,2
DA:1476,2
DA:1477,2
DA:1479,22
DA:1480,22
DA:1481,22
DA:1484,3
DA:1485,3
DA:1486,3
DA:1487,5
DA:1488,5
DA:1489,5
DA:1490,5
DA:1491,5
DA:1492,5
DA:1493,5
DA:1494,5
DA:1495,5
DA:1496,5
DA:1497,5
DA:1498,30
DA:1499,30
DA:1500,30
DA:1501,30
DA:1502,5
DA:1503,5
DA:1504,61
DA:1505,61
DA:1506,61
DA:1507,61
DA:1508,57
DA:1509,61
DA:1512,57
DA:1514,48
DA:1515,48
DA:1516,48
DA:1517,48
DA:1518,48
DA:1519,48
DA:1520,48
DA:1521,48
DA:1522,48
DA:1523,48
DA:1525,13
DA:1532,0
DA:1533,0
DA:1534,0
DA:1535,0
DA:1536,0
DA:1537,0
DA:1538,0
DA:1539,0
DA:1540,0
DA:1541,0
DA:1543,5
DA:1544,5
DA:1545,1
DA:1546,3
DA:1547,1
DA:1548,0
DA:1550,5
DA:1551,5
DA:1552,5
DA:1553,0
DA:1554,5
DA:1555,5
DA:1556,5
DA:1557,5
DA:1558,0
DA:1559,0
DA:1560,0
DA:1562,0
DA:1564,0
DA:1565,0
DA:1566,0
DA:1567,0
DA:1568,0
DA:1569,0
DA:1570,0
DA:1571,0
DA:1572,0
DA:1573,0
DA:1574,0
DA:1575,0
DA:1576,0
DA:1577,5
DA:1578,5
DA:1579,5
DA:1580,45
DA:1581,45
DA:1582,45
DA:1583,45
DA:1584,45
DA:1585,45
DA:1586,40
DA:1587,40
DA:1588,40
DA:1589,40
DA:1590,40
DA:1591,40
DA:1592,40
DA:1593,40
DA:1594,40
DA:1595,40
DA:1596,40
DA:1597,5
DA:1598,5
DA:1599,0
DA:1601,5
DA:1603,5
DA:1604,5
DA:1605,5
DA:1606,5
DA:1607,5
DA:1608,5
DA:1609,5
DA:1610,5
DA:1611,5
DA:1612,5
DA:1615,5
DA:1616,0
DA:1617,0
DA:1619,0
DA:1620,0
DA:1621,0
DA:1622,0
DA:1623,0
DA:1624,0
DA:1625,0
DA:1627,0
DA:1629,0
DA:1630,0
DA:1631,0
DA:1632,0
DA:1633,0
DA:1634,0
DA:1635,0
DA:1636,0
DA:1637,0
DA:1638,0
DA:1640,5
DA:1641,5
DA:1642,5
DA:1643,1
DA:1644,4
DA:1645,4
DA:1646,4
DA:1649,8
DA:1650,16
DA:1651,8
DA:1652,8
DA:1653,0
DA:1654,8
DA:1655,8
DA:1656,8
DA:1657,8
DA:1658,8
DA:1659,8
DA:1660,8
DA:1661,8
DA:1662,8
DA:1663,0
DA:1664,8
DA:1666,8
DA:1668,8
DA:1669,6
DA:1671,6
DA:1673,8
DA:1674,8
DA:1675,8
DA:1676,8
DA:1677,8
DA:1678,8
DA:1679,8
DA:1681,0
DA:1685,5
DA:1687,1
DA:1688,13
DA:1689,1
DA:1690,1
DA:1693,4
DA:1695,5
DA:1698,0
DA:1699,0
DA:1700,0
DA:1701,0
DA:1702,0
DA:1703,0
DA:1704,0
DA:1705,0
DA:1706,0
DA:1708,0
DA:1711,0
DA:1712,0
DA:1713,0
DA:1714,0
DA:1715,0
DA:1716,0
DA:1717,0
DA:1718,0
DA:1719,0
DA:1720,0
DA:1721,0
DA:1722,0
DA:1723,0
DA:1724,0
DA:1726,0
DA:1728,0
DA:1729,0
DA:1730,0
DA:1731,0
DA:1732,0
DA:1733,0
DA:1735,0
DA:1736,0
DA:1737,0
DA:1739,0
DA:1740,0
DA:1741,0
DA:1742,0
DA:1743,0
DA:1744,0
DA:1745,0
DA:1746,0
DA:1747,0
DA:1748,0
DA:1749,0
DA:1750,0
DA:1753,0
DA:1754,0
DA:1755,0
DA:1756,0
DA:1757,0
DA:1758,0
DA:1759,0
DA:1762,0
DA:1764,0
DA:1765,0
DA:1766,0
DA:1767,0
DA:1768,0
DA:1770,0
DA:1771,0
DA:1772,0
DA:1773,0
DA:1774,0
DA:1775,0
DA:1776,0
DA:1777,0
DA:1778,0
DA:1780,0
DA:1781,0
DA:1782,0
DA:1783,0
DA:1784,0
DA:1785,0
DA:1786,0
DA:1787,0
DA:1788,0
DA:1791,0
DA:1792,0
DA:1828,1
DA:1829,1
DA:1830,1
DA:1831,1
DA:1832,1
DA:1833,1
DA:1834,1
DA:1835,1
DA:1836,1
DA:1837,1
DA:1838,1
DA:1839,1
DA:1840,1
DA:1841,1
DA:1842,1
DA:1843,1
DA:1844,1
DA:1845,1
DA:1846,1
DA:1847,1
DA:1848,1
DA:1849,1
DA:1850,1
DA:1851,1
DA:1852,1
DA:1853,1
DA:1854,1
DA:1855,1
DA:1856,1
DA:1857,1
DA:1858,1
DA:1859,1
DA:1860,1
DA:1861,1
DA:1862,1
DA:1863,1
DA:1864,1
DA:1865,1
DA:1866,1
DA:1867,1
DA:1868,1
DA:1869,1
DA:1870,1
DA:1871,1
DA:1872,1
DA:1873,1
DA:1874,1
DA:1875,1
DA:1876,1
DA:1877,1
DA:1878,1
DA:1879,1
DA:1880,1
DA:1881,1
DA:1882,1
DA:1883,1
DA:1884,1
DA:1885,1
DA:1886,1
DA:1887,1
DA:1888,1
DA:1889,1
DA:1890,1
DA:1891,1
DA:1892,1
DA:1893,1
DA:1894,1
DA:1895,1
DA:1896,1
DA:1897,1
DA:1898,1
DA:1899,1
DA:1900,1
DA:1901,1
DA:1902,1
DA:1903,1
DA:1904,1
DA:1905,1
DA:1906,1
DA:1907,1
DA:1908,1
DA:1909,1
DA:1910,1
DA:1911,1
DA:1912,1
DA:1913,1
DA:1914,1
DA:1915,1
DA:1916,1
DA:1917,1
DA:1918,1
DA:1919,1
DA:1920,1
DA:1921,1
DA:1922,1
DA:1923,1
DA:1924,1
DA:1925,1
DA:1926,1
DA:1927,1
DA:1928,1
DA:1929,1
DA:1930,1
DA:1931,1
DA:1932,1
DA:1933,1
DA:1934,1
DA:1935,1
DA:1936,1
DA:1937,1
DA:1938,1
DA:1939,1
DA:1940,1
DA:1941,1
DA:1942,1
DA:1943,1
DA:1944,1
DA:1945,1
DA:1946,1
DA:1947,1
DA:1948,1
DA:1949,1
DA:1950,1
DA:1951,1
DA:1952,1
DA:1953,1
DA:1954,1
DA:1955,1
DA:1956,1
DA:1957,1
DA:1958,1
DA:1959,1
DA:1960,1
DA:1961,1
DA:1962,1
DA:1963,1
DA:1964,1
DA:1965,1
DA:1966,1
DA:1967,1
DA:1968,1
DA:1969,1
DA:1970,1
DA:1971,1
DA:1972,1
DA:1973,1
DA:1974,1
DA:1975,1
DA:1976,1
DA:1977,1
DA:1978,1
DA:1979,1
DA:1980,1
DA:1981,1
DA:1982,1
DA:1983,1
DA:1984,1
DA:1985,1
DA:1986,1
DA:1987,1
DA:1988,1
DA:1989,1
DA:1990,1
DA:1991,1
DA:1992,1
DA:1993,1
DA:1994,1
DA:1995,1
DA:1996,1
DA:1997,1
DA:1998,1
DA:1999,1
DA:2000,1
DA:2001,1
DA:2002,1
DA:2003,1
DA:2004,1
DA:2005,1
DA:2006,1
DA:2007,1
DA:2008,1
DA:2009,1
DA:2010,1
DA:2011,1
DA:2012,1
DA:2013,1
DA:2014,1
DA:2015,1
DA:2016,1
DA:2017,1
DA:2018,1
DA:2019,1
DA:2020,1
DA:2021,1
DA:2022,1
DA:2023,1
DA:2024,1
DA:2025,1
DA:2026,1
DA:2027,1
DA:2028,1
DA:2029,1
DA:2030,1
DA:2031,1
DA:2032,1
DA:2033,1
DA:2034,1
DA:2035,1
DA:2036,1
DA:2037,1
DA:2038,1
DA:2039,1
DA:2040,1
DA:2041,1
DA:2042,1
DA:2043,1
DA:2044,1
DA:2045,1
DA:2046,1
DA:2047,1
DA:2048,1
DA:2049,1
DA:2050,1
DA:2051,1
DA:2052,1
DA:2053,1
DA:2054,1
DA:2055,1
DA:2056,1
DA:2057,1
DA:2058,1
DA:2059,1
DA:2060,1
DA:2061,1
DA:2062,1
DA:2063,1
DA:2064,1
DA:2065,1
DA:2066,1
DA:2067,1
DA:2068,1
DA:2069,1
DA:2070,1
DA:2071,1
DA:2072,1
DA:2073,1
DA:2074,1
DA:2075,1
DA:2076,1
DA:2077,1
DA:2078,1
DA:2079,1
DA:2080,1
DA:2081,1
DA:2082,1
DA:2083,1
DA:2084,1
DA:2085,1
DA:2086,1
DA:2087,1
DA:2088,1
DA:2089,1
DA:2090,1
DA:2091,1
DA:2092,1
DA:2093,1
DA:2094,1
DA:2095,1
DA:2096,1
DA:2097,1
DA:2098,1
DA:2099,1
DA:2100,1
DA:2101,1
DA:2102,1
DA:2103,1
DA:2104,1
DA:2105,1
DA:2106,1
DA:2107,1
DA:2108,1
DA:2109,1
DA:2110,1
DA:2111,1
DA:2112,1
DA:2113,1
DA:2114,1
DA:2115,1
DA:2116,1
DA:2117,1
DA:2118,1
DA:2119,1
DA:2120,1
DA:2121,1
DA:2122,1
DA:2123,1
DA:2124,1
DA:2125,1
DA:2126,1
DA:2127,1
DA:2128,1
DA:2129,1
DA:2130,1
DA:2131,1
DA:2132,1
DA:2133,1
DA:2135,1
DA:2136,1
DA:2137,1
DA:2138,1
DA:2139,1
DA:2140,1
DA:2141,1
DA:2142,1
DA:2143,1
DA:2144,1
DA:2145,1
DA:2146,0
DA:2147,1
DA:2148,1
DA:2151,1
DA:2152,1
DA:2154,1
DA:2155,1
DA:2156,1
DA:2157,1
DA:2158,1
DA:2159,1
DA:2160,1
DA:2161,1
DA:2162,1
DA:2163,1
DA:2164,1
DA:2165,1
DA:2166,1
DA:2167,1
DA:2168,1
DA:2169,1
DA:2170,1
DA:2171,1
DA:2172,1
DA:2173,1
DA:2174,1
DA:2175,1
DA:2176,1
DA:2177,1
DA:2178,1
DA:2179,1
DA:2180,1
DA:2181,1
DA:2182,1
DA:2183,1
DA:2184,1
DA:2185,1
DA:2186,1
DA:2187,1
DA:2188,1
DA:2189,1
DA:2190,1
DA:2191,1
DA:2192,1
DA:2193,1
DA:2194,1
DA:2195,1
DA:2196,1
DA:2197,1
DA:2198,1
DA:2199,1
DA:2200,1
DA:2201,1
DA:2202,1
DA:2203,1
DA:2204,1
DA:2205,1
DA:2206,1
DA:2207,1
DA:2208,1
DA:2209,1
DA:2210,1
DA:2211,1
DA:2212,1
DA:2213,1
DA:2214,1
DA:2215,1
DA:2216,1
DA:2217,1
DA:2218,1
DA:2219,1
DA:2220,1
DA:2221,1
DA:2222,1
DA:2223,1
DA:2224,1
DA:2225,1
DA:2226,1
DA:2227,1
DA:2228,1
DA:2229,1
DA:2230,1
DA:2231,1
DA:2232,1
DA:2233,1
DA:2234,1
DA:2235,1
DA:2236,1
DA:2237,1
DA:2238,1
DA:2239,1
DA:2240,1
DA:2241,1
DA:2242,1
DA:2243,1
DA:2244,1
DA:2245,1
DA:2246,1
DA:2247,1
DA:2248,1
DA:2249,1
DA:2250,1
DA:2251,1
DA:2252,1
DA:2253,1
DA:2254,1
DA:2255,1
DA:2256,1
DA:2257,1
DA:2258,1
DA:2259,1
DA:2260,1
DA:2261,1
DA:2262,1
DA:2263,1
DA:2264,1
DA:2265,1
DA:2266,1
DA:2267,1
DA:2268,1
DA:2269,1
DA:2270,1
DA:2271,1
DA:2272,1
DA:2273,1
DA:2274,1
DA:2275,1
DA:2276,1
DA:2277,1
DA:2278,1
DA:2279,1
DA:2280,1
DA:2281,1
DA:2282,1
DA:2283,1
DA:2284,1
DA:2285,1
DA:2286,1
DA:2287,1
DA:2288,1
DA:2289,1
DA:2290,1
DA:2291,1
DA:2292,1
DA:2293,1
DA:2294,1
DA:2295,1
DA:2296,1
DA:2297,1
DA:2298,1
DA:2299,1
DA:2300,1
DA:2301,1
DA:2302,1
DA:2303,1
DA:2304,1
DA:2305,1
DA:2306,1
DA:2307,1
DA:2308,1
DA:2309,1
DA:2310,1
DA:2311,1
DA:2312,1
DA:2313,1
DA:2314,1
DA:2315,1
DA:2316,1
DA:2317,1
DA:2318,1
DA:2319,1
DA:2320,1
DA:2321,1
DA:2322,1
DA:2323,1
DA:2324,1
DA:2325,1
DA:2326,1
DA:2327,1
DA:2328,1
DA:2329,1
DA:2330,1
DA:2331,1
DA:2332,1
DA:2333,1
DA:2334,1
DA:2335,1
DA:2336,1
DA:2337,1
DA:2338,1
DA:2339,1
DA:2340,1
DA:2341,1
DA:2342,1
DA:2343,1
DA:2344,1
DA:2345,1
DA:2346,1
DA:2347,1
DA:2348,1
DA:2349,1
DA:2350,1
DA:2351,1
DA:2352,1
DA:2353,1
DA:2354,1
DA:2355,1
DA:2356,1
DA:2357,1
DA:2358,1
DA:2359,1
DA:2360,1
DA:2361,1
DA:2362,1
DA:2363,1
DA:2364,1
DA:2365,1
DA:2366,1
DA:2367,1
DA:2368,1
DA:2369,1
DA:2370,1
DA:2371,1
DA:2372,1
DA:2373,1
DA:2374,1
DA:2375,1
DA:2376,1
DA:2377,1
DA:2378,1
DA:2379,1
DA:2380,1
DA:2381,1
DA:2382,1
DA:2383,1
DA:2384,1
DA:2385,1
DA:2386,1
DA:2387,1
DA:2388,1
DA:2389,1
DA:2390,1
DA:2391,1
DA:2392,1
DA:2393,1
DA:2394,1
DA:2395,1
DA:2396,1
DA:2397,1
DA:2398,1
DA:2399,1
DA:2400,1
DA:2401,1
DA:2402,1
DA:2403,1
DA:2404,1
DA:2405,1
DA:2406,1
DA:2407,1
DA:2408,1
DA:2409,1
DA:2410,1
DA:2411,1
DA:2412,1
DA:2413,1
DA:2414,1
DA:2415,1
DA:2416,1
DA:2417,1
DA:2418,1
DA:2419,1
DA:2420,1
DA:2421,1
DA:2422,1
DA:2423,1
DA:2424,1
DA:2425,1
DA:2426,1
DA:2427,1
DA:2428,1
DA:2429,1
DA:2430,1
DA:2431,1
DA:2432,1
DA:2433,1
DA:2434,1
DA:2435,1
DA:2436,1
DA:2437,1
DA:2438,1
DA:2439,1
DA:2440,1
DA:2441,1
DA:2442,1
DA:2443,1
DA:2444,1
DA:2445,1
DA:2446,1
DA:2447,1
DA:2449,1
DA:2450,1
DA:2451,1
DA:2452,1
DA:2453,1
DA:2454,1
DA:2455,1
DA:2456,1
DA:2457,1
DA:2458,1
DA:2459,1
DA:2460,0
DA:2461,1
DA:2462,1
DA:2465,1
DA:2466,1
DA:2468,1
DA:2469,1
DA:2470,1
DA:2471,1
DA:2472,1
DA:2473,1
DA:2474,1
DA:2475,1
DA:2476,1
DA:2477,1
DA:2478,1
DA:2479,1
DA:2480,1
DA:2481,1
DA:2482,1
DA:2483,1
DA:2484,1
DA:2485,1
DA:2486,1
DA:2487,1
DA:2488,1
DA:2489,1
DA:2490,1
DA:2491,1
DA:2492,1
DA:2493,1
DA:2494,1
DA:2495,1
DA:2496,1
DA:2497,1
DA:2498,1
DA:2499,1
DA:2500,1
DA:2501,1
DA:2502,1
DA:2503,1
DA:2504,1
DA:2505,1
DA:2506,1
DA:2507,1
DA:2508,1
DA:2509,1
DA:2510,1
DA:2511,1
DA:2512,1
DA:2513,1
DA:2514,1
DA:2515,1
DA:2516,1
DA:2517,1
DA:2518,1
DA:2519,1
DA:2520,1
DA:2521,1
DA:2522,1
DA:2523,1
DA:2524,1
DA:2525,1
DA:2526,1
DA:2527,1
DA:2528,1
DA:2529,1
DA:2530,1
DA:2531,1
DA:2532,1
DA:2533,1
DA:2534,1
DA:2535,1
DA:2536,1
DA:2537,1
DA:2538,1
DA:2539,1
DA:2540,1
DA:2541,1
DA:2542,1
DA:2543,1
DA:2544,1
DA:2545,1
DA:2546,1
DA:2547,1
DA:2548,1
DA:2549,1
DA:2550,1
DA:2551,1
DA:2552,1
DA:2553,1
DA:2554,1
DA:2555,1
DA:2556,1
DA:2557,1
DA:2558,1
DA:2559,1
DA:2560,1
DA:2561,1
DA:2562,1
DA:2563,1
DA:2564,1
DA:2565,1
DA:2566,1
DA:2567,1
DA:2568,1
DA:2569,1
DA:2570,1
DA:2571,1
DA:2572,1
DA:2573,1
DA:2574,1
DA:2575,1
DA:2576,1
DA:2577,1
DA:2578,1
DA:2579,1
DA:2580,1
DA:2581,1
DA:2582,1
DA:2583,1
DA:2584,1
DA:2585,1
DA:2586,1
DA:2587,1
DA:2588,1
DA:2589,1
DA:2590,1
DA:2591,1
DA:2592,1
DA:2593,1
DA:2594,1
DA:2595,1
DA:2596,1
DA:2597,1
DA:2598,1
DA:2599,1
DA:2600,1
DA:2601,1
DA:2602,1
DA:2603,1
DA:2604,1
DA:2605,1
DA:2606,1
DA:2607,1
DA:2608,1
DA:2609,1
DA:2610,1
DA:2611,1
DA:2612,1
DA:2613,1
DA:2614,1
DA:2615,1
DA:2616,1
DA:2617,1
DA:2618,1
DA:2619,1
DA:2620,1
DA:2621,1
DA:2622,1
DA:2623,1
DA:2624,1
DA:2625,1
DA:2626,1
DA:2627,1
DA:2628,1
DA:2629,1
DA:2630,1
DA:2631,1
DA:2632,1
DA:2633,1
DA:2634,1
DA:2635,1
DA:2636,1
DA:2637,1
DA:2638,1
DA:2639,1
DA:2640,1
DA:2641,1
DA:2642,1
DA:2643,1
DA:2644,1
DA:2645,1
DA:2646,1
DA:2647,1
DA:2648,1
DA:2649,1
DA:2650,1
DA:2651,1
DA:2652,1
DA:2653,1
DA:2654,1
DA:2655,1
DA:2656,1
DA:2657,1
DA:2658,1
DA:2659,1
DA:2660,1
DA:2661,1
DA:2662,1
DA:2663,1
DA:2664,1
DA:2665,1
DA:2666,1
DA:2667,1
DA:2668,1
DA:2669,1
DA:2670,1
DA:2671,1
DA:2672,1
DA:2673,1
DA:2674,1
DA:2675,1
DA:2676,1
DA:2677,1
DA:2678,1
DA:2679,1
DA:2680,1
DA:2681,1
DA:2682,1
DA:2683,1
DA:2684,1
DA:2685,1
DA:2686,1
DA:2687,1
DA:2688,1
DA:2689,1
DA:2690,1
DA:2691,1
DA:2692,1
DA:2693,1
DA:2694,1
DA:2695,1
DA:2696,1
DA:2697,1
DA:2698,1
DA:2699,1
DA:2700,1
DA:2701,1
DA:2702,1
DA:2703,1
DA:2704,1
DA:2705,1
DA:2706,1
DA:2707,1
DA:2708,1
DA:2709,1
DA:2710,1
DA:2711,1
DA:2712,1
DA:2713,1
DA:2714,1
DA:2715,1
DA:2716,1
DA:2717,1
DA:2718,1
DA:2719,1
DA:2720,1
DA:2721,1
DA:2722,1
DA:2723,1
DA:2724,1
DA:2725,1
DA:2726,1
DA:2727,1
DA:2728,1
DA:2729,1
DA:2730,1
DA:2731,1
DA:2732,1
DA:2733,1
DA:2734,1
DA:2735,1
DA:2736,1
DA:2737,1
DA:2738,1
DA:2739,1
DA:2740,1
DA:2741,1
DA:2742,1
DA:2743,1
DA:2744,1
DA:2745,1
DA:2746,1
DA:2747,1
DA:2748,1
DA:2749,1
DA:2750,1
DA:2751,1
DA:2752,1
DA:2753,1
DA:2754,1
DA:2755,1
DA:2756,1
DA:2757,1
DA:2758,1
DA:2759,1
DA:2760,1
DA:2761,1
DA:2762,1
DA:2763,1
DA:2764,1
DA:2765,1
DA:2766,1
DA:2767,1
DA:2768,1
DA:2769,1
DA:2770,1
DA:2772,1
DA:2773,1
DA:2774,1
DA:2775,1
DA:2776,1
DA:2777,1
DA:2778,1
DA:2779,1
DA:2780,1
DA:2781,1
DA:2782,1
DA:2783,0
DA:2784,1
DA:2785,1
DA:2788,1
DA:2789,1
DA:2791,1
DA:2792,1
DA:2793,1
DA:2794,1
DA:2795,1
DA:2796,1
DA:2797,1
DA:2798,1
DA:2799,1
DA:2800,1
DA:2801,1
DA:2802,1
DA:2803,1
DA:2804,1
DA:2805,1
DA:2806,1
DA:2807,1
DA:2808,1
DA:2809,1
DA:2810,1
DA:2811,1
DA:2812,1
DA:2813,1
DA:2814,1
DA:2815,1
DA:2816,1
DA:2817,1
DA:2818,1
DA:2819,1
DA:2820,1
DA:2821,1
DA:2822,1
DA:2823,1
DA:2824,1
DA:2825,1
DA:2826,1
DA:2827,1
DA:2828,1
DA:2829,1
DA:2830,1
DA:2831,1
DA:2832,1
DA:2833,1
DA:2834,1
DA:2835,1
DA:2836,1
DA:2837,1
DA:2838,1
DA:2839,1
DA:2840,1
DA:2841,1
DA:2842,1
DA:2843,1
DA:2844,1
DA:2845,1
DA:2846,1
DA:2847,1
DA:2848,1
DA:2849,1
DA:2850,1
DA:2851,1
DA:2852,1
DA:2853,1
DA:2854,1
DA:2855,1
DA:2856,1
DA:2857,1
DA:2858,1
DA:2859,1
DA:2860,1
DA:2861,1
DA:2862,1
DA:2863,1
DA:2864,1
DA:2865,1
DA:2866,1
DA:2867,1
DA:2868,1
DA:2869,1
DA:2870,1
DA:2871,1
DA:2872,1
DA:2873,1
DA:2874,1
DA:2875,1
DA:2876,1
DA:2877,1
DA:2878,1
DA:2879,1
DA:2880,1
DA:2881,1
DA:2882,1
DA:2883,1
DA:2884,1
DA:2885,1
DA:2886,1
DA:2887,1
DA:2888,1
DA:2889,1
DA:2890,1
DA:2891,1
DA:2892,1
DA:2893,1
DA:2894,1
DA:2895,1
DA:2896,1
DA:2897,1
DA:2898,1
DA:2899,1
DA:2900,1
DA:2901,1
DA:2902,1
DA:2903,1
DA:2904,1
DA:2905,1
DA:2906,1
DA:2907,1
DA:2908,1
DA:2909,1
DA:2910,1
DA:2911,1
DA:2912,1
DA:2913,1
DA:2914,1
DA:2915,1
DA:2916,1
DA:2917,1
DA:2918,1
DA:2919,1
DA:2920,1
DA:2921,1
DA:2922,1
DA:2923,1
DA:2924,1
DA:2925,1
DA:2926,1
DA:2927,1
DA:2928,1
DA:2929,1
DA:2930,1
DA:2931,1
DA:2932,1
DA:2933,1
DA:2934,1
DA:2935,1
DA:2936,1
DA:2937,1
DA:2938,1
DA:2939,1
DA:2940,1
DA:2941,1
DA:2942,1
DA:2943,1
DA:2944,1
DA:2945,1
DA:2946,1
DA:2947,1
DA:2948,1
DA:2949,1
DA:2950,1
DA:2951,1
DA:2952,1
DA:2953,1
DA:2954,1
DA:2955,1
DA:2956,1
DA:2957,1
DA:2958,1
DA:2959,1
DA:2960,1
DA:2961,1
DA:2962,1
DA:2963,1
DA:2964,1
DA:2965,1
DA:2966,1
DA:2967,1
DA:2968,1
DA:2969,1
DA:2970,1
DA:2971,1
DA:2972,1
DA:2973,1
DA:2974,1
DA:2975,1
DA:2976,1
DA:2977,1
DA:2978,1
DA:2979,1
DA:2980,1
DA:2981,1
DA:2982,1
DA:2983,1
DA:2984,1
DA:2985,1
DA:2986,1
DA:2987,1
DA:2988,1
DA:2989,1
DA:2990,1
DA:2991,1
DA:2992,1
DA:2993,1
DA:2994,1
DA:2995,1
DA:2996,1
DA:2997,1
DA:2998,1
DA:2999,1
DA:3000,1
DA:3001,1
DA:3002,1
DA:3003,1
DA:3004,1
DA:3005,1
DA:3006,1
DA:3007,1
DA:3008,1
DA:3009,1
DA:3010,1
DA:3011,1
DA:3012,1
DA:3013,1
DA:3014,1
DA:3015,1
DA:3016,1
DA:3017,1
DA:3018,1
DA:3019,1
DA:3020,1
DA:3021,1
DA:3022,1
DA:3023,1
DA:3024,1
DA:3025,1
DA:3026,1
DA:3027,1
DA:3028,1
DA:3029,1
DA:3030,1
DA:3031,1
DA:3032,1
DA:3033,1
DA:3034,1
DA:3035,1
DA:3036,1
DA:3037,1
DA:3038,1
DA:3039,1
DA:3040,1
DA:3041,1
DA:3042,1
DA:3043,1
DA:3044,1
DA:3045,1
DA:3046,1
DA:3047,1
DA:3048,1
DA:3049,1
DA:3050,1
DA:3051,1
DA:3052,1
DA:3053,1
DA:3054,1
DA:3055,1
DA:3056,1
DA:3057,1
DA:3058,1
DA:3059,1
DA:3060,1
DA:3061,1
DA:3062,1
DA:3063,1
DA:3064,1
DA:3065,1
DA:3066,1
DA:3067,1
DA:3068,1
DA:3069,1
DA:3070,1
DA:3071,1
DA:3072,1
DA:3073,1
DA:3074,1
DA:3075,1
DA:3076,1
DA:3077,1
DA:3078,1
DA:3079,1
DA:3080,1
DA:3081,1
DA:3082,1
DA:3083,1
DA:3084,1
DA:3085,1
DA:3086,1
DA:3087,1
DA:3088,1
DA:3089,1
DA:3090,1
DA:3091,1
DA:3092,1
DA:3093,1
DA:3094,1
DA:3095,1
DA:3096,1
DA:3097,1
DA:3098,1
DA:3099,1
DA:3100,1
DA:3101,1
DA:3102,1
DA:3103,1
DA:3104,1
DA:3105,1
DA:3106,1
DA:3107,1
DA:3108,1
DA:3109,1
DA:3110,1
DA:3111,1
DA:3112,1
DA:3113,1
DA:3114,1
DA:3115,1
DA:3116,1
DA:3117,1
DA:3118,1
DA:3119,1
DA:3120,1
DA:3121,1
DA:3122,1
DA:3123,1
DA:3124,1
DA:3125,1
DA:3126,1
DA:3127,1
DA:3128,1
DA:3129,1
DA:3130,1
DA:3131,1
DA:3132,1
DA:3133,1
DA:3134,1
DA:3135,1
DA:3136,1
DA:3137,1
DA:3138,1
DA:3139,1
DA:3140,1
DA:3141,1
DA:3142,1
DA:3143,1
DA:3144,1
DA:3145,1
DA:3146,1
DA:3147,1
DA:3148,1
DA:3149,1
DA:3150,2
DA:3151,2
DA:3152,26
DA:3153,26
DA:3154,26
DA:3155,24
DA:3156,24
DA:3157,2
DA:3158,2
DA:3160,2
DA:3161,2
DA:3162,1
DA:3163,1
DA:3164,2
DA:3167,1
DA:3168,1
DA:3170,1
DA:3171,1
DA:3172,1
DA:3173,1
DA:3174,1
DA:3175,1
DA:3176,1
DA:3177,1
DA:3178,1
DA:3179,1
DA:3180,1
DA:3181,0
DA:3182,1
DA:3183,1
DA:3186,1
DA:3187,1
DA:3189,1
DA:3190,1
DA:3191,1
DA:3192,1
DA:3193,1
DA:3194,1
DA:3195,1
DA:3196,1
DA:3197,1
DA:3198,1
DA:3199,1
DA:3200,1
DA:3201,1
DA:3202,1
DA:3203,1
DA:3204,1
DA:3205,1
DA:3206,1
DA:3207,1
DA:3208,1
DA:3209,1
DA:3210,1
DA:3211,1
DA:3212,1
DA:3213,1
DA:3214,1
DA:3215,1
DA:3216,1
DA:3217,1
DA:3218,1
DA:3219,1
DA:3220,1
DA:3221,1
DA:3222,1
DA:3223,1
DA:3224,1
DA:3225,1
DA:3226,1
DA:3227,1
DA:3228,1
DA:3229,1
DA:3230,1
DA:3231,1
DA:3232,1
DA:3233,1
DA:3234,1
DA:3235,1
DA:3236,1
DA:3237,1
DA:3238,1
DA:3239,1
DA:3240,1
DA:3241,1
DA:3242,1
DA:3243,1
DA:3244,1
DA:3245,1
DA:3246,1
DA:3247,1
DA:3248,1
DA:3249,1
DA:3250,1
DA:3251,1
DA:3252,1
DA:3253,1
DA:3254,1
DA:3255,1
DA:3256,1
DA:3257,1
DA:3258,1
DA:3259,1
DA:3260,1
DA:3261,1
DA:3262,1
DA:3263,1
DA:3264,1
DA:3265,1
DA:3266,1
DA:3267,1
DA:3268,1
DA:3269,1
DA:3270,1
DA:3271,1
DA:3272,1
DA:3273,1
DA:3274,1
DA:3275,1
DA:3276,1
DA:3277,1
DA:3278,1
DA:3279,1
DA:3280,1
DA:3281,1
DA:3282,1
DA:3283,1
DA:3284,1
DA:3285,1
DA:3286,1
DA:3287,1
DA:3288,1
DA:3289,1
DA:3290,1
DA:3291,1
DA:3292,1
DA:3293,1
DA:3294,1
DA:3295,1
DA:3296,1
DA:3297,1
DA:3298,1
DA:3299,1
DA:3300,1
DA:3301,1
DA:3302,1
DA:3303,1
DA:3304,1
DA:3305,1
DA:3306,1
DA:3307,1
DA:3308,1
DA:3309,1
DA:3310,1
DA:3311,1
DA:3312,1
DA:3313,1
DA:3314,1
DA:3315,1
DA:3316,1
DA:3317,1
DA:3318,1
DA:3320,1
DA:3321,1
DA:3322,1
DA:3323,1
DA:3324,1
DA:3325,1
DA:3326,0
DA:3327,0
DA:3329,1
DA:3331,1
DA:3333,1
DA:3334,1
DA:3335,1
DA:3336,1
DA:3338,1
DA:3339,1
DA:3340,1
DA:3341,1
DA:3342,1
DA:3343,1
DA:3344,1
DA:3345,1
DA:3346,1
DA:3347,1
DA:3348,1
DA:3349,1
DA:3350,1
DA:3351,1
DA:3352,1
DA:3353,1
DA:3354,1
DA:3355,1
DA:3356,1
DA:3357,1
DA:3358,1
DA:3359,1
DA:3360,1
DA:3361,1
DA:3362,1
DA:3363,1
DA:3364,1
DA:3365,1
DA:3366,1
DA:3367,1
DA:3368,1
DA:3369,1
DA:3370,1
DA:3371,1
DA:3372,1
DA:3373,1
DA:3374,1
DA:3375,1
DA:3376,1
DA:3377,1
DA:3378,1
DA:3379,1
DA:3380,1
DA:3381,1
DA:3382,1
DA:3383,1
DA:3384,1
DA:3385,1
DA:3386,1
DA:3387,1
DA:3388,1
DA:3389,1
DA:3390,1
DA:3391,1
DA:3392,1
DA:3393,1
DA:3394,1
DA:3395,1
DA:3396,1
DA:3397,1
DA:3398,1
DA:3399,1
DA:3400,1
DA:3401,1
DA:3402,1
DA:3403,1
DA:3404,1
DA:3405,1
DA:3406,1
DA:3407,1
DA:3408,1
DA:3409,1
DA:3410,1
DA:3411,1
DA:3412,1
DA:3413,1
DA:3414,1
DA:3415,1
DA:3416,1
DA:3417,1
DA:3418,1
DA:3419,1
DA:3420,1
DA:3421,1
DA:3422,1
DA:3423,1
DA:3424,1
DA:3425,1
DA:3426,1
DA:3427,1
DA:3428,1
DA:3429,1
DA:3430,1
DA:3431,1
DA:3432,1
DA:3433,1
DA:3434,1
DA:3435,1
DA:3436,1
DA:3437,1
DA:3438,1
DA:3439,1
DA:3440,1
DA:3441,1
DA:3442,1
DA:3443,1
DA:3444,1
DA:3445,1
DA:3446,1
DA:3447,1
DA:3448,1
DA:3449,1
DA:3450,1
DA:3451,1
DA:3452,1
DA:3453,1
DA:3454,1
DA:3455,1
DA:3456,1
DA:3457,1
DA:3458,1
DA:3459,1
DA:3460,1
DA:3461,1
DA:3462,1
DA:3463,1
DA:3464,1
DA:3465,1
DA:3466,1
DA:3467,1
DA:3468,1
DA:3469,1
DA:3470,1
DA:3471,1
DA:3472,1
DA:3473,1
DA:3474,1
DA:3475,1
DA:3476,1
DA:3477,1
DA:3478,1
DA:3479,1
DA:3480,1
DA:3481,1
DA:3482,1
DA:3483,1
DA:3484,1
DA:3485,1
DA:3486,1
DA:3487,1
DA:3488,1
DA:3489,1
DA:3490,1
DA:3491,1
DA:3492,1
DA:3493,1
DA:3494,1
DA:3495,1
DA:3496,1
DA:3497,1
DA:3498,1
DA:3499,1
DA:3500,1
DA:3501,1
DA:3502,1
DA:3503,1
DA:3504,1
DA:3505,1
DA:3506,1
DA:3507,1
DA:3508,1
DA:3509,1
DA:3510,1
DA:3511,1
DA:3512,1
DA:3513,1
DA:3514,1
DA:3515,1
DA:3516,1
DA:3517,1
DA:3518,1
DA:3519,1
DA:3520,1
DA:3521,1
DA:3522,1
DA:3523,1
DA:3524,1
DA:3525,1
DA:3526,1
DA:3527,1
DA:3528,1
DA:3529,1
DA:3530,1
DA:3531,1
DA:3532,1
DA:3533,1
DA:3534,1
DA:3535,1
DA:3536,1
DA:3537,1
DA:3538,1
DA:3539,1
DA:3540,1
DA:3541,1
DA:3542,1
DA:3543,1
DA:3544,1
DA:3545,1
DA:3546,1
DA:3547,1
DA:3548,1
DA:3549,1
DA:3550,1
DA:3551,1
DA:3552,1
DA:3553,1
DA:3554,1
DA:3555,1
DA:3556,1
DA:3557,1
DA:3558,1
DA:3559,1
DA:3560,1
DA:3561,1
DA:3562,1
DA:3563,1
DA:3564,1
DA:3565,1
DA:3566,1
DA:3567,1
DA:3568,1
DA:3569,1
DA:3570,1
DA:3571,1
DA:3572,1
DA:3573,1
DA:3574,1
DA:3575,1
DA:3576,1
DA:3577,1
DA:3578,1
DA:3579,1
DA:3580,1
DA:3581,1
DA:3582,1
DA:3583,1
DA:3584,1
DA:3585,1
DA:3586,1
DA:3587,1
DA:3588,1
DA:3589,1
DA:3590,1
DA:3591,1
DA:3592,1
DA:3593,0
DA:3594,1
DA:3595,1
DA:3598,1
DA:3599,1
DA:3601,1
DA:3602,1
DA:3603,1
DA:3604,1
DA:3605,1
DA:3606,1
DA:3607,1
DA:3608,1
DA:3609,1
DA:3610,1
DA:3611,1
DA:3612,1
DA:3613,1
DA:3614,1
DA:3615,1
DA:3616,1
DA:3617,1
DA:3618,1
DA:3619,1
DA:3620,1
DA:3621,1
DA:3622,1
DA:3623,1
DA:3624,1
DA:3625,1
DA:3626,1
DA:3627,1
DA:3628,1
DA:3629,1
DA:3630,1
DA:3631,1
DA:3632,1
DA:3633,1
DA:3634,1
DA:3635,1
DA:3636,1
DA:3637,1
DA:3638,1
DA:3639,1
DA:3640,1
DA:3641,1
DA:3642,1
DA:3643,1
DA:3644,1
DA:3645,1
DA:3646,1
DA:3647,1
DA:3648,1
DA:3649,1
DA:3650,1
DA:3651,1
DA:3652,1
DA:3653,1
DA:3654,1
DA:3655,1
DA:3656,1
DA:3657,1
DA:3658,1
DA:3659,1
DA:3660,1
DA:3661,1
DA:3662,1
DA:3663,1
DA:3664,1
DA:3665,1
DA:3666,1
DA:3667,1
DA:3668,1
DA:3669,1
DA:3670,1
DA:3671,1
DA:3672,1
DA:3673,1
DA:3674,1
DA:3675,1
DA:3676,1
DA:3677,1
DA:3678,1
DA:3679,1
DA:3680,1
DA:3681,1
DA:3682,1
DA:3683,1
DA:3684,1
DA:3685,1
DA:3686,1
DA:3687,1
DA:3688,1
DA:3689,1
DA:3690,1
DA:3691,1
DA:3692,1
DA:3693,1
DA:3694,1
DA:3695,1
DA:3696,1
DA:3697,1
DA:3698,1
DA:3699,1
DA:3700,1
DA:3701,1
DA:3702,1
DA:3703,1
DA:3704,1
DA:3705,1
DA:3706,1
DA:3707,1
DA:3708,1
DA:3709,1
DA:3710,1
DA:3711,1
DA:3712,1
DA:3713,1
DA:3714,1
DA:3715,1
DA:3716,1
DA:3717,1
DA:3718,1
DA:3719,1
DA:3720,1
DA:3721,1
DA:3722,1
DA:3723,1
DA:3724,1
DA:3725,1
DA:3726,1
DA:3727,1
DA:3728,1
DA:3729,1
DA:3730,1
DA:3731,1
DA:3732,1
DA:3733,1
DA:3734,1
DA:3735,1
DA:3736,1
DA:3737,1
DA:3738,1
DA:3739,1
DA:3740,1
DA:3741,1
DA:3742,1
DA:3743,1
DA:3744,1
DA:3745,1
DA:3746,1
DA:3747,1
DA:3748,1
DA:3749,1
DA:3750,1
DA:3751,1
DA:3752,1
DA:3753,1
DA:3754,1
DA:3755,1
DA:3756,1
DA:3757,1
DA:3758,1
DA:3759,1
DA:3760,1
DA:3761,1
DA:3762,1
DA:3763,1
DA:3764,1
DA:3765,1
DA:3766,1
DA:3767,1
DA:3768,1
DA:3769,1
DA:3770,1
DA:3771,1
DA:3772,1
DA:3773,1
DA:3774,1
DA:3775,1
DA:3776,1
DA:3777,1
DA:3778,1
DA:3779,1
DA:3780,1
DA:3781,1
DA:3782,1
DA:3783,1
DA:3784,1
DA:3785,1
DA:3786,1
DA:3787,1
DA:3788,1
DA:3789,1
DA:3790,1
DA:3791,1
DA:3792,1
DA:3793,1
DA:3794,1
DA:3795,1
DA:3796,1
DA:3797,1
DA:3798,1
DA:3799,1
DA:3800,1
DA:3801,1
DA:3802,1
DA:3803,1
DA:3804,1
DA:3805,1
DA:3806,1
DA:3807,1
DA:3808,1
DA:3809,1
DA:3810,1
DA:3811,1
DA:3812,1
DA:3813,1
DA:3814,1
DA:3815,1
DA:3816,1
DA:3817,1
DA:3818,1
DA:3819,1
DA:3820,1
DA:3821,1
DA:3822,1
DA:3823,1
DA:3824,1
DA:3825,1
DA:3826,1
DA:3827,1
DA:3828,1
DA:3829,1
DA:3830,1
DA:3831,1
DA:3832,1
DA:3833,1
DA:3834,1
DA:3835,1
DA:3836,1
DA:3837,1
DA:3838,1
DA:3839,1
DA:3840,1
DA:3841,1
DA:3842,1
DA:3843,1
DA:3844,1
DA:3845,1
DA:3846,1
DA:3847,1
DA:3848,1
DA:3849,1
DA:3850,1
DA:3851,1
DA:3852,1
DA:3853,1
DA:3854,1
DA:3855,1
DA:3856,0
DA:3857,1
DA:3858,1
DA:3861,1
DA:3862,1
BRF:0
BRH:0
LF:3560
LH:2621
end_of_record
SF:C:\Users\nexts\opensource\hayabusa\src\debug\checkpoint_process_timer.rs
FN:61,_RNCNvNtNtNtCsh5cigu73tlT_8hayabusa5debug24checkpoint_process_timer5tests20test_set_check_point0B9_
FN:20,_RNvMNtNtCsh5cigu73tlT_8hayabusa5debug24checkpoint_process_timerNtB2_22CheckPointProcessTimer23create_checkpoint_timer
FN:47,_RNvMNtNtCsh5cigu73tlT_8hayabusa5debug24checkpoint_process_timerNtB2_22CheckPointProcessTimer21output_stocked_result
FN:33,_RNvMNtNtCsh5cigu73tlT_8hayabusa5debug24checkpoint_process_timerNtB2_22CheckPointProcessTimer15rap_check_point
FN:28,_RNvMNtNtCsh5cigu73tlT_8hayabusa5debug24checkpoint_process_timerNtB2_22CheckPointProcessTimer14set_checkpoint
FN:62,_RNvNtNtNtCsh5cigu73tlT_8hayabusa5debug24checkpoint_process_timer5testss_20test_set_check_point
FN:70,_RNvNtNtNtCsh5cigu73tlT_8hayabusa5debug24checkpoint_process_timer5testss_20test_rap_check_point
FN:69,_RNCNvNtNtNtCsh5cigu73tlT_8hayabusa5debug24checkpoint_process_timer5tests20test_rap_check_point0B9_
FN:28,_RNvMNtNtCsk6AfKij8NQT_8hayabusa5debug24checkpoint_process_timerNtB2_22CheckPointProcessTimer14set_checkpoint
FN:20,_RNvMNtNtCsk6AfKij8NQT_8hayabusa5debug24checkpoint_process_timerNtB2_22CheckPointProcessTimer23create_checkpoint_timer
FN:47,_RNvMNtNtCsk6AfKij8NQT_8hayabusa5debug24checkpoint_process_timerNtB2_22CheckPointProcessTimer21output_stocked_result
FN:33,_RNvMNtNtCsk6AfKij8NQT_8hayabusa5debug24checkpoint_process_timerNtB2_22CheckPointProcessTimer15rap_check_point
FNDA:1,_RNCNvNtNtNtCsh5cigu73tlT_8hayabusa5debug24checkpoint_process_timer5tests20test_set_check_point0B9_
FNDA:1,_RNvMNtNtCsh5cigu73tlT_8hayabusa5debug24checkpoint_process_timerNtB2_22CheckPointProcessTimer23create_checkpoint_timer
FNDA:1,_RNvMNtNtCsh5cigu73tlT_8hayabusa5debug24checkpoint_process_timerNtB2_22CheckPointProcessTimer21output_stocked_result
FNDA:2,_RNvMNtNtCsh5cigu73tlT_8hayabusa5debug24checkpoint_process_timerNtB2_22CheckPointProcessTimer15rap_check_point
FNDA:2,_RNvMNtNtCsh5cigu73tlT_8hayabusa5debug24checkpoint_process_timerNtB2_22CheckPointProcessTimer14set_checkpoint
FNDA:1,_RNvNtNtNtCsh5cigu73tlT_8hayabusa5debug24checkpoint_process_timer5testss_20test_set_check_point
FNDA:1,_RNvNtNtNtCsh5cigu73tlT_8hayabusa5debug24checkpoint_process_timer5testss_20test_rap_check_point
FNDA:1,_RNCNvNtNtNtCsh5cigu73tlT_8hayabusa5debug24checkpoint_process_timer5tests20test_rap_check_point0B9_
FNDA:10,_RNvMNtNtCsk6AfKij8NQT_8hayabusa5debug24checkpoint_process_timerNtB2_22CheckPointProcessTimer14set_checkpoint
FNDA:1,_RNvMNtNtCsk6AfKij8NQT_8hayabusa5debug24checkpoint_process_timerNtB2_22CheckPointProcessTimer23create_checkpoint_timer
FNDA:0,_RNvMNtNtCsk6AfKij8NQT_8hayabusa5debug24checkpoint_process_timerNtB2_22CheckPointProcessTimer21output_stocked_result
FNDA:15,_RNvMNtNtCsk6AfKij8NQT_8hayabusa5debug24checkpoint_process_timerNtB2_22CheckPointProcessTimer15rap_check_point
FNF:8
FNH:8
DA:20,2
DA:21,2
DA:22,2
DA:23,2
DA:24,2
DA:25,2
DA:28,12
DA:29,12
DA:30,12
DA:33,17
DA:34,17
DA:35,1
DA:36,16
DA:37,16
DA:38,16
DA:39,16
DA:40,16
DA:41,16
DA:42,16
DA:43,16
DA:44,17
DA:47,1
DA:48,1
DA:49,1
DA:50,1
DA:51,1
DA:61,1
DA:62,1
DA:63,1
DA:64,1
DA:65,1
DA:66,1
DA:67,1
DA:69,1
DA:70,1
DA:71,1
DA:72,1
DA:73,1
DA:74,1
DA:75,1
DA:76,1
DA:77,1
DA:78,1
DA:80,1
DA:81,1
DA:82,1
DA:83,1
DA:85,1
DA:86,1
BRF:0
BRH:0
LF:49
LH:49
end_of_record
SF:C:\Users\nexts\opensource\hayabusa\src\detections\configs.rs
FN:2430,_RNvXs1H_NtNtCsh5cigu73tlT_8hayabusa10detections7configsNtB6_15EventInfoConfigNtNtCsjwgglklCTGv_4core5clone5Clone5cloneBa_
FN:2739,_RNvNtNtNtCsh5cigu73tlT_8hayabusa10detections7configs5testss_27test_timeline_offset_search
FN:1618,_RNvXs1w_NtNtCsh5cigu73tlT_8hayabusa10detections7configsNtB6_6ConfigNtNtCsjwgglklCTGv_4core5clone5Clone5cloneBa_
FN:2785,_RNvNtNtNtCsh5cigu73tlT_8hayabusa10detections7configs5testss_32test_timeline_offset_eid_metrics
FN:2558,_RNvNtNtNtCsh5cigu73tlT_8hayabusa10detections7configs5testss_26test_get_target_extensions
FN:929,_RNvXsD_NtNtCsh5cigu73tlT_8hayabusa10detections7configsNtB5_20DefaultProfileOptionNtNtCsjwgglklCTGv_4core5clone5Clone5cloneB9_
FN:1978,_RNvNtNtCsh5cigu73tlT_8hayabusa10detections7configs19load_eventkey_alias
FN:2463,_RNCNvNtNtCsh5cigu73tlT_8hayabusa10detections7configs19load_eventcode_info0B7_
FN:2447,_RNvMsa_NtNtCsh5cigu73tlT_8hayabusa10detections7configsNtB5_15EventInfoConfig12get_event_id
FN:1988,_RNCNvNtNtCsh5cigu73tlT_8hayabusa10detections7configs19load_eventkey_alias0B7_
FN:1514,_RNvXs1i_NtNtCsh5cigu73tlT_8hayabusa10detections7configsNtB6_15CsvOutputOptionNtNtCsjwgglklCTGv_4core5clone5Clone5cloneBa_
FN:1539,_RNvXs1m_NtNtCsh5cigu73tlT_8hayabusa10detections7configsNtB6_16JSONOutputOptionNtNtCsjwgglklCTGv_4core5clone5Clone5cloneBa_
FN:2013,_RNvNtNtCsh5cigu73tlT_8hayabusa10detections7configs19load_pivot_keywords
FN:1767,_RNCNCNvMs4_NtNtCsh5cigu73tlT_8hayabusa10detections7configsNtB9_15TargetEventTime3news_0s1_0Bd_
FN:2532,_RNCNvNtNtNtCsh5cigu73tlT_8hayabusa10detections7configs5tests24target_event_time_filter0B9_
FN:2827,_RNCNvNtNtNtCsh5cigu73tlT_8hayabusa10detections7configs5tests34test_timeline_offset_logon_summary0B9_
FN:1706,_RNvMs4_NtNtCsh5cigu73tlT_8hayabusa10detections7configsNtB5_15TargetEventTime3new
FN:939,_RNvXsH_NtNtCsh5cigu73tlT_8hayabusa10detections7configsNtB5_12SearchOptionNtNtCsjwgglklCTGv_4core5clone5Clone5cloneB9_
FN:319,_RNCNvMs_NtNtCsh5cigu73tlT_8hayabusa10detections7configsNtB6_12StoredStatic18create_static_datas6_0Ba_
FN:2533,_RNvNtNtNtCsh5cigu73tlT_8hayabusa10detections7configs5testss_24target_event_time_filter
FN:2005,_RNCNCNvNtNtCsh5cigu73tlT_8hayabusa10detections7configs19load_eventkey_alias00B9_
FN:178,_RNCNvMs_NtNtCsh5cigu73tlT_8hayabusa10detections7configsNtB6_12StoredStatic18create_static_datas2_0Ba_
FN:52,_RNvXss_NtNtCsh5cigu73tlT_8hayabusa10detections7configsNtB5_12StoredStaticNtNtCsjwgglklCTGv_4core5clone5Clone5cloneB9_
FN:1711,_RNCNCNvMs4_NtNtCsh5cigu73tlT_8hayabusa10detections7configsNtB9_15TargetEventTime3new00Bd_
FN:2784,_RNCNvNtNtNtCsh5cigu73tlT_8hayabusa10detections7configs5tests32test_timeline_offset_eid_metrics0B9_
FN:2413,_RNvXs1F_NtNtCsh5cigu73tlT_8hayabusa10detections7configsNtB6_9EventInfoNtNtCsjwgglklCTGv_4core5clone5Clone5cloneBa_
FN:91,_RNvMs_NtNtCsh5cigu73tlT_8hayabusa10detections7configsNtB4_12StoredStatic18create_static_data
FN:2874,_RNvNtNtNtCsh5cigu73tlT_8hayabusa10detections7configs5testss_26test_timeline_offset_pivot
FN:1311,_RNvXs15_NtNtCsh5cigu73tlT_8hayabusa10detections7configsNtB6_12OutputOptionNtNtCsjwgglklCTGv_4core5clone5Clone5cloneBa_
FN:1173,_RNvXsX_NtNtCsh5cigu73tlT_8hayabusa10detections7configsNtB5_18PivotKeywordOptionNtNtCsjwgglklCTGv_4core5clone5Clone5cloneB9_
FN:1709,_RNCNvMs4_NtNtCsh5cigu73tlT_8hayabusa10detections7configsNtB7_15TargetEventTime3new0Bb_
FN:1653,_RNvXs1z_NtNtCsh5cigu73tlT_8hayabusa10detections7configsNtB6_9TargetIdsNtNtCsjwgglklCTGv_4core5clone5Clone5cloneBa_
FN:2065,_RNvNtNtCsh5cigu73tlT_8hayabusa10detections7configs22extract_search_options
FN:2738,_RNCNvNtNtNtCsh5cigu73tlT_8hayabusa10detections7configs5tests27test_timeline_offset_search0B9_
FN:573,_RNCNvMs_NtNtCsh5cigu73tlT_8hayabusa10detections7configsNtB6_12StoredStatic18create_static_datasd_0Ba_
FN:191,_RNCNvMs_NtNtCsh5cigu73tlT_8hayabusa10detections7configsNtB6_12StoredStatic18create_static_datas3_0Ba_
FN:1728,_RNCNvMs4_NtNtCsh5cigu73tlT_8hayabusa10detections7configsNtB7_15TargetEventTime3news_0Bb_
FN:1125,_RNvXsT_NtNtCsh5cigu73tlT_8hayabusa10detections7configsNtB5_16EidMetricsOptionNtNtCsjwgglklCTGv_4core5clone5Clone5cloneB9_
FN:2019,_RNCNvNtNtCsh5cigu73tlT_8hayabusa10detections7configs19load_pivot_keywords0B7_
FN:1089,_RNvXsL_NtNtCsh5cigu73tlT_8hayabusa10detections7configsNtB5_12UpdateOptionNtNtCsjwgglklCTGv_4core5clone5Clone5cloneB9_
FN:1480,_RNvXs1a_NtNtCsh5cigu73tlT_8hayabusa10detections7configsNtB6_13CommonOptionsNtNtCsjwgglklCTGv_4core5clone5Clone5cloneBa_
FN:1963,_RNvMs5_NtNtCsh5cigu73tlT_8hayabusa10detections7configsNtB5_19EventKeyAliasConfig13get_event_key
FN:2483,_RNvNtNtCsh5cigu73tlT_8hayabusa10detections7configs31create_control_chat_replace_map
FN:155,_RNCNvMs_NtNtCsh5cigu73tlT_8hayabusa10detections7configsNtB6_12StoredStatic18create_static_data0Ba_
FN:839,_RNvMs0_NtNtCsh5cigu73tlT_8hayabusa10detections7configsNtB5_6Action8to_usize
FN:1765,_RNCNCNvMs4_NtNtCsh5cigu73tlT_8hayabusa10detections7configsNtB9_15TargetEventTime3news_0s_0Bd_
FN:1931,_RNvMs4_NtNtCsh5cigu73tlT_8hayabusa10detections7configsNtB5_15TargetEventTime9is_target
FN:1688,_RNCNvNtNtCsh5cigu73tlT_8hayabusa10detections7configs15load_target_ids0B7_
FN:2570,_RNvNtNtNtCsh5cigu73tlT_8hayabusa10detections7configs5testss_20no_target_extensions
FN:1768,_RNCNCNvMs4_NtNtCsh5cigu73tlT_8hayabusa10detections7configsNtB9_15TargetEventTime3news_0s2_0Bd_
FN:668,_RNCNvMs_NtNtCsh5cigu73tlT_8hayabusa10detections7configsNtB6_12StoredStatic19get_default_details0Ba_
FN:1766,_RNCNCNvMs4_NtNtCsh5cigu73tlT_8hayabusa10detections7configsNtB9_15TargetEventTime3news_0s0_0Bd_
FN:2547,_RNCNvNtNtNtCsh5cigu73tlT_8hayabusa10detections7configs5tests42target_event_time_filter_containes_on_time0B9_
FN:1769,_RNCNCNvMs4_NtNtCsh5cigu73tlT_8hayabusa10detections7configsNtB9_15TargetEventTime3news_0s3_0Bd_
FN:2873,_RNCNvNtNtNtCsh5cigu73tlT_8hayabusa10detections7configs5tests26test_timeline_offset_pivot0B9_
FN:1680,_RNvNtNtCsh5cigu73tlT_8hayabusa10detections7configs15load_target_ids
FN:2442,_RNvMsa_NtNtCsh5cigu73tlT_8hayabusa10detections7configsNtB5_15EventInfoConfig3new
FN:598,_RNCNvMs_NtNtCsh5cigu73tlT_8hayabusa10detections7configsNtB6_12StoredStatic18create_static_datase_0Ba_
FN:715,_RNvNtNtCsh5cigu73tlT_8hayabusa10detections7configs19check_thread_number
FN:2453,_RNvNtNtCsh5cigu73tlT_8hayabusa10detections7configs19load_eventcode_info
FN:2828,_RNvNtNtNtCsh5cigu73tlT_8hayabusa10detections7configs5testss_34test_timeline_offset_logon_summary
FN:1967,_RNvMs5_NtNtCsh5cigu73tlT_8hayabusa10detections7configsNtB5_19EventKeyAliasConfig19get_event_key_split
FN:2580,_RNvNtNtNtCsh5cigu73tlT_8hayabusa10detections7configs5testss_36test_create_control_char_replace_map
FN:611,_RNCNvMs_NtNtCsh5cigu73tlT_8hayabusa10detections7configsNtB6_12StoredStatic18create_static_datasf_0Ba_
FN:2098,_RNvNtNtCsh5cigu73tlT_8hayabusa10detections7configs22extract_output_options
FN:526,_RNCNvMs_NtNtCsh5cigu73tlT_8hayabusa10detections7configsNtB6_12StoredStatic18create_static_datas8_0Ba_
FN:726,_RNvXsv_NtNtCsh5cigu73tlT_8hayabusa10detections7configsNtB5_6ActionNtNtCsjwgglklCTGv_4core5clone5Clone5cloneB9_
FN:2569,_RNCNvNtNtNtCsh5cigu73tlT_8hayabusa10detections7configs5tests20no_target_extensions0B9_
FN:2667,_RNCNvNtNtNtCsh5cigu73tlT_8hayabusa10detections7configs5tests25test_timeline_offset_json0B9_
FN:1107,_RNvXsP_NtNtCsh5cigu73tlT_8hayabusa10detections7configsNtB5_17LevelTuningOptionNtNtCsjwgglklCTGv_4core5clone5Clone5cloneB9_
FN:1491,_RNvXs1e_NtNtCsh5cigu73tlT_8hayabusa10detections7configsNtB6_11InputOptionNtNtCsjwgglklCTGv_4core5clone5Clone5cloneBa_
FN:2557,_RNCNvNtNtNtCsh5cigu73tlT_8hayabusa10detections7configs5tests26test_get_target_extensions0B9_
FN:543,_RNCNvMs_NtNtCsh5cigu73tlT_8hayabusa10detections7configsNtB6_12StoredStatic18create_static_datasa_0Ba_
FN:161,_RNCNvMs_NtNtCsh5cigu73tlT_8hayabusa10detections7configsNtB6_12StoredStatic18create_static_datas0_0Ba_
FN:657,_RNvMs_NtNtCsh5cigu73tlT_8hayabusa10detections7configsNtB4_12StoredStatic19get_default_details
FN:1949,_RNvXs1D_NtNtCsh5cigu73tlT_8hayabusa10detections7configsNtB6_19EventKeyAliasConfigNtNtCsjwgglklCTGv_4core5clone5Clone5cloneBa_
FN:2596,_RNCNvNtNtNtCsh5cigu73tlT_8hayabusa10detections7configs5tests24test_timeline_offset_csv0B9_
FN:1665,_RNvMs3_NtNtCsh5cigu73tlT_8hayabusa10detections7configsNtB5_9TargetIds3new
FN:2582,_RNCNvNtNtNtCsh5cigu73tlT_8hayabusa10detections7configs5testss_36test_create_control_char_replace_map0B9_
FN:1755,_RNCNCNvMs4_NtNtCsh5cigu73tlT_8hayabusa10detections7configsNtB9_15TargetEventTime3news_00Bd_
FN:167,_RNCNvMs_NtNtCsh5cigu73tlT_8hayabusa10detections7configsNtB6_12StoredStatic18create_static_datas1_0Ba_
FN:541,_RNCNvMs_NtNtCsh5cigu73tlT_8hayabusa10detections7configsNtB6_12StoredStatic18create_static_datas9_0Ba_
FN:2597,_RNvNtNtNtCsh5cigu73tlT_8hayabusa10detections7configs5testss_24test_timeline_offset_csv
FN:2060,_RNvNtNtCsh5cigu73tlT_8hayabusa10detections7configs25convert_option_vecs_to_hs
FN:2425,_RNvMs8_NtNtCsh5cigu73tlT_8hayabusa10detections7configsNtB5_9EventInfo3new
FN:2668,_RNvNtNtNtCsh5cigu73tlT_8hayabusa10detections7configs5testss_25test_timeline_offset_json
FN:1254,_RNvXs11_NtNtCsh5cigu73tlT_8hayabusa10detections7configsNtB6_18LogonSummaryOptionNtNtCsjwgglklCTGv_4core5clone5Clone5cloneBa_
FN:2049,_RNvNtNtCsh5cigu73tlT_8hayabusa10detections7configs21get_target_extensions
FN:2486,_RNCNvNtNtCsh5cigu73tlT_8hayabusa10detections7configs31create_control_chat_replace_map0B7_
FN:158,_RNCNvMs_NtNtCsh5cigu73tlT_8hayabusa10detections7configsNtB6_12StoredStatic18create_static_datas_0Ba_
FN:546,_RNCNvMs_NtNtCsh5cigu73tlT_8hayabusa10detections7configsNtB6_12StoredStatic18create_static_datasb_0Ba_
FN:1915,_RNvMs4_NtNtCsh5cigu73tlT_8hayabusa10detections7configsNtB5_15TargetEventTime3set
FN:234,_RNCNvMs_NtNtCsh5cigu73tlT_8hayabusa10detections7configsNtB6_12StoredStatic18create_static_datas4_0Ba_
FN:2548,_RNvNtNtNtCsh5cigu73tlT_8hayabusa10detections7configs5testss_42target_event_time_filter_containes_on_time
FN:880,_RNvXsz_NtNtCsh5cigu73tlT_8hayabusa10detections7configsNtB5_18DetectCommonOptionNtNtCsjwgglklCTGv_4core5clone5Clone5cloneB9_
FN:1956,_RNvMs5_NtNtCsh5cigu73tlT_8hayabusa10detections7configsNtB5_19EventKeyAliasConfig3new
FN:487,_RNCNvMs_NtNtCsh5cigu73tlT_8hayabusa10detections7configsNtB6_12StoredStatic18create_static_datas7_0Ba_
FN:560,_RNCNvMs_NtNtCsh5cigu73tlT_8hayabusa10detections7configsNtB6_12StoredStatic18create_static_datasc_0Ba_
FN:1659,_RNvXs2_NtNtCsh5cigu73tlT_8hayabusa10detections7configsNtB5_9TargetIdsNtNtCsjwgglklCTGv_4core7default7Default7default
FN:294,_RNCNvMs_NtNtCsh5cigu73tlT_8hayabusa10detections7configsNtB6_12StoredStatic18create_static_datas5_0Ba_
FN:2579,_RNCNvNtNtNtCsh5cigu73tlT_8hayabusa10detections7configs5tests36test_create_control_char_replace_map0B9_
FN:1563,_RNvXs1q_NtNtCsh5cigu73tlT_8hayabusa10detections7configsNtB6_21ComputerMetricsOptionNtNtCsjwgglklCTGv_4core5clone5Clone5cloneBa_
FN:1671,_RNvMs3_NtNtCsh5cigu73tlT_8hayabusa10detections7configsNtB5_9TargetIds9is_target
FN:956,_RNCNvXsF_NtNtCsh5cigu73tlT_8hayabusa10detections7configsNtB7_12SearchOptionNtNtCseAiZU62iyN8_12clap_builder6derive14FromArgMatches27update_from_arg_matches_mut0Bb_
FN:1173,_RNvXsY_NtNtCsh5cigu73tlT_8hayabusa10detections7configsNtB5_18PivotKeywordOptionNtNtCsjwgglklCTGv_4core3fmt5Debug3fmt
FN:1416,_RNCNvXs13_NtNtCsh5cigu73tlT_8hayabusa10detections7configsNtB8_12OutputOptionNtNtCseAiZU62iyN8_12clap_builder6derive14FromArgMatches27update_from_arg_matches_mutsd_0Bc_
FN:1042,_RNCNvXsF_NtNtCsh5cigu73tlT_8hayabusa10detections7configsNtB7_12SearchOptionNtNtCseAiZU62iyN8_12clap_builder6derive14FromArgMatches20from_arg_matches_muts5_0Bb_
FN:1107,_RNvXsN_NtNtCsh5cigu73tlT_8hayabusa10detections7configsNtB5_17LevelTuningOptionNtNtCseAiZU62iyN8_12clap_builder6derive14FromArgMatches16from_arg_matches
FN:1631,_RNCNvXs1u_NtNtCsh5cigu73tlT_8hayabusa10detections7configsNtB8_6ConfigNtNtCseAiZU62iyN8_12clap_builder6derive14FromArgMatches27update_from_arg_matches_mut0Bc_
FN:1125,_RNvXsR_NtNtCsh5cigu73tlT_8hayabusa10detections7configsNtB5_16EidMetricsOptionNtNtCseAiZU62iyN8_12clap_builder6derive14FromArgMatches16from_arg_matches
FN:1275,_RNCNvXsZ_NtNtCsh5cigu73tlT_8hayabusa10detections7configsNtB7_18LogonSummaryOptionNtNtCseAiZU62iyN8_12clap_builder6derive14FromArgMatches27update_from_arg_matches_muts_0Bb_
FN:1224,_RNCNvXsV_NtNtCsh5cigu73tlT_8hayabusa10detections7configsNtB7_18PivotKeywordOptionNtNtCseAiZU62iyN8_12clap_builder6derive14FromArgMatches27update_from_arg_matches_muts2_0Bb_
FN:1192,_RNCNvXsV_NtNtCsh5cigu73tlT_8hayabusa10detections7configsNtB7_18PivotKeywordOptionNtNtCseAiZU62iyN8_12clap_builder6derive14FromArgMatches20from_arg_matches_muts_0Bb_
FN:1287,_RNCNvXsZ_NtNtCsh5cigu73tlT_8hayabusa10detections7configsNtB7_18LogonSummaryOptionNtNtCseAiZU62iyN8_12clap_builder6derive14FromArgMatches27update_from_arg_matches_muts2_0Bb_
FN:1346,_RNCNvXs13_NtNtCsh5cigu73tlT_8hayabusa10detections7configsNtB8_12OutputOptionNtNtCseAiZU62iyN8_12clap_builder6derive14FromArgMatches27update_from_arg_matches_muts3_0Bc_
FN:1244,_RNCNvXsV_NtNtCsh5cigu73tlT_8hayabusa10detections7configsNtB7_18PivotKeywordOptionNtNtCseAiZU62iyN8_12clap_builder6derive14FromArgMatches27update_from_arg_matches_muts5_0Bb_
FN:1224,_RNCNvXsV_NtNtCsh5cigu73tlT_8hayabusa10detections7configsNtB7_18PivotKeywordOptionNtNtCseAiZU62iyN8_12clap_builder6derive14FromArgMatches20from_arg_matches_muts2_0Bb_
FN:1488,_RNCNvXs18_NtNtCsh5cigu73tlT_8hayabusa10detections7configsNtB8_13CommonOptionsNtNtCseAiZU62iyN8_12clap_builder6derive14FromArgMatches20from_arg_matches_muts_0Bc_
FN:1385,_RNCNvXs13_NtNtCsh5cigu73tlT_8hayabusa10detections7configsNtB8_12OutputOptionNtNtCseAiZU62iyN8_12clap_builder6derive14FromArgMatches27update_from_arg_matches_muts6_0Bc_
FN:956,_RNCNvXsF_NtNtCsh5cigu73tlT_8hayabusa10detections7configsNtB7_12SearchOptionNtNtCseAiZU62iyN8_12clap_builder6derive14FromArgMatches20from_arg_matches_mut0Bb_
FN:1287,_RNCNvXsZ_NtNtCsh5cigu73tlT_8hayabusa10detections7configsNtB7_18LogonSummaryOptionNtNtCseAiZU62iyN8_12clap_builder6derive14FromArgMatches20from_arg_matches_muts2_0Bb_
FN:1514,_RNvXs1g_NtNtCsh5cigu73tlT_8hayabusa10detections7configsNtB6_15CsvOutputOptionNtNtCseAiZU62iyN8_12clap_builder6derive14FromArgMatches27update_from_arg_matches_mut
FN:1491,_RNvXs1c_NtNtCsh5cigu73tlT_8hayabusa10detections7configsNtB6_11InputOptionNtNtCseAiZU62iyN8_12clap_builder6derive14FromArgMatches23update_from_arg_matches
FN:939,_RNvXsF_NtNtCsh5cigu73tlT_8hayabusa10detections7configsNtB5_12SearchOptionNtNtCseAiZU62iyN8_12clap_builder6derive14FromArgMatches16from_arg_matches
FN:1581,_RNCNvXs1o_NtNtCsh5cigu73tlT_8hayabusa10detections7configsNtB8_21ComputerMetricsOptionNtNtCseAiZU62iyN8_12clap_builder6derive14FromArgMatches27update_from_arg_matches_muts_0Bc_
FN:1089,_RNvXsJ_NtNtCsh5cigu73tlT_8hayabusa10detections7configsNtB5_12UpdateOptionNtNtCseAiZU62iyN8_12clap_builder6derive14FromArgMatches23update_from_arg_matches
FN:1107,_RNvXsN_NtNtCsh5cigu73tlT_8hayabusa10detections7configsNtB5_17LevelTuningOptionNtNtCseAiZU62iyN8_12clap_builder6derive14FromArgMatches23update_from_arg_matches
FN:1420,_RNCNvXs13_NtNtCsh5cigu73tlT_8hayabusa10detections7configsNtB8_12OutputOptionNtNtCseAiZU62iyN8_12clap_builder6derive14FromArgMatches20from_arg_matches_mutse_0Bc_
FN:1254,_RNvXs10_NtNtCsh5cigu73tlT_8hayabusa10detections7configsNtB6_18LogonSummaryOptionNtNtCseAiZU62iyN8_12clap_builder6derive4Args8group_id
FN:1150,_RNCNvXsR_NtNtCsh5cigu73tlT_8hayabusa10detections7configsNtB7_16EidMetricsOptionNtNtCseAiZU62iyN8_12clap_builder6derive14FromArgMatches27update_from_arg_matches_muts0_0Bb_
FN:1311,_RNvXs13_NtNtCsh5cigu73tlT_8hayabusa10detections7configsNtB6_12OutputOptionNtNtCseAiZU62iyN8_12clap_builder6derive14FromArgMatches16from_arg_matches
FN:1311,_RNvXs16_NtNtCsh5cigu73tlT_8hayabusa10detections7configsNtB6_12OutputOptionNtNtCsjwgglklCTGv_4core3fmt5Debug3fmt
FN:1209,_RNCNvXsV_NtNtCsh5cigu73tlT_8hayabusa10detections7configsNtB7_18PivotKeywordOptionNtNtCseAiZU62iyN8_12clap_builder6derive14FromArgMatches27update_from_arg_matches_muts1_0Bb_
FN:1618,_RNvXs1t_NtNtCsh5cigu73tlT_8hayabusa10detections7configsNtB6_6ConfigNtNtCseAiZU62iyN8_12clap_builder6derive14CommandFactory7command
FN:929,_RNvXsB_NtNtCsh5cigu73tlT_8hayabusa10detections7configsNtB5_20DefaultProfileOptionNtNtCseAiZU62iyN8_12clap_builder6derive14FromArgMatches20from_arg_matches_mut
FN:1066,_RNCNvXsF_NtNtCsh5cigu73tlT_8hayabusa10detections7configsNtB7_12SearchOptionNtNtCseAiZU62iyN8_12clap_builder6derive14FromArgMatches27update_from_arg_matches_mutsb_0Bb_
FN:1521,_RNCNvXs1g_NtNtCsh5cigu73tlT_8hayabusa10detections7configsNtB8_15CsvOutputOptionNtNtCseAiZU62iyN8_12clap_builder6derive14FromArgMatches20from_arg_matches_mut0Bc_
FN:1563,_RNvXs1r_NtNtCsh5cigu73tlT_8hayabusa10detections7configsNtB6_21ComputerMetricsOptionNtNtCsjwgglklCTGv_4core3fmt5Debug3fmt
FN:1162,_RNCNvXsR_NtNtCsh5cigu73tlT_8hayabusa10detections7configsNtB7_16EidMetricsOptionNtNtCseAiZU62iyN8_12clap_builder6derive14FromArgMatches27update_from_arg_matches_muts3_0Bb_
FN:989,_RNCNvXsF_NtNtCsh5cigu73tlT_8hayabusa10detections7configsNtB7_12SearchOptionNtNtCseAiZU62iyN8_12clap_builder6derive14FromArgMatches27update_from_arg_matches_muts0_0Bb_
FN:1521,_RNCNvXs1g_NtNtCsh5cigu73tlT_8hayabusa10detections7configsNtB8_15CsvOutputOptionNtNtCseAiZU62iyN8_12clap_builder6derive14FromArgMatches27update_from_arg_matches_mut0Bc_
FN:1054,_RNCNvXsF_NtNtCsh5cigu73tlT_8hayabusa10detections7configsNtB7_12SearchOptionNtNtCseAiZU62iyN8_12clap_builder6derive14FromArgMatches20from_arg_matches_muts8_0Bb_
FN:1173,_RNvXsW_NtNtCsh5cigu73tlT_8hayabusa10detections7configsNtB5_18PivotKeywordOptionNtNtCseAiZU62iyN8_12clap_builder6derive4Args23augment_args_for_update
FN:1448,_RNCNvXs13_NtNtCsh5cigu73tlT_8hayabusa10detections7configsNtB8_12OutputOptionNtNtCseAiZU62iyN8_12clap_builder6derive14FromArgMatches27update_from_arg_matches_mutsj_0Bc_
FN:1550,_RNCNvXs1k_NtNtCsh5cigu73tlT_8hayabusa10detections7configsNtB8_16JSONOutputOptionNtNtCseAiZU62iyN8_12clap_builder6derive14FromArgMatches20from_arg_matches_mut0Bc_
FN:1066,_RNCNvXsF_NtNtCsh5cigu73tlT_8hayabusa10detections7configsNtB7_12SearchOptionNtNtCseAiZU62iyN8_12clap_builder6derive14FromArgMatches20from_arg_matches_mutsb_0Bb_
FN:1373,_RNCNvXs13_NtNtCsh5cigu73tlT_8hayabusa10detections7configsNtB8_12OutputOptionNtNtCseAiZU62iyN8_12clap_builder6derive14FromArgMatches27update_from_arg_matches_muts5_0Bc_
FN:1311,_RNvXs13_NtNtCsh5cigu73tlT_8hayabusa10detections7configsNtB6_12OutputOptionNtNtCseAiZU62iyN8_12clap_builder6derive14FromArgMatches27update_from_arg_matches_mut
FN:902,_RNCNvXsx_NtNtCsh5cigu73tlT_8hayabusa10detections7configsNtB7_18DetectCommonOptionNtNtCseAiZU62iyN8_12clap_builder6derive14FromArgMatches20from_arg_matches_muts0_0Bb_
FN:1464,_RNCNvXs13_NtNtCsh5cigu73tlT_8hayabusa10detections7configsNtB8_12OutputOptionNtNtCseAiZU62iyN8_12clap_builder6derive14FromArgMatches27update_from_arg_matches_mutsm_0Bc_
FN:1078,_RNCNvXsF_NtNtCsh5cigu73tlT_8hayabusa10detections7configsNtB7_12SearchOptionNtNtCseAiZU62iyN8_12clap_builder6derive14FromArgMatches20from_arg_matches_mutse_0Bb_
FN:1334,_RNCNvXs13_NtNtCsh5cigu73tlT_8hayabusa10detections7configsNtB8_12OutputOptionNtNtCseAiZU62iyN8_12clap_builder6derive14FromArgMatches20from_arg_matches_muts0_0Bc_
FN:1539,_RNvXs1k_NtNtCsh5cigu73tlT_8hayabusa10detections7configsNtB6_16JSONOutputOptionNtNtCseAiZU62iyN8_12clap_builder6derive14FromArgMatches20from_arg_matches_mut
FN:1146,_RNCNvXsR_NtNtCsh5cigu73tlT_8hayabusa10detections7configsNtB7_16EidMetricsOptionNtNtCseAiZU62iyN8_12clap_builder6derive14FromArgMatches27update_from_arg_matches_muts_0Bb_
FN:1412,_RNCNvXs13_NtNtCsh5cigu73tlT_8hayabusa10detections7configsNtB8_12OutputOptionNtNtCseAiZU62iyN8_12clap_builder6derive14FromArgMatches27update_from_arg_matches_mutsc_0Bc_
FN:1038,_RNCNvXsF_NtNtCsh5cigu73tlT_8hayabusa10detections7configsNtB7_12SearchOptionNtNtCseAiZU62iyN8_12clap_builder6derive14FromArgMatches20from_arg_matches_muts4_0Bb_
FN:1326,_RNCNvXs13_NtNtCsh5cigu73tlT_8hayabusa10detections7configsNtB8_12OutputOptionNtNtCseAiZU62iyN8_12clap_builder6derive14FromArgMatches27update_from_arg_matches_mut0Bc_
FN:1480,_RNvXs19_NtNtCsh5cigu73tlT_8hayabusa10detections7configsNtB6_13CommonOptionsNtNtCseAiZU62iyN8_12clap_builder6derive4Args23augment_args_for_update
FN:1491,_RNvXs1d_NtNtCsh5cigu73tlT_8hayabusa10detections7configsNtB6_11InputOptionNtNtCseAiZU62iyN8_12clap_builder6derive4Args8group_id
FN:1539,_RNvXs1k_NtNtCsh5cigu73tlT_8hayabusa10detections7configsNtB6_16JSONOutputOptionNtNtCseAiZU62iyN8_12clap_builder6derive14FromArgMatches16from_arg_matches
FN:1698,_RNvXs1B_NtNtCsh5cigu73tlT_8hayabusa10detections7configsNtB6_15TargetEventTimeNtNtCsjwgglklCTGv_4core5clone5Clone5cloneBa_
FN:1563,_RNvXs1p_NtNtCsh5cigu73tlT_8hayabusa10detections7configsNtB6_21ComputerMetricsOptionNtNtCseAiZU62iyN8_12clap_builder6derive4Args23augment_args_for_update
FN:939,_RNvXsG_NtNtCsh5cigu73tlT_8hayabusa10detections7configsNtB5_12SearchOptionNtNtCseAiZU62iyN8_12clap_builder6derive4Args12augment_args
FN:1062,_RNCNvXsF_NtNtCsh5cigu73tlT_8hayabusa10detections7configsNtB7_12SearchOptionNtNtCseAiZU62iyN8_12clap_builder6derive14FromArgMatches27update_from_arg_matches_mutsa_0Bb_
FN:1338,_RNCNvXs13_NtNtCsh5cigu73tlT_8hayabusa10detections7configsNtB8_12OutputOptionNtNtCseAiZU62iyN8_12clap_builder6derive14FromArgMatches27update_from_arg_matches_muts1_0Bc_
FN:1480,_RNvXs18_NtNtCsh5cigu73tlT_8hayabusa10detections7configsNtB6_13CommonOptionsNtNtCseAiZU62iyN8_12clap_builder6derive14FromArgMatches16from_arg_matches
FN:1432,_RNCNvXs13_NtNtCsh5cigu73tlT_8hayabusa10detections7configsNtB8_12OutputOptionNtNtCseAiZU62iyN8_12clap_builder6derive14FromArgMatches20from_arg_matches_mutsh_0Bc_
FN:1581,_RNCNvXs1o_NtNtCsh5cigu73tlT_8hayabusa10detections7configsNtB8_21ComputerMetricsOptionNtNtCseAiZU62iyN8_12clap_builder6derive14FromArgMatches20from_arg_matches_muts_0Bc_
FN:939,_RNvXsG_NtNtCsh5cigu73tlT_8hayabusa10detections7configsNtB5_12SearchOptionNtNtCseAiZU62iyN8_12clap_builder6derive4Args8group_id
FN:1456,_RNCNvXs13_NtNtCsh5cigu73tlT_8hayabusa10detections7configsNtB8_12OutputOptionNtNtCseAiZU62iyN8_12clap_builder6derive14FromArgMatches20from_arg_matches_mutsk_0Bc_
FN:1611,_RNCNvXs1o_NtNtCsh5cigu73tlT_8hayabusa10detections7configsNtB8_21ComputerMetricsOptionNtNtCseAiZU62iyN8_12clap_builder6derive14FromArgMatches20from_arg_matches_muts2_0Bc_
FN:1385,_RNCNvXs13_NtNtCsh5cigu73tlT_8hayabusa10detections7configsNtB8_12OutputOptionNtNtCseAiZU62iyN8_12clap_builder6derive14FromArgMatches20from_arg_matches_muts6_0Bc_
FN:1125,_RNvXsS_NtNtCsh5cigu73tlT_8hayabusa10detections7configsNtB5_16EidMetricsOptionNtNtCseAiZU62iyN8_12clap_builder6derive4Args12augment_args
FN:914,_RNCNvXsx_NtNtCsh5cigu73tlT_8hayabusa10detections7configsNtB7_18DetectCommonOptionNtNtCseAiZU62iyN8_12clap_builder6derive14FromArgMatches27update_from_arg_matches_muts1_0Bb_
FN:1279,_RNCNvXsZ_NtNtCsh5cigu73tlT_8hayabusa10detections7configsNtB7_18LogonSummaryOptionNtNtCseAiZU62iyN8_12clap_builder6derive14FromArgMatches20from_arg_matches_muts0_0Bb_
FN:1927,_RNvMs4_NtNtCsh5cigu73tlT_8hayabusa10detections7configsNtB5_15TargetEventTime16is_parse_success
FN:1436,_RNCNvXs13_NtNtCsh5cigu73tlT_8hayabusa10detections7configsNtB8_12OutputOptionNtNtCseAiZU62iyN8_12clap_builder6derive14FromArgMatches27update_from_arg_matches_mutsi_0Bc_
FN:1291,_RNCNvXsZ_NtNtCsh5cigu73tlT_8hayabusa10detections7configsNtB7_18LogonSummaryOptionNtNtCseAiZU62iyN8_12clap_builder6derive14FromArgMatches20from_arg_matches_muts3_0Bb_
FN:926,_RNCNvXsx_NtNtCsh5cigu73tlT_8hayabusa10detections7configsNtB7_18DetectCommonOptionNtNtCseAiZU62iyN8_12clap_builder6derive14FromArgMatches27update_from_arg_matches_muts4_0Bb_
FN:726,_RNvXst_NtNtCsh5cigu73tlT_8hayabusa10detections7configsNtB5_6ActionNtNtCseAiZU62iyN8_12clap_builder6derive14FromArgMatches27update_from_arg_matches_mut
FN:1311,_RNvXs13_NtNtCsh5cigu73tlT_8hayabusa10detections7configsNtB6_12OutputOptionNtNtCseAiZU62iyN8_12clap_builder6derive14FromArgMatches20from_arg_matches_mut
FN:888,_RNCNvXsx_NtNtCsh5cigu73tlT_8hayabusa10detections7configsNtB7_18DetectCommonOptionNtNtCseAiZU62iyN8_12clap_builder6derive14FromArgMatches20from_arg_matches_muts_0Bb_
FN:1416,_RNCNvXs13_NtNtCsh5cigu73tlT_8hayabusa10detections7configsNtB8_12OutputOptionNtNtCseAiZU62iyN8_12clap_builder6derive14FromArgMatches20from_arg_matches_mutsd_0Bc_
FN:880,_RNvXsx_NtNtCsh5cigu73tlT_8hayabusa10detections7configsNtB5_18DetectCommonOptionNtNtCseAiZU62iyN8_12clap_builder6derive14FromArgMatches20from_arg_matches_mut
FN:880,_RNvXsy_NtNtCsh5cigu73tlT_8hayabusa10detections7configsNtB5_18DetectCommonOptionNtNtCseAiZU62iyN8_12clap_builder6derive4Args8group_id
FN:1330,_RNCNvXs13_NtNtCsh5cigu73tlT_8hayabusa10detections7configsNtB8_12OutputOptionNtNtCseAiZU62iyN8_12clap_builder6derive14FromArgMatches20from_arg_matches_muts_0Bc_
FN:1074,_RNCNvXsF_NtNtCsh5cigu73tlT_8hayabusa10detections7configsNtB7_12SearchOptionNtNtCseAiZU62iyN8_12clap_builder6derive14FromArgMatches20from_arg_matches_mutsd_0Bb_
FN:1107,_RNvXsO_NtNtCsh5cigu73tlT_8hayabusa10detections7configsNtB5_17LevelTuningOptionNtNtCseAiZU62iyN8_12clap_builder6derive4Args12augment_args
FN:939,_RNvXsF_NtNtCsh5cigu73tlT_8hayabusa10detections7configsNtB5_12SearchOptionNtNtCseAiZU62iyN8_12clap_builder6derive14FromArgMatches27update_from_arg_matches_mut
FN:1342,_RNCNvXs13_NtNtCsh5cigu73tlT_8hayabusa10detections7configsNtB8_12OutputOptionNtNtCseAiZU62iyN8_12clap_builder6derive14FromArgMatches20from_arg_matches_muts2_0Bc_
FN:1107,_RNvXsN_NtNtCsh5cigu73tlT_8hayabusa10detections7configsNtB5_17LevelTuningOptionNtNtCseAiZU62iyN8_12clap_builder6derive14FromArgMatches20from_arg_matches_mut
FN:1107,_RNvXsO_NtNtCsh5cigu73tlT_8hayabusa10detections7configsNtB5_17LevelTuningOptionNtNtCseAiZU62iyN8_12clap_builder6derive4Args8group_id
FN:1125,_RNvXsR_NtNtCsh5cigu73tlT_8hayabusa10detections7configsNtB5_16EidMetricsOptionNtNtCseAiZU62iyN8_12clap_builder6derive14FromArgMatches20from_arg_matches_mut
FN:1550,_RNCNvXs1k_NtNtCsh5cigu73tlT_8hayabusa10detections7configsNtB8_16JSONOutputOptionNtNtCseAiZU62iyN8_12clap_builder6derive14FromArgMatches27update_from_arg_matches_mut0Bc_
FN:939,_RNvXsI_NtNtCsh5cigu73tlT_8hayabusa10detections7configsNtB5_12SearchOptionNtNtCsjwgglklCTGv_4core3fmt5Debug3fmt
FN:859,_RNvMs0_NtNtCsh5cigu73tlT_8hayabusa10detections7configsNtB5_6Action15get_action_name
FN:1196,_RNCNvXsV_NtNtCsh5cigu73tlT_8hayabusa10detections7configsNtB7_18PivotKeywordOptionNtNtCseAiZU62iyN8_12clap_builder6derive14FromArgMatches20from_arg_matches_muts0_0Bb_
FN:1279,_RNCNvXsZ_NtNtCsh5cigu73tlT_8hayabusa10detections7configsNtB7_18LogonSummaryOptionNtNtCseAiZU62iyN8_12clap_builder6derive14FromArgMatches27update_from_arg_matches_muts0_0Bb_
FN:1158,_RNCNvXsR_NtNtCsh5cigu73tlT_8hayabusa10detections7configsNtB7_16EidMetricsOptionNtNtCseAiZU62iyN8_12clap_builder6derive14FromArgMatches27update_from_arg_matches_muts2_0Bb_
FN:1122,_RNCNvXsN_NtNtCsh5cigu73tlT_8hayabusa10detections7configsNtB7_17LevelTuningOptionNtNtCseAiZU62iyN8_12clap_builder6derive14FromArgMatches20from_arg_matches_mut0Bb_
FN:1291,_RNCNvXsZ_NtNtCsh5cigu73tlT_8hayabusa10detections7configsNtB7_18LogonSummaryOptionNtNtCseAiZU62iyN8_12clap_builder6derive14FromArgMatches27update_from_arg_matches_muts3_0Bb_
FN:1275,_RNCNvXsZ_NtNtCsh5cigu73tlT_8hayabusa10detections7configsNtB7_18LogonSummaryOptionNtNtCseAiZU62iyN8_12clap_builder6derive14FromArgMatches20from_arg_matches_muts_0Bb_
FN:1170,_RNCNvXsR_NtNtCsh5cigu73tlT_8hayabusa10detections7configsNtB7_16EidMetricsOptionNtNtCseAiZU62iyN8_12clap_builder6derive14FromArgMatches27update_from_arg_matches_muts5_0Bb_
FN:1122,_RNCNvXsN_NtNtCsh5cigu73tlT_8hayabusa10detections7configsNtB7_17LevelTuningOptionNtNtCseAiZU62iyN8_12clap_builder6derive14FromArgMatches27update_from_arg_matches_mut0Bb_
FN:939,_RNvXsF_NtNtCsh5cigu73tlT_8hayabusa10detections7configsNtB5_12SearchOptionNtNtCseAiZU62iyN8_12clap_builder6derive14FromArgMatches20from_arg_matches_mut
FN:1491,_RNvXs1c_NtNtCsh5cigu73tlT_8hayabusa10detections7configsNtB6_11InputOptionNtNtCseAiZU62iyN8_12clap_builder6derive14FromArgMatches27update_from_arg_matches_mut
FN:1358,_RNCNvXs13_NtNtCsh5cigu73tlT_8hayabusa10detections7configsNtB8_12OutputOptionNtNtCseAiZU62iyN8_12clap_builder6derive14FromArgMatches27update_from_arg_matches_muts4_0Bc_
FN:1491,_RNvXs1f_NtNtCsh5cigu73tlT_8hayabusa10detections7configsNtB6_11InputOptionNtNtCsjwgglklCTGv_4core3fmt5Debug3fmt
FN:1488,_RNCNvXs18_NtNtCsh5cigu73tlT_8hayabusa10detections7configsNtB8_13CommonOptionsNtNtCseAiZU62iyN8_12clap_builder6derive14FromArgMatches27update_from_arg_matches_muts_0Bc_
FN:1618,_RNvXs1u_NtNtCsh5cigu73tlT_8hayabusa10detections7configsNtB6_6ConfigNtNtCseAiZU62iyN8_12clap_builder6derive14FromArgMatches27update_from_arg_matches_mut
FN:1507,_RNCNvXs1c_NtNtCsh5cigu73tlT_8hayabusa10detections7configsNtB8_11InputOptionNtNtCseAiZU62iyN8_12clap_builder6derive14FromArgMatches20from_arg_matches_muts_0Bc_
FN:1698,_RNvXs1A_NtNtCsh5cigu73tlT_8hayabusa10detections7configsNtB6_15TargetEventTimeNtNtCsjwgglklCTGv_4core3fmt5Debug3fmt
FN:1104,_RNCNvXsJ_NtNtCsh5cigu73tlT_8hayabusa10detections7configsNtB7_12UpdateOptionNtNtCseAiZU62iyN8_12clap_builder6derive14FromArgMatches27update_from_arg_matches_mut0Bb_
FN:977,_RNCNvXsF_NtNtCsh5cigu73tlT_8hayabusa10detections7configsNtB7_12SearchOptionNtNtCseAiZU62iyN8_12clap_builder6derive14FromArgMatches20from_arg_matches_muts_0Bb_
FN:1618,_RNvXs1u_NtNtCsh5cigu73tlT_8hayabusa10detections7configsNtB6_6ConfigNtNtCseAiZU62iyN8_12clap_builder6derive14FromArgMatches23update_from_arg_matches
FN:1503,_RNCNvXs1c_NtNtCsh5cigu73tlT_8hayabusa10detections7configsNtB8_11InputOptionNtNtCseAiZU62iyN8_12clap_builder6derive14FromArgMatches27update_from_arg_matches_mut0Bc_
FN:929,_RNvXsB_NtNtCsh5cigu73tlT_8hayabusa10detections7configsNtB5_20DefaultProfileOptionNtNtCseAiZU62iyN8_12clap_builder6derive14FromArgMatches27update_from_arg_matches_mut
FN:929,_RNvXsC_NtNtCsh5cigu73tlT_8hayabusa10detections7configsNtB5_20DefaultProfileOptionNtNtCseAiZU62iyN8_12clap_builder6derive4Args23augment_args_for_update
FN:1412,_RNCNvXs13_NtNtCsh5cigu73tlT_8hayabusa10detections7configsNtB8_12OutputOptionNtNtCseAiZU62iyN8_12clap_builder6derive14FromArgMatches20from_arg_matches_mutsc_0Bc_
FN:1334,_RNCNvXs13_NtNtCsh5cigu73tlT_8hayabusa10detections7configsNtB8_12OutputOptionNtNtCseAiZU62iyN8_12clap_builder6derive14FromArgMatches27update_from_arg_matches_muts0_0Bc_
FN:1477,_RNCNvXs13_NtNtCsh5cigu73tlT_8hayabusa10detections7configsNtB8_12OutputOptionNtNtCseAiZU62iyN8_12clap_builder6derive14FromArgMatches27update_from_arg_matches_mutso_0Bc_
FN:1424,_RNCNvXs13_NtNtCsh5cigu73tlT_8hayabusa10detections7configsNtB8_12OutputOptionNtNtCseAiZU62iyN8_12clap_builder6derive14FromArgMatches20from_arg_matches_mutsf_0Bc_
FN:1054,_RNCNvXsF_NtNtCsh5cigu73tlT_8hayabusa10detections7configsNtB7_12SearchOptionNtNtCseAiZU62iyN8_12clap_builder6derive14FromArgMatches27update_from_arg_matches_muts8_0Bb_
FN:1436,_RNCNvXs13_NtNtCsh5cigu73tlT_8hayabusa10detections7configsNtB8_12OutputOptionNtNtCseAiZU62iyN8_12clap_builder6derive14FromArgMatches20from_arg_matches_mutsi_0Bc_
FN:880,_RNvXsA_NtNtCsh5cigu73tlT_8hayabusa10detections7configsNtB5_18DetectCommonOptionNtNtCsjwgglklCTGv_4core3fmt5Debug3fmt
FN:1618,_RNvXs1v_NtNtCsh5cigu73tlT_8hayabusa10detections7configsNtB6_6ConfigNtNtCseAiZU62iyN8_12clap_builder6derive4Args8group_id
FN:1373,_RNCNvXs13_NtNtCsh5cigu73tlT_8hayabusa10detections7configsNtB8_12OutputOptionNtNtCseAiZU62iyN8_12clap_builder6derive14FromArgMatches20from_arg_matches_muts5_0Bc_
FN:888,_RNCNvXsx_NtNtCsh5cigu73tlT_8hayabusa10detections7configsNtB7_18DetectCommonOptionNtNtCseAiZU62iyN8_12clap_builder6derive14FromArgMatches27update_from_arg_matches_muts_0Bb_
FN:2419,_RNvXs7_NtNtCsh5cigu73tlT_8hayabusa10detections7configsNtB5_9EventInfoNtNtCsjwgglklCTGv_4core7default7Default7default
FN:1089,_RNvXsJ_NtNtCsh5cigu73tlT_8hayabusa10detections7configsNtB5_12UpdateOptionNtNtCseAiZU62iyN8_12clap_builder6derive14FromArgMatches16from_arg_matches
FN:1393,_RNCNvXs13_NtNtCsh5cigu73tlT_8hayabusa10detections7configsNtB8_12OutputOptionNtNtCseAiZU62iyN8_12clap_builder6derive14FromArgMatches20from_arg_matches_muts8_0Bc_
FN:1491,_RNvXs1c_NtNtCsh5cigu73tlT_8hayabusa10detections7configsNtB6_11InputOptionNtNtCseAiZU62iyN8_12clap_builder6derive14FromArgMatches16from_arg_matches
FN:918,_RNCNvXsx_NtNtCsh5cigu73tlT_8hayabusa10detections7configsNtB7_18DetectCommonOptionNtNtCseAiZU62iyN8_12clap_builder6derive14FromArgMatches27update_from_arg_matches_muts2_0Bb_
FN:999,_RNCNvXsF_NtNtCsh5cigu73tlT_8hayabusa10detections7configsNtB7_12SearchOptionNtNtCseAiZU62iyN8_12clap_builder6derive14FromArgMatches27update_from_arg_matches_muts1_0Bb_
FN:1484,_RNCNvXs18_NtNtCsh5cigu73tlT_8hayabusa10detections7configsNtB8_13CommonOptionsNtNtCseAiZU62iyN8_12clap_builder6derive14FromArgMatches27update_from_arg_matches_mut0Bc_
FN:884,_RNCNvXsx_NtNtCsh5cigu73tlT_8hayabusa10detections7configsNtB7_18DetectCommonOptionNtNtCseAiZU62iyN8_12clap_builder6derive14FromArgMatches20from_arg_matches_mut0Bb_
FN:1539,_RNvXs1l_NtNtCsh5cigu73tlT_8hayabusa10detections7configsNtB6_16JSONOutputOptionNtNtCseAiZU62iyN8_12clap_builder6derive4Args12augment_args
FN:1038,_RNCNvXsF_NtNtCsh5cigu73tlT_8hayabusa10detections7configsNtB7_12SearchOptionNtNtCseAiZU62iyN8_12clap_builder6derive14FromArgMatches27update_from_arg_matches_muts4_0Bb_
FN:914,_RNCNvXsx_NtNtCsh5cigu73tlT_8hayabusa10detections7configsNtB7_18DetectCommonOptionNtNtCseAiZU62iyN8_12clap_builder6derive14FromArgMatches20from_arg_matches_muts1_0Bb_
FN:2436,_RNvXs9_NtNtCsh5cigu73tlT_8hayabusa10detections7configsNtB5_15EventInfoConfigNtNtCsjwgglklCTGv_4core7default7Default7default
FN:1299,_RNCNvXsZ_NtNtCsh5cigu73tlT_8hayabusa10detections7configsNtB7_18LogonSummaryOptionNtNtCseAiZU62iyN8_12clap_builder6derive14FromArgMatches27update_from_arg_matches_muts5_0Bb_
FN:1254,_RNvXsZ_NtNtCsh5cigu73tlT_8hayabusa10detections7configsNtB5_18LogonSummaryOptionNtNtCseAiZU62iyN8_12clap_builder6derive14FromArgMatches27update_from_arg_matches_mut
FN:726,_RNvXst_NtNtCsh5cigu73tlT_8hayabusa10detections7configsNtB5_6ActionNtNtCseAiZU62iyN8_12clap_builder6derive14FromArgMatches20from_arg_matches_mut
FN:1397,_RNCNvXs13_NtNtCsh5cigu73tlT_8hayabusa10detections7configsNtB8_12OutputOptionNtNtCseAiZU62iyN8_12clap_builder6derive14FromArgMatches27update_from_arg_matches_muts9_0Bc_
FN:999,_RNCNvXsF_NtNtCsh5cigu73tlT_8hayabusa10detections7configsNtB7_12SearchOptionNtNtCseAiZU62iyN8_12clap_builder6derive14FromArgMatches20from_arg_matches_muts1_0Bb_
FN:1299,_RNCNvXsZ_NtNtCsh5cigu73tlT_8hayabusa10detections7configsNtB7_18LogonSummaryOptionNtNtCseAiZU62iyN8_12clap_builder6derive14FromArgMatches20from_arg_matches_muts5_0Bb_
FN:880,_RNvXsy_NtNtCsh5cigu73tlT_8hayabusa10detections7configsNtB5_18DetectCommonOptionNtNtCseAiZU62iyN8_12clap_builder6derive4Args23augment_args_for_update
FN:1480,_RNvXs18_NtNtCsh5cigu73tlT_8hayabusa10detections7configsNtB6_13CommonOptionsNtNtCseAiZU62iyN8_12clap_builder6derive14FromArgMatches20from_arg_matches_mut
FN:1271,_RNCNvXsZ_NtNtCsh5cigu73tlT_8hayabusa10detections7configsNtB7_18LogonSummaryOptionNtNtCseAiZU62iyN8_12clap_builder6derive14FromArgMatches27update_from_arg_matches_mut0Bb_
FN:1563,_RNvXs1o_NtNtCsh5cigu73tlT_8hayabusa10detections7configsNtB6_21ComputerMetricsOptionNtNtCseAiZU62iyN8_12clap_builder6derive14FromArgMatches27update_from_arg_matches_mut
FN:1611,_RNCNvXs1o_NtNtCsh5cigu73tlT_8hayabusa10detections7configsNtB8_21ComputerMetricsOptionNtNtCseAiZU62iyN8_12clap_builder6derive14FromArgMatches27update_from_arg_matches_muts2_0Bc_
FN:880,_RNvXsx_NtNtCsh5cigu73tlT_8hayabusa10detections7configsNtB5_18DetectCommonOptionNtNtCseAiZU62iyN8_12clap_builder6derive14FromArgMatches27update_from_arg_matches_mut
FN:1188,_RNCNvXsV_NtNtCsh5cigu73tlT_8hayabusa10detections7configsNtB7_18PivotKeywordOptionNtNtCseAiZU62iyN8_12clap_builder6derive14FromArgMatches20from_arg_matches_mut0Bb_
FN:1539,_RNvXs1l_NtNtCsh5cigu73tlT_8hayabusa10detections7configsNtB6_16JSONOutputOptionNtNtCseAiZU62iyN8_12clap_builder6derive4Args23augment_args_for_update
FN:1173,_RNvXsW_NtNtCsh5cigu73tlT_8hayabusa10detections7configsNtB5_18PivotKeywordOptionNtNtCseAiZU62iyN8_12clap_builder6derive4Args12augment_args
FN:1271,_RNCNvXsZ_NtNtCsh5cigu73tlT_8hayabusa10detections7configsNtB7_18LogonSummaryOptionNtNtCseAiZU62iyN8_12clap_builder6derive14FromArgMatches20from_arg_matches_mut0Bb_
FN:2413,_RNvXs1E_NtNtCsh5cigu73tlT_8hayabusa10detections7configsNtB6_9EventInfoNtNtCsjwgglklCTGv_4core3fmt5Debug3fmt
FN:1973,_RNvXs6_NtNtCsh5cigu73tlT_8hayabusa10detections7configsNtB5_19EventKeyAliasConfigNtNtCsjwgglklCTGv_4core7default7Default7default
FN:2430,_RNvXs1G_NtNtCsh5cigu73tlT_8hayabusa10detections7configsNtB6_15EventInfoConfigNtNtCsjwgglklCTGv_4core3fmt5Debug3fmt
FN:1150,_RNCNvXsR_NtNtCsh5cigu73tlT_8hayabusa10detections7configsNtB7_16EidMetricsOptionNtNtCseAiZU62iyN8_12clap_builder6derive14FromArgMatches20from_arg_matches_muts0_0Bb_
FN:1283,_RNCNvXsZ_NtNtCsh5cigu73tlT_8hayabusa10detections7configsNtB7_18LogonSummaryOptionNtNtCseAiZU62iyN8_12clap_builder6derive14FromArgMatches20from_arg_matches_muts1_0Bb_
FN:1162,_RNCNvXsR_NtNtCsh5cigu73tlT_8hayabusa10detections7configsNtB7_16EidMetricsOptionNtNtCseAiZU62iyN8_12clap_builder6derive14FromArgMatches20from_arg_matches_muts3_0Bb_
FN:1389,_RNCNvXs13_NtNtCsh5cigu73tlT_8hayabusa10detections7configsNtB8_12OutputOptionNtNtCseAiZU62iyN8_12clap_builder6derive14FromArgMatches20from_arg_matches_muts7_0Bc_
FN:1240,_RNCNvXsV_NtNtCsh5cigu73tlT_8hayabusa10detections7configsNtB7_18PivotKeywordOptionNtNtCseAiZU62iyN8_12clap_builder6derive14FromArgMatches27update_from_arg_matches_muts4_0Bb_
FN:1401,_RNCNvXs13_NtNtCsh5cigu73tlT_8hayabusa10detections7configsNtB8_12OutputOptionNtNtCseAiZU62iyN8_12clap_builder6derive14FromArgMatches20from_arg_matches_mutsa_0Bc_
FN:1514,_RNvXs1g_NtNtCsh5cigu73tlT_8hayabusa10detections7configsNtB6_15CsvOutputOptionNtNtCseAiZU62iyN8_12clap_builder6derive14FromArgMatches23update_from_arg_matches
FN:1480,_RNvXs19_NtNtCsh5cigu73tlT_8hayabusa10detections7configsNtB6_13CommonOptionsNtNtCseAiZU62iyN8_12clap_builder6derive4Args12augment_args
FN:1254,_RNvXsZ_NtNtCsh5cigu73tlT_8hayabusa10detections7configsNtB5_18LogonSummaryOptionNtNtCseAiZU62iyN8_12clap_builder6derive14FromArgMatches16from_arg_matches
FN:1563,_RNvXs1p_NtNtCsh5cigu73tlT_8hayabusa10detections7configsNtB6_21ComputerMetricsOptionNtNtCseAiZU62iyN8_12clap_builder6derive4Args12augment_args
FN:726,_RNvXsu_NtNtCsh5cigu73tlT_8hayabusa10detections7configsNtB5_6ActionNtNtCseAiZU62iyN8_12clap_builder6derive10Subcommand30augment_subcommands_for_update
FN:726,_RNvXsw_NtNtCsh5cigu73tlT_8hayabusa10detections7configsNtB5_6ActionNtNtCsjwgglklCTGv_4core3fmt5Debug3fmt
FN:922,_RNCNvXsx_NtNtCsh5cigu73tlT_8hayabusa10detections7configsNtB7_18DetectCommonOptionNtNtCseAiZU62iyN8_12clap_builder6derive14FromArgMatches20from_arg_matches_muts3_0Bb_
FN:1514,_RNvXs1h_NtNtCsh5cigu73tlT_8hayabusa10detections7configsNtB6_15CsvOutputOptionNtNtCseAiZU62iyN8_12clap_builder6derive4Args8group_id
FN:1089,_RNvXsM_NtNtCsh5cigu73tlT_8hayabusa10detections7configsNtB5_12UpdateOptionNtNtCsjwgglklCTGv_4core3fmt5Debug3fmt
FN:1050,_RNCNvXsF_NtNtCsh5cigu73tlT_8hayabusa10detections7configsNtB7_12SearchOptionNtNtCseAiZU62iyN8_12clap_builder6derive14FromArgMatches27update_from_arg_matches_muts7_0Bb_
FN:1196,_RNCNvXsV_NtNtCsh5cigu73tlT_8hayabusa10detections7configsNtB7_18PivotKeywordOptionNtNtCseAiZU62iyN8_12clap_builder6derive14FromArgMatches27update_from_arg_matches_muts0_0Bb_
FN:1107,_RNvXsQ_NtNtCsh5cigu73tlT_8hayabusa10detections7configsNtB5_17LevelTuningOptionNtNtCsjwgglklCTGv_4core3fmt5Debug3fmt
FN:1607,_RNCNvXs1o_NtNtCsh5cigu73tlT_8hayabusa10detections7configsNtB8_21ComputerMetricsOptionNtNtCseAiZU62iyN8_12clap_builder6derive14FromArgMatches27update_from_arg_matches_muts1_0Bc_
FN:1514,_RNvXs1g_NtNtCsh5cigu73tlT_8hayabusa10detections7configsNtB6_15CsvOutputOptionNtNtCseAiZU62iyN8_12clap_builder6derive14FromArgMatches16from_arg_matches
FN:1254,_RNvXsZ_NtNtCsh5cigu73tlT_8hayabusa10detections7configsNtB5_18LogonSummaryOptionNtNtCseAiZU62iyN8_12clap_builder6derive14FromArgMatches23update_from_arg_matches
FN:1209,_RNCNvXsV_NtNtCsh5cigu73tlT_8hayabusa10detections7configsNtB7_18PivotKeywordOptionNtNtCseAiZU62iyN8_12clap_builder6derive14FromArgMatches20from_arg_matches_muts1_0Bb_
FN:1424,_RNCNvXs13_NtNtCsh5cigu73tlT_8hayabusa10detections7configsNtB8_12OutputOptionNtNtCseAiZU62iyN8_12clap_builder6derive14FromArgMatches27update_from_arg_matches_mutsf_0Bc_
FN:1050,_RNCNvXsF_NtNtCsh5cigu73tlT_8hayabusa10detections7configsNtB7_12SearchOptionNtNtCseAiZU62iyN8_12clap_builder6derive14FromArgMatches20from_arg_matches_muts7_0Bb_
FN:929,_RNvXsE_NtNtCsh5cigu73tlT_8hayabusa10detections7configsNtB5_20DefaultProfileOptionNtNtCsjwgglklCTGv_4core3fmt5Debug3fmt
FN:1062,_RNCNvXsF_NtNtCsh5cigu73tlT_8hayabusa10detections7configsNtB7_12SearchOptionNtNtCseAiZU62iyN8_12clap_builder6derive14FromArgMatches20from_arg_matches_mutsa_0Bb_
FN:1158,_RNCNvXsR_NtNtCsh5cigu73tlT_8hayabusa10detections7configsNtB7_16EidMetricsOptionNtNtCseAiZU62iyN8_12clap_builder6derive14FromArgMatches20from_arg_matches_muts2_0Bb_
FN:1295,_RNCNvXsZ_NtNtCsh5cigu73tlT_8hayabusa10detections7configsNtB7_18LogonSummaryOptionNtNtCseAiZU62iyN8_12clap_builder6derive14FromArgMatches27update_from_arg_matches_muts4_0Bb_
FN:1074,_RNCNvXsF_NtNtCsh5cigu73tlT_8hayabusa10detections7configsNtB7_12SearchOptionNtNtCseAiZU62iyN8_12clap_builder6derive14FromArgMatches27update_from_arg_matches_mutsd_0Bb_
FN:47,_RNvXNtNtCsh5cigu73tlT_8hayabusa10detections7configsNtB2_12ConfigReaderNtNtCsjwgglklCTGv_4core7default7Default7default
FN:1539,_RNvXs1l_NtNtCsh5cigu73tlT_8hayabusa10detections7configsNtB6_16JSONOutputOptionNtNtCseAiZU62iyN8_12clap_builder6derive4Args8group_id
FN:1107,_RNvXsN_NtNtCsh5cigu73tlT_8hayabusa10detections7configsNtB5_17LevelTuningOptionNtNtCseAiZU62iyN8_12clap_builder6derive14FromArgMatches27update_from_arg_matches_mut
FN:1170,_RNCNvXsR_NtNtCsh5cigu73tlT_8hayabusa10detections7configsNtB7_16EidMetricsOptionNtNtCseAiZU62iyN8_12clap_builder6derive14FromArgMatches20from_arg_matches_muts5_0Bb_
FN:1563,_RNvXs1o_NtNtCsh5cigu73tlT_8hayabusa10detections7configsNtB6_21ComputerMetricsOptionNtNtCseAiZU62iyN8_12clap_builder6derive14FromArgMatches20from_arg_matches_mut
FN:1086,_RNCNvXsF_NtNtCsh5cigu73tlT_8hayabusa10detections7configsNtB7_12SearchOptionNtNtCseAiZU62iyN8_12clap_builder6derive14FromArgMatches27update_from_arg_matches_mutsg_0Bb_
FN:989,_RNCNvXsF_NtNtCsh5cigu73tlT_8hayabusa10detections7configsNtB7_12SearchOptionNtNtCseAiZU62iyN8_12clap_builder6derive14FromArgMatches20from_arg_matches_muts0_0Bb_
FN:1026,_RNCNvXsF_NtNtCsh5cigu73tlT_8hayabusa10detections7configsNtB7_12SearchOptionNtNtCseAiZU62iyN8_12clap_builder6derive14FromArgMatches27update_from_arg_matches_muts3_0Bb_
FN:1125,_RNvXsU_NtNtCsh5cigu73tlT_8hayabusa10detections7configsNtB5_16EidMetricsOptionNtNtCsjwgglklCTGv_4core3fmt5Debug3fmt
FN:1473,_RNCNvXs13_NtNtCsh5cigu73tlT_8hayabusa10detections7configsNtB8_12OutputOptionNtNtCseAiZU62iyN8_12clap_builder6derive14FromArgMatches20from_arg_matches_mutsn_0Bc_
FN:1563,_RNvXs1o_NtNtCsh5cigu73tlT_8hayabusa10detections7configsNtB6_21ComputerMetricsOptionNtNtCseAiZU62iyN8_12clap_builder6derive14FromArgMatches16from_arg_matches
FN:1618,_RNvXs1t_NtNtCsh5cigu73tlT_8hayabusa10detections7configsNtB6_6ConfigNtNtCseAiZU62iyN8_12clap_builder6derive14CommandFactory18command_for_update
FN:1026,_RNCNvXsF_NtNtCsh5cigu73tlT_8hayabusa10detections7configsNtB7_12SearchOptionNtNtCseAiZU62iyN8_12clap_builder6derive14FromArgMatches20from_arg_matches_muts3_0Bb_
FN:1046,_RNCNvXsF_NtNtCsh5cigu73tlT_8hayabusa10detections7configsNtB7_12SearchOptionNtNtCseAiZU62iyN8_12clap_builder6derive14FromArgMatches27update_from_arg_matches_muts6_0Bb_
FN:1089,_RNvXsK_NtNtCsh5cigu73tlT_8hayabusa10detections7configsNtB5_12UpdateOptionNtNtCseAiZU62iyN8_12clap_builder6derive4Args12augment_args
FN:1460,_RNCNvXs13_NtNtCsh5cigu73tlT_8hayabusa10detections7configsNtB8_12OutputOptionNtNtCseAiZU62iyN8_12clap_builder6derive14FromArgMatches27update_from_arg_matches_mutsl_0Bc_
FN:1142,_RNCNvXsR_NtNtCsh5cigu73tlT_8hayabusa10detections7configsNtB7_16EidMetricsOptionNtNtCseAiZU62iyN8_12clap_builder6derive14FromArgMatches20from_arg_matches_mut0Bb_
FN:1058,_RNCNvXsF_NtNtCsh5cigu73tlT_8hayabusa10detections7configsNtB7_12SearchOptionNtNtCseAiZU62iyN8_12clap_builder6derive14FromArgMatches27update_from_arg_matches_muts9_0Bb_
FN:1089,_RNvXsK_NtNtCsh5cigu73tlT_8hayabusa10detections7configsNtB5_12UpdateOptionNtNtCseAiZU62iyN8_12clap_builder6derive4Args8group_id
FN:1428,_RNCNvXs13_NtNtCsh5cigu73tlT_8hayabusa10detections7configsNtB8_12OutputOptionNtNtCseAiZU62iyN8_12clap_builder6derive14FromArgMatches20from_arg_matches_mutsg_0Bc_
FN:1480,_RNvXs18_NtNtCsh5cigu73tlT_8hayabusa10detections7configsNtB6_13CommonOptionsNtNtCseAiZU62iyN8_12clap_builder6derive14FromArgMatches27update_from_arg_matches_mut
FN:726,_RNvXsu_NtNtCsh5cigu73tlT_8hayabusa10detections7configsNtB5_6ActionNtNtCseAiZU62iyN8_12clap_builder6derive10Subcommand14has_subcommand
FN:977,_RNCNvXsF_NtNtCsh5cigu73tlT_8hayabusa10detections7configsNtB7_12SearchOptionNtNtCseAiZU62iyN8_12clap_builder6derive14FromArgMatches27update_from_arg_matches_muts_0Bb_
FN:1448,_RNCNvXs13_NtNtCsh5cigu73tlT_8hayabusa10detections7configsNtB8_12OutputOptionNtNtCseAiZU62iyN8_12clap_builder6derive14FromArgMatches20from_arg_matches_mutsj_0Bc_
FN:1420,_RNCNvXs13_NtNtCsh5cigu73tlT_8hayabusa10detections7configsNtB8_12OutputOptionNtNtCseAiZU62iyN8_12clap_builder6derive14FromArgMatches27update_from_arg_matches_mutse_0Bc_
FN:1491,_RNvXs1c_NtNtCsh5cigu73tlT_8hayabusa10detections7configsNtB6_11InputOptionNtNtCseAiZU62iyN8_12clap_builder6derive14FromArgMatches20from_arg_matches_mut
FN:1618,_RNvXs1u_NtNtCsh5cigu73tlT_8hayabusa10detections7configsNtB6_6ConfigNtNtCseAiZU62iyN8_12clap_builder6derive14FromArgMatches20from_arg_matches_mut
FN:902,_RNCNvXsx_NtNtCsh5cigu73tlT_8hayabusa10detections7configsNtB7_18DetectCommonOptionNtNtCseAiZU62iyN8_12clap_builder6derive14FromArgMatches27update_from_arg_matches_muts0_0Bb_
FN:1432,_RNCNvXs13_NtNtCsh5cigu73tlT_8hayabusa10detections7configsNtB8_12OutputOptionNtNtCseAiZU62iyN8_12clap_builder6derive14FromArgMatches27update_from_arg_matches_mutsh_0Bc_
FN:929,_RNvXsB_NtNtCsh5cigu73tlT_8hayabusa10detections7configsNtB5_20DefaultProfileOptionNtNtCseAiZU62iyN8_12clap_builder6derive14FromArgMatches16from_arg_matches
FN:929,_RNvXsC_NtNtCsh5cigu73tlT_8hayabusa10detections7configsNtB5_20DefaultProfileOptionNtNtCseAiZU62iyN8_12clap_builder6derive4Args12augment_args
FN:1058,_RNCNvXsF_NtNtCsh5cigu73tlT_8hayabusa10detections7configsNtB7_12SearchOptionNtNtCseAiZU62iyN8_12clap_builder6derive14FromArgMatches20from_arg_matches_muts9_0Bb_
FN:1618,_RNvXs1u_NtNtCsh5cigu73tlT_8hayabusa10detections7configsNtB6_6ConfigNtNtCseAiZU62iyN8_12clap_builder6derive14FromArgMatches16from_arg_matches
FN:922,_RNCNvXsx_NtNtCsh5cigu73tlT_8hayabusa10detections7configsNtB7_18DetectCommonOptionNtNtCseAiZU62iyN8_12clap_builder6derive14FromArgMatches27update_from_arg_matches_muts3_0Bb_
FN:1251,_RNCNvXsV_NtNtCsh5cigu73tlT_8hayabusa10detections7configsNtB7_18PivotKeywordOptionNtNtCseAiZU62iyN8_12clap_builder6derive14FromArgMatches27update_from_arg_matches_muts6_0Bb_
FN:1089,_RNvXsK_NtNtCsh5cigu73tlT_8hayabusa10detections7configsNtB5_12UpdateOptionNtNtCseAiZU62iyN8_12clap_builder6derive4Args23augment_args_for_update
FN:1236,_RNCNvXsV_NtNtCsh5cigu73tlT_8hayabusa10detections7configsNtB7_18PivotKeywordOptionNtNtCseAiZU62iyN8_12clap_builder6derive14FromArgMatches20from_arg_matches_muts3_0Bb_
FN:1389,_RNCNvXs13_NtNtCsh5cigu73tlT_8hayabusa10detections7configsNtB8_12OutputOptionNtNtCseAiZU62iyN8_12clap_builder6derive14FromArgMatches27update_from_arg_matches_muts7_0Bc_
FN:1326,_RNCNvXs13_NtNtCsh5cigu73tlT_8hayabusa10detections7configsNtB8_12OutputOptionNtNtCseAiZU62iyN8_12clap_builder6derive14FromArgMatches20from_arg_matches_mut0Bc_
FN:1251,_RNCNvXsV_NtNtCsh5cigu73tlT_8hayabusa10detections7configsNtB7_18PivotKeywordOptionNtNtCseAiZU62iyN8_12clap_builder6derive14FromArgMatches20from_arg_matches_muts6_0Bb_
FN:1631,_RNCNvXs1u_NtNtCsh5cigu73tlT_8hayabusa10detections7configsNtB8_6ConfigNtNtCseAiZU62iyN8_12clap_builder6derive14FromArgMatches20from_arg_matches_mut0Bc_
FN:1254,_RNvXs12_NtNtCsh5cigu73tlT_8hayabusa10detections7configsNtB6_18LogonSummaryOptionNtNtCsjwgglklCTGv_4core3fmt5Debug3fmt
FN:1311,_RNvXs14_NtNtCsh5cigu73tlT_8hayabusa10detections7configsNtB6_12OutputOptionNtNtCseAiZU62iyN8_12clap_builder6derive4Args8group_id
FN:1142,_RNCNvXsR_NtNtCsh5cigu73tlT_8hayabusa10detections7configsNtB7_16EidMetricsOptionNtNtCseAiZU62iyN8_12clap_builder6derive14FromArgMatches27update_from_arg_matches_mut0Bb_
FN:1615,_RNCNvXs1o_NtNtCsh5cigu73tlT_8hayabusa10detections7configsNtB8_21ComputerMetricsOptionNtNtCseAiZU62iyN8_12clap_builder6derive14FromArgMatches27update_from_arg_matches_muts3_0Bc_
FN:1154,_RNCNvXsR_NtNtCsh5cigu73tlT_8hayabusa10detections7configsNtB7_16EidMetricsOptionNtNtCseAiZU62iyN8_12clap_builder6derive14FromArgMatches27update_from_arg_matches_muts1_0Bb_
FN:1514,_RNvXs1h_NtNtCsh5cigu73tlT_8hayabusa10detections7configsNtB6_15CsvOutputOptionNtNtCseAiZU62iyN8_12clap_builder6derive4Args23augment_args_for_update
FN:1595,_RNCNvXs1o_NtNtCsh5cigu73tlT_8hayabusa10detections7configsNtB8_21ComputerMetricsOptionNtNtCseAiZU62iyN8_12clap_builder6derive14FromArgMatches20from_arg_matches_muts0_0Bc_
FN:1173,_RNvXsV_NtNtCsh5cigu73tlT_8hayabusa10detections7configsNtB5_18PivotKeywordOptionNtNtCseAiZU62iyN8_12clap_builder6derive14FromArgMatches27update_from_arg_matches_mut
FN:1166,_RNCNvXsR_NtNtCsh5cigu73tlT_8hayabusa10detections7configsNtB7_16EidMetricsOptionNtNtCseAiZU62iyN8_12clap_builder6derive14FromArgMatches27update_from_arg_matches_muts4_0Bb_
FN:1949,_RNvXs1C_NtNtCsh5cigu73tlT_8hayabusa10detections7configsNtB6_19EventKeyAliasConfigNtNtCsjwgglklCTGv_4core3fmt5Debug3fmt
FN:1173,_RNvXsV_NtNtCsh5cigu73tlT_8hayabusa10detections7configsNtB5_18PivotKeywordOptionNtNtCseAiZU62iyN8_12clap_builder6derive14FromArgMatches23update_from_arg_matches
FN:1166,_RNCNvXsR_NtNtCsh5cigu73tlT_8hayabusa10detections7configsNtB7_16EidMetricsOptionNtNtCseAiZU62iyN8_12clap_builder6derive14FromArgMatches20from_arg_matches_muts4_0Bb_
FN:1503,_RNCNvXs1c_NtNtCsh5cigu73tlT_8hayabusa10detections7configsNtB8_11InputOptionNtNtCseAiZU62iyN8_12clap_builder6derive14FromArgMatches20from_arg_matches_mut0Bc_
FN:1082,_RNCNvXsF_NtNtCsh5cigu73tlT_8hayabusa10detections7configsNtB7_12SearchOptionNtNtCseAiZU62iyN8_12clap_builder6derive14FromArgMatches27update_from_arg_matches_mutsf_0Bb_
FN:880,_RNvXsy_NtNtCsh5cigu73tlT_8hayabusa10detections7configsNtB5_18DetectCommonOptionNtNtCseAiZU62iyN8_12clap_builder6derive4Args12augment_args
FN:1480,_RNvXs18_NtNtCsh5cigu73tlT_8hayabusa10detections7configsNtB6_13CommonOptionsNtNtCseAiZU62iyN8_12clap_builder6derive14FromArgMatches23update_from_arg_matches
FN:1456,_RNCNvXs13_NtNtCsh5cigu73tlT_8hayabusa10detections7configsNtB8_12OutputOptionNtNtCseAiZU62iyN8_12clap_builder6derive14FromArgMatches27update_from_arg_matches_mutsk_0Bc_
FN:726,_RNvXst_NtNtCsh5cigu73tlT_8hayabusa10detections7configsNtB5_6ActionNtNtCseAiZU62iyN8_12clap_builder6derive14FromArgMatches23update_from_arg_matches
FN:1070,_RNCNvXsF_NtNtCsh5cigu73tlT_8hayabusa10detections7configsNtB7_12SearchOptionNtNtCseAiZU62iyN8_12clap_builder6derive14FromArgMatches20from_arg_matches_mutsc_0Bb_
FN:1408,_RNCNvXs13_NtNtCsh5cigu73tlT_8hayabusa10detections7configsNtB8_12OutputOptionNtNtCseAiZU62iyN8_12clap_builder6derive14FromArgMatches20from_arg_matches_mutsb_0Bc_
FN:929,_RNvXsB_NtNtCsh5cigu73tlT_8hayabusa10detections7configsNtB5_20DefaultProfileOptionNtNtCseAiZU62iyN8_12clap_builder6derive14FromArgMatches23update_from_arg_matches
FN:1514,_RNvXs1h_NtNtCsh5cigu73tlT_8hayabusa10detections7configsNtB6_15CsvOutputOptionNtNtCseAiZU62iyN8_12clap_builder6derive4Args12augment_args
FN:1635,_RNvMs1_NtNtCsh5cigu73tlT_8hayabusa10detections7configsNtB5_12ConfigReader3new
FN:1653,_RNvXs1y_NtNtCsh5cigu73tlT_8hayabusa10detections7configsNtB6_9TargetIdsNtNtCsjwgglklCTGv_4core3fmt5Debug3fmt
FN:880,_RNvXsx_NtNtCsh5cigu73tlT_8hayabusa10detections7configsNtB5_18DetectCommonOptionNtNtCseAiZU62iyN8_12clap_builder6derive14FromArgMatches16from_arg_matches
FN:1473,_RNCNvXs13_NtNtCsh5cigu73tlT_8hayabusa10detections7configsNtB8_12OutputOptionNtNtCseAiZU62iyN8_12clap_builder6derive14FromArgMatches27update_from_arg_matches_mutsn_0Bc_
FN:1082,_RNCNvXsF_NtNtCsh5cigu73tlT_8hayabusa10detections7configsNtB7_12SearchOptionNtNtCseAiZU62iyN8_12clap_builder6derive14FromArgMatches20from_arg_matches_mutsf_0Bb_
FN:1338,_RNCNvXs13_NtNtCsh5cigu73tlT_8hayabusa10detections7configsNtB8_12OutputOptionNtNtCseAiZU62iyN8_12clap_builder6derive14FromArgMatches20from_arg_matches_muts1_0Bc_
FN:1618,_RNvXs1x_NtNtCsh5cigu73tlT_8hayabusa10detections7configsNtB6_6ConfigNtNtCsjwgglklCTGv_4core3fmt5Debug3fmt
FN:926,_RNCNvXsx_NtNtCsh5cigu73tlT_8hayabusa10detections7configsNtB7_18DetectCommonOptionNtNtCseAiZU62iyN8_12clap_builder6derive14FromArgMatches20from_arg_matches_muts4_0Bb_
FN:939,_RNvXsF_NtNtCsh5cigu73tlT_8hayabusa10detections7configsNtB5_12SearchOptionNtNtCseAiZU62iyN8_12clap_builder6derive14FromArgMatches23update_from_arg_matches
FN:1188,_RNCNvXsV_NtNtCsh5cigu73tlT_8hayabusa10detections7configsNtB7_18PivotKeywordOptionNtNtCseAiZU62iyN8_12clap_builder6derive14FromArgMatches27update_from_arg_matches_mut0Bb_
FN:1358,_RNCNvXs13_NtNtCsh5cigu73tlT_8hayabusa10detections7configsNtB8_12OutputOptionNtNtCseAiZU62iyN8_12clap_builder6derive14FromArgMatches20from_arg_matches_muts4_0Bc_
FN:1173,_RNvXsV_NtNtCsh5cigu73tlT_8hayabusa10detections7configsNtB5_18PivotKeywordOptionNtNtCseAiZU62iyN8_12clap_builder6derive14FromArgMatches20from_arg_matches_mut
FN:884,_RNCNvXsx_NtNtCsh5cigu73tlT_8hayabusa10detections7configsNtB7_18DetectCommonOptionNtNtCseAiZU62iyN8_12clap_builder6derive14FromArgMatches27update_from_arg_matches_mut0Bb_
FN:1330,_RNCNvXs13_NtNtCsh5cigu73tlT_8hayabusa10detections7configsNtB8_12OutputOptionNtNtCseAiZU62iyN8_12clap_builder6derive14FromArgMatches27update_from_arg_matches_muts_0Bc_
FN:1484,_RNCNvXs18_NtNtCsh5cigu73tlT_8hayabusa10detections7configsNtB8_13CommonOptionsNtNtCseAiZU62iyN8_12clap_builder6derive14FromArgMatches20from_arg_matches_mut0Bc_
FN:1428,_RNCNvXs13_NtNtCsh5cigu73tlT_8hayabusa10detections7configsNtB8_12OutputOptionNtNtCseAiZU62iyN8_12clap_builder6derive14FromArgMatches27update_from_arg_matches_mutsg_0Bc_
FN:1173,_RNvXsV_NtNtCsh5cigu73tlT_8hayabusa10detections7configsNtB5_18PivotKeywordOptionNtNtCseAiZU62iyN8_12clap_builder6derive14FromArgMatches16from_arg_matches
FN:1342,_RNCNvXs13_NtNtCsh5cigu73tlT_8hayabusa10detections7configsNtB8_12OutputOptionNtNtCseAiZU62iyN8_12clap_builder6derive14FromArgMatches27update_from_arg_matches_muts2_0Bc_
FN:1283,_RNCNvXsZ_NtNtCsh5cigu73tlT_8hayabusa10detections7configsNtB7_18LogonSummaryOptionNtNtCseAiZU62iyN8_12clap_builder6derive14FromArgMatches27update_from_arg_matches_muts1_0Bb_
FN:929,_RNvXsC_NtNtCsh5cigu73tlT_8hayabusa10detections7configsNtB5_20DefaultProfileOptionNtNtCseAiZU62iyN8_12clap_builder6derive4Args8group_id
FN:1563,_RNvXs1o_NtNtCsh5cigu73tlT_8hayabusa10detections7configsNtB6_21ComputerMetricsOptionNtNtCseAiZU62iyN8_12clap_builder6derive14FromArgMatches23update_from_arg_matches
FN:1460,_RNCNvXs13_NtNtCsh5cigu73tlT_8hayabusa10detections7configsNtB8_12OutputOptionNtNtCseAiZU62iyN8_12clap_builder6derive14FromArgMatches20from_arg_matches_mutsl_0Bc_
FN:880,_RNvXsx_NtNtCsh5cigu73tlT_8hayabusa10detections7configsNtB5_18DetectCommonOptionNtNtCseAiZU62iyN8_12clap_builder6derive14FromArgMatches23update_from_arg_matches
FN:1244,_RNCNvXsV_NtNtCsh5cigu73tlT_8hayabusa10detections7configsNtB7_18PivotKeywordOptionNtNtCseAiZU62iyN8_12clap_builder6derive14FromArgMatches20from_arg_matches_muts5_0Bb_
FN:1311,_RNvXs14_NtNtCsh5cigu73tlT_8hayabusa10detections7configsNtB6_12OutputOptionNtNtCseAiZU62iyN8_12clap_builder6derive4Args12augment_args
FN:1078,_RNCNvXsF_NtNtCsh5cigu73tlT_8hayabusa10detections7configsNtB7_12SearchOptionNtNtCseAiZU62iyN8_12clap_builder6derive14FromArgMatches27update_from_arg_matches_mutse_0Bb_
FN:1615,_RNCNvXs1o_NtNtCsh5cigu73tlT_8hayabusa10detections7configsNtB8_21ComputerMetricsOptionNtNtCseAiZU62iyN8_12clap_builder6derive14FromArgMatches20from_arg_matches_muts3_0Bc_
FN:1477,_RNCNvXs13_NtNtCsh5cigu73tlT_8hayabusa10detections7configsNtB8_12OutputOptionNtNtCseAiZU62iyN8_12clap_builder6derive14FromArgMatches20from_arg_matches_mutso_0Bc_
FN:1491,_RNvXs1d_NtNtCsh5cigu73tlT_8hayabusa10detections7configsNtB6_11InputOptionNtNtCseAiZU62iyN8_12clap_builder6derive4Args12augment_args
FN:1577,_RNCNvXs1o_NtNtCsh5cigu73tlT_8hayabusa10detections7configsNtB8_21ComputerMetricsOptionNtNtCseAiZU62iyN8_12clap_builder6derive14FromArgMatches27update_from_arg_matches_mut0Bc_
FN:1295,_RNCNvXsZ_NtNtCsh5cigu73tlT_8hayabusa10detections7configsNtB7_18LogonSummaryOptionNtNtCseAiZU62iyN8_12clap_builder6derive14FromArgMatches20from_arg_matches_muts4_0Bb_
FN:1618,_RNvXs1v_NtNtCsh5cigu73tlT_8hayabusa10detections7configsNtB6_6ConfigNtNtCseAiZU62iyN8_12clap_builder6derive4Args12augment_args
FN:1346,_RNCNvXs13_NtNtCsh5cigu73tlT_8hayabusa10detections7configsNtB8_12OutputOptionNtNtCseAiZU62iyN8_12clap_builder6derive14FromArgMatches20from_arg_matches_muts3_0Bc_
FN:1146,_RNCNvXsR_NtNtCsh5cigu73tlT_8hayabusa10detections7configsNtB7_16EidMetricsOptionNtNtCseAiZU62iyN8_12clap_builder6derive14FromArgMatches20from_arg_matches_muts_0Bb_
FN:1311,_RNvXs14_NtNtCsh5cigu73tlT_8hayabusa10detections7configsNtB6_12OutputOptionNtNtCseAiZU62iyN8_12clap_builder6derive4Args23augment_args_for_update
FN:1539,_RNvXs1k_NtNtCsh5cigu73tlT_8hayabusa10detections7configsNtB6_16JSONOutputOptionNtNtCseAiZU62iyN8_12clap_builder6derive14FromArgMatches27update_from_arg_matches_mut
FN:1480,_RNvXs1b_NtNtCsh5cigu73tlT_8hayabusa10detections7configsNtB6_13CommonOptionsNtNtCsjwgglklCTGv_4core3fmt5Debug3fmt
FN:1491,_RNvXs1d_NtNtCsh5cigu73tlT_8hayabusa10detections7configsNtB6_11InputOptionNtNtCseAiZU62iyN8_12clap_builder6derive4Args23augment_args_for_update
FN:1236,_RNCNvXsV_NtNtCsh5cigu73tlT_8hayabusa10detections7configsNtB7_18PivotKeywordOptionNtNtCseAiZU62iyN8_12clap_builder6derive14FromArgMatches27update_from_arg_matches_muts3_0Bb_
FN:1539,_RNvXs1k_NtNtCsh5cigu73tlT_8hayabusa10detections7configsNtB6_16JSONOutputOptionNtNtCseAiZU62iyN8_12clap_builder6derive14FromArgMatches23update_from_arg_matches
FN:1125,_RNvXsS_NtNtCsh5cigu73tlT_8hayabusa10detections7configsNtB5_16EidMetricsOptionNtNtCseAiZU62iyN8_12clap_builder6derive4Args8group_id
FN:939,_RNvXsG_NtNtCsh5cigu73tlT_8hayabusa10detections7configsNtB5_12SearchOptionNtNtCseAiZU62iyN8_12clap_builder6derive4Args23augment_args_for_update
FN:1240,_RNCNvXsV_NtNtCsh5cigu73tlT_8hayabusa10detections7configsNtB7_18PivotKeywordOptionNtNtCseAiZU62iyN8_12clap_builder6derive14FromArgMatches20from_arg_matches_muts4_0Bb_
FN:1618,_RNvXs1v_NtNtCsh5cigu73tlT_8hayabusa10detections7configsNtB6_6ConfigNtNtCseAiZU62iyN8_12clap_builder6derive4Args23augment_args_for_update
FN:1089,_RNvXsJ_NtNtCsh5cigu73tlT_8hayabusa10detections7configsNtB5_12UpdateOptionNtNtCseAiZU62iyN8_12clap_builder6derive14FromArgMatches27update_from_arg_matches_mut
FN:1125,_RNvXsS_NtNtCsh5cigu73tlT_8hayabusa10detections7configsNtB5_16EidMetricsOptionNtNtCseAiZU62iyN8_12clap_builder6derive4Args23augment_args_for_update
FN:1393,_RNCNvXs13_NtNtCsh5cigu73tlT_8hayabusa10detections7configsNtB8_12OutputOptionNtNtCseAiZU62iyN8_12clap_builder6derive14FromArgMatches27update_from_arg_matches_muts8_0Bc_
FN:1192,_RNCNvXsV_NtNtCsh5cigu73tlT_8hayabusa10detections7configsNtB7_18PivotKeywordOptionNtNtCseAiZU62iyN8_12clap_builder6derive14FromArgMatches27update_from_arg_matches_muts_0Bb_
FN:1595,_RNCNvXs1o_NtNtCsh5cigu73tlT_8hayabusa10detections7configsNtB8_21ComputerMetricsOptionNtNtCseAiZU62iyN8_12clap_builder6derive14FromArgMatches27update_from_arg_matches_muts0_0Bc_
FN:1311,_RNvXs13_NtNtCsh5cigu73tlT_8hayabusa10detections7configsNtB6_12OutputOptionNtNtCseAiZU62iyN8_12clap_builder6derive14FromArgMatches23update_from_arg_matches
FN:1254,_RNvXs10_NtNtCsh5cigu73tlT_8hayabusa10detections7configsNtB6_18LogonSummaryOptionNtNtCseAiZU62iyN8_12clap_builder6derive4Args12augment_args
FN:1507,_RNCNvXs1c_NtNtCsh5cigu73tlT_8hayabusa10detections7configsNtB8_11InputOptionNtNtCseAiZU62iyN8_12clap_builder6derive14FromArgMatches27update_from_arg_matches_muts_0Bc_
FN:1408,_RNCNvXs13_NtNtCsh5cigu73tlT_8hayabusa10detections7configsNtB8_12OutputOptionNtNtCseAiZU62iyN8_12clap_builder6derive14FromArgMatches27update_from_arg_matches_mutsb_0Bc_
FN:726,_RNvXst_NtNtCsh5cigu73tlT_8hayabusa10detections7configsNtB5_6ActionNtNtCseAiZU62iyN8_12clap_builder6derive14FromArgMatches16from_arg_matches
FN:726,_RNvXsu_NtNtCsh5cigu73tlT_8hayabusa10detections7configsNtB5_6ActionNtNtCseAiZU62iyN8_12clap_builder6derive10Subcommand19augment_subcommands
FN:1577,_RNCNvXs1o_NtNtCsh5cigu73tlT_8hayabusa10detections7configsNtB8_21ComputerMetricsOptionNtNtCseAiZU62iyN8_12clap_builder6derive14FromArgMatches20from_arg_matches_mut0Bc_
FN:1514,_RNvXs1j_NtNtCsh5cigu73tlT_8hayabusa10detections7configsNtB6_15CsvOutputOptionNtNtCsjwgglklCTGv_4core3fmt5Debug3fmt
FN:1107,_RNvXsO_NtNtCsh5cigu73tlT_8hayabusa10detections7configsNtB5_17LevelTuningOptionNtNtCseAiZU62iyN8_12clap_builder6derive4Args23augment_args_for_update
FN:1607,_RNCNvXs1o_NtNtCsh5cigu73tlT_8hayabusa10detections7configsNtB8_21ComputerMetricsOptionNtNtCseAiZU62iyN8_12clap_builder6derive14FromArgMatches20from_arg_matches_muts1_0Bc_
FN:1046,_RNCNvXsF_NtNtCsh5cigu73tlT_8hayabusa10detections7configsNtB7_12SearchOptionNtNtCseAiZU62iyN8_12clap_builder6derive14FromArgMatches20from_arg_matches_muts6_0Bb_
FN:1125,_RNvXsR_NtNtCsh5cigu73tlT_8hayabusa10detections7configsNtB5_16EidMetricsOptionNtNtCseAiZU62iyN8_12clap_builder6derive14FromArgMatches27update_from_arg_matches_mut
FN:1104,_RNCNvXsJ_NtNtCsh5cigu73tlT_8hayabusa10detections7configsNtB7_12UpdateOptionNtNtCseAiZU62iyN8_12clap_builder6derive14FromArgMatches20from_arg_matches_mut0Bb_
FN:1089,_RNvXsJ_NtNtCsh5cigu73tlT_8hayabusa10detections7configsNtB5_12UpdateOptionNtNtCseAiZU62iyN8_12clap_builder6derive14FromArgMatches20from_arg_matches_mut
FN:1154,_RNCNvXsR_NtNtCsh5cigu73tlT_8hayabusa10detections7configsNtB7_16EidMetricsOptionNtNtCseAiZU62iyN8_12clap_builder6derive14FromArgMatches20from_arg_matches_muts1_0Bb_
FN:1173,_RNvXsW_NtNtCsh5cigu73tlT_8hayabusa10detections7configsNtB5_18PivotKeywordOptionNtNtCseAiZU62iyN8_12clap_builder6derive4Args8group_id
FN:1070,_RNCNvXsF_NtNtCsh5cigu73tlT_8hayabusa10detections7configsNtB7_12SearchOptionNtNtCseAiZU62iyN8_12clap_builder6derive14FromArgMatches27update_from_arg_matches_mutsc_0Bb_
FN:1125,_RNvXsR_NtNtCsh5cigu73tlT_8hayabusa10detections7configsNtB5_16EidMetricsOptionNtNtCseAiZU62iyN8_12clap_builder6derive14FromArgMatches23update_from_arg_matches
FN:1254,_RNvXsZ_NtNtCsh5cigu73tlT_8hayabusa10detections7configsNtB5_18LogonSummaryOptionNtNtCseAiZU62iyN8_12clap_builder6derive14FromArgMatches20from_arg_matches_mut
FN:1254,_RNvXs10_NtNtCsh5cigu73tlT_8hayabusa10detections7configsNtB6_18LogonSummaryOptionNtNtCseAiZU62iyN8_12clap_builder6derive4Args23augment_args_for_update
FN:1397,_RNCNvXs13_NtNtCsh5cigu73tlT_8hayabusa10detections7configsNtB8_12OutputOptionNtNtCseAiZU62iyN8_12clap_builder6derive14FromArgMatches20from_arg_matches_muts9_0Bc_
FN:1012,_RNCNvXsF_NtNtCsh5cigu73tlT_8hayabusa10detections7configsNtB7_12SearchOptionNtNtCseAiZU62iyN8_12clap_builder6derive14FromArgMatches27update_from_arg_matches_muts2_0Bb_
FN:1464,_RNCNvXs13_NtNtCsh5cigu73tlT_8hayabusa10detections7configsNtB8_12OutputOptionNtNtCseAiZU62iyN8_12clap_builder6derive14FromArgMatches20from_arg_matches_mutsm_0Bc_
FN:1042,_RNCNvXsF_NtNtCsh5cigu73tlT_8hayabusa10detections7configsNtB7_12SearchOptionNtNtCseAiZU62iyN8_12clap_builder6derive14FromArgMatches27update_from_arg_matches_muts5_0Bb_
FN:918,_RNCNvXsx_NtNtCsh5cigu73tlT_8hayabusa10detections7configsNtB7_18DetectCommonOptionNtNtCseAiZU62iyN8_12clap_builder6derive14FromArgMatches20from_arg_matches_muts2_0Bb_
FN:1480,_RNvXs19_NtNtCsh5cigu73tlT_8hayabusa10detections7configsNtB6_13CommonOptionsNtNtCseAiZU62iyN8_12clap_builder6derive4Args8group_id
FN:1539,_RNvXs1n_NtNtCsh5cigu73tlT_8hayabusa10detections7configsNtB6_16JSONOutputOptionNtNtCsjwgglklCTGv_4core3fmt5Debug3fmt
FN:1563,_RNvXs1p_NtNtCsh5cigu73tlT_8hayabusa10detections7configsNtB6_21ComputerMetricsOptionNtNtCseAiZU62iyN8_12clap_builder6derive4Args8group_id
FN:1514,_RNvXs1g_NtNtCsh5cigu73tlT_8hayabusa10detections7configsNtB6_15CsvOutputOptionNtNtCseAiZU62iyN8_12clap_builder6derive14FromArgMatches20from_arg_matches_mut
FN:52,_RNvXsr_NtNtCsh5cigu73tlT_8hayabusa10detections7configsNtB5_12StoredStaticNtNtCsjwgglklCTGv_4core3fmt5Debug3fmt
FN:1086,_RNCNvXsF_NtNtCsh5cigu73tlT_8hayabusa10detections7configsNtB7_12SearchOptionNtNtCseAiZU62iyN8_12clap_builder6derive14FromArgMatches20from_arg_matches_mutsg_0Bb_
FN:1401,_RNCNvXs13_NtNtCsh5cigu73tlT_8hayabusa10detections7configsNtB8_12OutputOptionNtNtCseAiZU62iyN8_12clap_builder6derive14FromArgMatches27update_from_arg_matches_mutsa_0Bc_
FN:1012,_RNCNvXsF_NtNtCsh5cigu73tlT_8hayabusa10detections7configsNtB7_12SearchOptionNtNtCseAiZU62iyN8_12clap_builder6derive14FromArgMatches20from_arg_matches_muts2_0Bb_
FN:1491,_RNvXs1e_NtNtCsk6AfKij8NQT_8hayabusa10detections7configsNtB6_11InputOptionNtNtCsjwgglklCTGv_4core5clone5Clone5cloneCs7Hls9FlRdLI_8hayabusa
FN:52,_RNvXss_NtNtCsk6AfKij8NQT_8hayabusa10detections7configsNtB5_12StoredStaticNtNtCsjwgglklCTGv_4core5clone5Clone5cloneCs7Hls9FlRdLI_8hayabusa
FN:1311,_RNvXs15_NtNtCsk6AfKij8NQT_8hayabusa10detections7configsNtB6_12OutputOptionNtNtCsjwgglklCTGv_4core5clone5Clone5cloneCs7Hls9FlRdLI_8hayabusa
FN:880,_RNvXsz_NtNtCsk6AfKij8NQT_8hayabusa10detections7configsNtB5_18DetectCommonOptionNtNtCsjwgglklCTGv_4core5clone5Clone5cloneCs7Hls9FlRdLI_8hayabusa
FN:1480,_RNvXs1a_NtNtCsk6AfKij8NQT_8hayabusa10detections7configsNtB6_13CommonOptionsNtNtCsjwgglklCTGv_4core5clone5Clone5cloneCs7Hls9FlRdLI_8hayabusa
FN:1949,_RNvXs1D_NtNtCsk6AfKij8NQT_8hayabusa10detections7configsNtB6_19EventKeyAliasConfigNtNtCsjwgglklCTGv_4core5clone5Clone5cloneCs7Hls9FlRdLI_8hayabusa
FN:2413,_RNvXs1F_NtNtCsk6AfKij8NQT_8hayabusa10detections7configsNtB6_9EventInfoNtNtCsjwgglklCTGv_4core5clone5Clone5cloneCs7Hls9FlRdLI_8hayabusa
FN:2430,_RNvXs1H_NtNtCsk6AfKij8NQT_8hayabusa10detections7configsNtB6_15EventInfoConfigNtNtCsjwgglklCTGv_4core5clone5Clone5cloneCs7Hls9FlRdLI_8hayabusa
FN:939,_RNvXsH_NtNtCsk6AfKij8NQT_8hayabusa10detections7configsNtB5_12SearchOptionNtNtCsjwgglklCTGv_4core5clone5Clone5cloneCs7Hls9FlRdLI_8hayabusa
FN:1653,_RNvXs1z_NtNtCsk6AfKij8NQT_8hayabusa10detections7configsNtB6_9TargetIdsNtNtCsjwgglklCTGv_4core5clone5Clone5cloneCs7Hls9FlRdLI_8hayabusa
FN:1618,_RNvXs1w_NtNtCsk6AfKij8NQT_8hayabusa10detections7configsNtB6_6ConfigNtNtCsjwgglklCTGv_4core5clone5Clone5cloneCs7Hls9FlRdLI_8hayabusa
FN:1162,_RNCNvXsR_NtNtCsk6AfKij8NQT_8hayabusa10detections7configsNtB7_16EidMetricsOptionNtNtCseAiZU62iyN8_12clap_builder6derive14FromArgMatches20from_arg_matches_muts3_0Bb_
FN:1196,_RNCNvXsV_NtNtCsk6AfKij8NQT_8hayabusa10detections7configsNtB7_18PivotKeywordOptionNtNtCseAiZU62iyN8_12clap_builder6derive14FromArgMatches27update_from_arg_matches_muts0_0Bb_
FN:902,_RNCNvXsx_NtNtCsk6AfKij8NQT_8hayabusa10detections7configsNtB7_18DetectCommonOptionNtNtCseAiZU62iyN8_12clap_builder6derive14FromArgMatches27update_from_arg_matches_muts0_0Bb_
FN:939,_RNvXsG_NtNtCsk6AfKij8NQT_8hayabusa10detections7configsNtB5_12SearchOptionNtNtCseAiZU62iyN8_12clap_builder6derive4Args23augment_args_for_update
FN:178,_RNCNvMs_NtNtCsk6AfKij8NQT_8hayabusa10detections7configsNtB6_12StoredStatic18create_static_datas2_0Ba_
FN:880,_RNvXsz_NtNtCsk6AfKij8NQT_8hayabusa10detections7configsNtB5_18DetectCommonOptionNtNtCsjwgglklCTGv_4core5clone5Clone5cloneB9_
FN:2013,_RNvNtNtCsk6AfKij8NQT_8hayabusa10detections7configs19load_pivot_keywords
FN:1089,_RNvXsL_NtNtCsk6AfKij8NQT_8hayabusa10detections7configsNtB5_12UpdateOptionNtNtCsjwgglklCTGv_4core5clone5Clone5cloneB9_
FN:1154,_RNCNvXsR_NtNtCsk6AfKij8NQT_8hayabusa10detections7configsNtB7_16EidMetricsOptionNtNtCseAiZU62iyN8_12clap_builder6derive14FromArgMatches20from_arg_matches_muts1_0Bb_
FN:929,_RNvXsE_NtNtCsk6AfKij8NQT_8hayabusa10detections7configsNtB5_20DefaultProfileOptionNtNtCsjwgglklCTGv_4core3fmt5Debug3fmt
FN:1768,_RNCNCNvMs4_NtNtCsk6AfKij8NQT_8hayabusa10detections7configsNtB9_15TargetEventTime3news_0s2_0Bd_
FN:1275,_RNCNvXsZ_NtNtCsk6AfKij8NQT_8hayabusa10detections7configsNtB7_18LogonSummaryOptionNtNtCseAiZU62iyN8_12clap_builder6derive14FromArgMatches20from_arg_matches_muts_0Bb_
FN:1346,_RNCNvXs13_NtNtCsk6AfKij8NQT_8hayabusa10detections7configsNtB8_12OutputOptionNtNtCseAiZU62iyN8_12clap_builder6derive14FromArgMatches20from_arg_matches_muts3_0Bc_
FN:1046,_RNCNvXsF_NtNtCsk6AfKij8NQT_8hayabusa10detections7configsNtB7_12SearchOptionNtNtCseAiZU62iyN8_12clap_builder6derive14FromArgMatches20from_arg_matches_muts6_0Bb_
FN:1393,_RNCNvXs13_NtNtCsk6AfKij8NQT_8hayabusa10detections7configsNtB8_12OutputOptionNtNtCseAiZU62iyN8_12clap_builder6derive14FromArgMatches20from_arg_matches_muts8_0Bc_
FN:1401,_RNCNvXs13_NtNtCsk6AfKij8NQT_8hayabusa10detections7configsNtB8_12OutputOptionNtNtCseAiZU62iyN8_12clap_builder6derive14FromArgMatches27update_from_arg_matches_mutsa_0Bc_
FN:1209,_RNCNvXsV_NtNtCsk6AfKij8NQT_8hayabusa10detections7configsNtB7_18PivotKeywordOptionNtNtCseAiZU62iyN8_12clap_builder6derive14FromArgMatches20from_arg_matches_muts1_0Bb_
FN:1420,_RNCNvXs13_NtNtCsk6AfKij8NQT_8hayabusa10detections7configsNtB8_12OutputOptionNtNtCseAiZU62iyN8_12clap_builder6derive14FromArgMatches27update_from_arg_matches_mutse_0Bc_
FN:1484,_RNCNvXs18_NtNtCsk6AfKij8NQT_8hayabusa10detections7configsNtB8_13CommonOptionsNtNtCseAiZU62iyN8_12clap_builder6derive14FromArgMatches20from_arg_matches_mut0Bc_
FN:1521,_RNCNvXs1g_NtNtCsk6AfKij8NQT_8hayabusa10detections7configsNtB8_15CsvOutputOptionNtNtCseAiZU62iyN8_12clap_builder6derive14FromArgMatches20from_arg_matches_mut0Bc_
FN:1539,_RNvXs1l_NtNtCsk6AfKij8NQT_8hayabusa10detections7configsNtB6_16JSONOutputOptionNtNtCseAiZU62iyN8_12clap_builder6derive4Args8group_id
FN:1477,_RNCNvXs13_NtNtCsk6AfKij8NQT_8hayabusa10detections7configsNtB8_12OutputOptionNtNtCseAiZU62iyN8_12clap_builder6derive14FromArgMatches20from_arg_matches_mutso_0Bc_
FN:1507,_RNCNvXs1c_NtNtCsk6AfKij8NQT_8hayabusa10detections7configsNtB8_11InputOptionNtNtCseAiZU62iyN8_12clap_builder6derive14FromArgMatches20from_arg_matches_muts_0Bc_
FN:1539,_RNvXs1l_NtNtCsk6AfKij8NQT_8hayabusa10detections7configsNtB6_16JSONOutputOptionNtNtCseAiZU62iyN8_12clap_builder6derive4Args12augment_args
FN:1326,_RNCNvXs13_NtNtCsk6AfKij8NQT_8hayabusa10detections7configsNtB8_12OutputOptionNtNtCseAiZU62iyN8_12clap_builder6derive14FromArgMatches20from_arg_matches_mut0Bc_
FN:1125,_RNvXsS_NtNtCsk6AfKij8NQT_8hayabusa10detections7configsNtB5_16EidMetricsOptionNtNtCseAiZU62iyN8_12clap_builder6derive4Args23augment_args_for_update
FN:1066,_RNCNvXsF_NtNtCsk6AfKij8NQT_8hayabusa10detections7configsNtB7_12SearchOptionNtNtCseAiZU62iyN8_12clap_builder6derive14FromArgMatches20from_arg_matches_mutsb_0Bb_
FN:1089,_RNvXsJ_NtNtCsk6AfKij8NQT_8hayabusa10detections7configsNtB5_12UpdateOptionNtNtCseAiZU62iyN8_12clap_builder6derive14FromArgMatches23update_from_arg_matches
FN:926,_RNCNvXsx_NtNtCsk6AfKij8NQT_8hayabusa10detections7configsNtB7_18DetectCommonOptionNtNtCseAiZU62iyN8_12clap_builder6derive14FromArgMatches27update_from_arg_matches_muts4_0Bb_
FN:1125,_RNvXsU_NtNtCsk6AfKij8NQT_8hayabusa10detections7configsNtB5_16EidMetricsOptionNtNtCsjwgglklCTGv_4core3fmt5Debug3fmt
FN:668,_RNCNvMs_NtNtCsk6AfKij8NQT_8hayabusa10detections7configsNtB6_12StoredStatic19get_default_details0Ba_
FN:1166,_RNCNvXsR_NtNtCsk6AfKij8NQT_8hayabusa10detections7configsNtB7_16EidMetricsOptionNtNtCseAiZU62iyN8_12clap_builder6derive14FromArgMatches20from_arg_matches_muts4_0Bb_
FN:1448,_RNCNvXs13_NtNtCsk6AfKij8NQT_8hayabusa10detections7configsNtB8_12OutputOptionNtNtCseAiZU62iyN8_12clap_builder6derive14FromArgMatches27update_from_arg_matches_mutsj_0Bc_
FN:573,_RNCNvMs_NtNtCsk6AfKij8NQT_8hayabusa10detections7configsNtB6_12StoredStatic18create_static_datasd_0Ba_
FN:1618,_RNvXs1v_NtNtCsk6AfKij8NQT_8hayabusa10detections7configsNtB6_6ConfigNtNtCseAiZU62iyN8_12clap_builder6derive4Args23augment_args_for_update
FN:1618,_RNvXs1w_NtNtCsk6AfKij8NQT_8hayabusa10detections7configsNtB6_6ConfigNtNtCsjwgglklCTGv_4core5clone5Clone5cloneBa_
FN:1766,_RNCNCNvMs4_NtNtCsk6AfKij8NQT_8hayabusa10detections7configsNtB9_15TargetEventTime3news_0s0_0Bd_
FN:2019,_RNCNvNtNtCsk6AfKij8NQT_8hayabusa10detections7configs19load_pivot_keywords0B7_
FN:956,_RNCNvXsF_NtNtCsk6AfKij8NQT_8hayabusa10detections7configsNtB7_12SearchOptionNtNtCseAiZU62iyN8_12clap_builder6derive14FromArgMatches20from_arg_matches_mut0Bb_
FN:726,_RNvXst_NtNtCsk6AfKij8NQT_8hayabusa10detections7configsNtB5_6ActionNtNtCseAiZU62iyN8_12clap_builder6derive14FromArgMatches16from_arg_matches
FN:726,_RNvXsu_NtNtCsk6AfKij8NQT_8hayabusa10detections7configsNtB5_6ActionNtNtCseAiZU62iyN8_12clap_builder6derive10Subcommand19augment_subcommands
FN:1082,_RNCNvXsF_NtNtCsk6AfKij8NQT_8hayabusa10detections7configsNtB7_12SearchOptionNtNtCseAiZU62iyN8_12clap_builder6derive14FromArgMatches27update_from_arg_matches_mutsf_0Bb_
FN:1397,_RNCNvXs13_NtNtCsk6AfKij8NQT_8hayabusa10detections7configsNtB8_12OutputOptionNtNtCseAiZU62iyN8_12clap_builder6derive14FromArgMatches27update_from_arg_matches_muts9_0Bc_
FN:1480,_RNvXs18_NtNtCsk6AfKij8NQT_8hayabusa10detections7configsNtB6_13CommonOptionsNtNtCseAiZU62iyN8_12clap_builder6derive14FromArgMatches20from_arg_matches_mut
FN:1254,_RNvXs10_NtNtCsk6AfKij8NQT_8hayabusa10detections7configsNtB6_18LogonSummaryOptionNtNtCseAiZU62iyN8_12clap_builder6derive4Args8group_id
FN:1539,_RNvXs1m_NtNtCsk6AfKij8NQT_8hayabusa10detections7configsNtB6_16JSONOutputOptionNtNtCsjwgglklCTGv_4core5clone5Clone5cloneBa_
FN:1615,_RNCNvXs1o_NtNtCsk6AfKij8NQT_8hayabusa10detections7configsNtB8_21ComputerMetricsOptionNtNtCseAiZU62iyN8_12clap_builder6derive14FromArgMatches27update_from_arg_matches_muts3_0Bc_
FN:1514,_RNvXs1h_NtNtCsk6AfKij8NQT_8hayabusa10detections7configsNtB6_15CsvOutputOptionNtNtCseAiZU62iyN8_12clap_builder6derive4Args23augment_args_for_update
FN:939,_RNvXsG_NtNtCsk6AfKij8NQT_8hayabusa10detections7configsNtB5_12SearchOptionNtNtCseAiZU62iyN8_12clap_builder6derive4Args12augment_args
FN:1480,_RNvXs18_NtNtCsk6AfKij8NQT_8hayabusa10detections7configsNtB6_13CommonOptionsNtNtCseAiZU62iyN8_12clap_builder6derive14FromArgMatches16from_arg_matches
FN:1042,_RNCNvXsF_NtNtCsk6AfKij8NQT_8hayabusa10detections7configsNtB7_12SearchOptionNtNtCseAiZU62iyN8_12clap_builder6derive14FromArgMatches27update_from_arg_matches_muts5_0Bb_
FN:1539,_RNvXs1l_NtNtCsk6AfKij8NQT_8hayabusa10detections7configsNtB6_16JSONOutputOptionNtNtCseAiZU62iyN8_12clap_builder6derive4Args23augment_args_for_update
FN:2060,_RNvNtNtCsk6AfKij8NQT_8hayabusa10detections7configs25convert_option_vecs_to_hs
FN:2425,_RNvMs8_NtNtCsk6AfKij8NQT_8hayabusa10detections7configsNtB5_9EventInfo3new
FN:1456,_RNCNvXs13_NtNtCsk6AfKij8NQT_8hayabusa10detections7configsNtB8_12OutputOptionNtNtCseAiZU62iyN8_12clap_builder6derive14FromArgMatches27update_from_arg_matches_mutsk_0Bc_
FN:1125,_RNvXsR_NtNtCsk6AfKij8NQT_8hayabusa10detections7configsNtB5_16EidMetricsOptionNtNtCseAiZU62iyN8_12clap_builder6derive14FromArgMatches27update_from_arg_matches_mut
FN:2413,_RNvXs1E_NtNtCsk6AfKij8NQT_8hayabusa10detections7configsNtB6_9EventInfoNtNtCsjwgglklCTGv_4core3fmt5Debug3fmt
FN:2430,_RNvXs1G_NtNtCsk6AfKij8NQT_8hayabusa10detections7configsNtB6_15EventInfoConfigNtNtCsjwgglklCTGv_4core3fmt5Debug3fmt
FN:526,_RNCNvMs_NtNtCsk6AfKij8NQT_8hayabusa10detections7configsNtB6_12StoredStatic18create_static_datas8_0Ba_
FN:1089,_RNvXsJ_NtNtCsk6AfKij8NQT_8hayabusa10detections7configsNtB5_12UpdateOptionNtNtCseAiZU62iyN8_12clap_builder6derive14FromArgMatches20from_arg_matches_mut
FN:1154,_RNCNvXsR_NtNtCsk6AfKij8NQT_8hayabusa10detections7configsNtB7_16EidMetricsOptionNtNtCseAiZU62iyN8_12clap_builder6derive14FromArgMatches27update_from_arg_matches_muts1_0Bb_
FN:1931,_RNvMs4_NtNtCsk6AfKij8NQT_8hayabusa10detections7configsNtB5_15TargetEventTime9is_target
FN:726,_RNvXsu_NtNtCsk6AfKij8NQT_8hayabusa10detections7configsNtB5_6ActionNtNtCseAiZU62iyN8_12clap_builder6derive10Subcommand14has_subcommand
FN:1480,_RNvXs18_NtNtCsk6AfKij8NQT_8hayabusa10detections7configsNtB6_13CommonOptionsNtNtCseAiZU62iyN8_12clap_builder6derive14FromArgMatches27update_from_arg_matches_mut
FN:1424,_RNCNvXs13_NtNtCsk6AfKij8NQT_8hayabusa10detections7configsNtB8_12OutputOptionNtNtCseAiZU62iyN8_12clap_builder6derive14FromArgMatches20from_arg_matches_mutsf_0Bc_
FN:1173,_RNvXsW_NtNtCsk6AfKij8NQT_8hayabusa10detections7configsNtB5_18PivotKeywordOptionNtNtCseAiZU62iyN8_12clap_builder6derive4Args8group_id
FN:1618,_RNvXs1t_NtNtCsk6AfKij8NQT_8hayabusa10detections7configsNtB6_6ConfigNtNtCseAiZU62iyN8_12clap_builder6derive14CommandFactory7command
FN:1125,_RNvXsR_NtNtCsk6AfKij8NQT_8hayabusa10detections7configsNtB5_16EidMetricsOptionNtNtCseAiZU62iyN8_12clap_builder6derive14FromArgMatches23update_from_arg_matches
FN:1618,_RNvXs1u_NtNtCsk6AfKij8NQT_8hayabusa10detections7configsNtB6_6ConfigNtNtCseAiZU62iyN8_12clap_builder6derive14FromArgMatches20from_arg_matches_mut
FN:1550,_RNCNvXs1k_NtNtCsk6AfKij8NQT_8hayabusa10detections7configsNtB8_16JSONOutputOptionNtNtCseAiZU62iyN8_12clap_builder6derive14FromArgMatches27update_from_arg_matches_mut0Bc_
FN:926,_RNCNvXsx_NtNtCsk6AfKij8NQT_8hayabusa10detections7configsNtB7_18DetectCommonOptionNtNtCseAiZU62iyN8_12clap_builder6derive14FromArgMatches20from_arg_matches_muts4_0Bb_
FN:1089,_RNvXsJ_NtNtCsk6AfKij8NQT_8hayabusa10detections7configsNtB5_12UpdateOptionNtNtCseAiZU62iyN8_12clap_builder6derive14FromArgMatches16from_arg_matches
FN:1254,_RNvXsZ_NtNtCsk6AfKij8NQT_8hayabusa10detections7configsNtB5_18LogonSummaryOptionNtNtCseAiZU62iyN8_12clap_builder6derive14FromArgMatches20from_arg_matches_mut
FN:1488,_RNCNvXs18_NtNtCsk6AfKij8NQT_8hayabusa10detections7configsNtB8_13CommonOptionsNtNtCseAiZU62iyN8_12clap_builder6derive14FromArgMatches20from_arg_matches_muts_0Bc_
FN:1514,_RNvXs1i_NtNtCsk6AfKij8NQT_8hayabusa10detections7configsNtB6_15CsvOutputOptionNtNtCsjwgglklCTGv_4core5clone5Clone5cloneBa_
FN:1767,_RNCNCNvMs4_NtNtCsk6AfKij8NQT_8hayabusa10detections7configsNtB9_15TargetEventTime3news_0s1_0Bd_
FN:1254,_RNvXs10_NtNtCsk6AfKij8NQT_8hayabusa10detections7configsNtB6_18LogonSummaryOptionNtNtCseAiZU62iyN8_12clap_builder6derive4Args23augment_args_for_update
FN:1456,_RNCNvXs13_NtNtCsk6AfKij8NQT_8hayabusa10detections7configsNtB8_12OutputOptionNtNtCseAiZU62iyN8_12clap_builder6derive14FromArgMatches20from_arg_matches_mutsk_0Bc_
FN:1611,_RNCNvXs1o_NtNtCsk6AfKij8NQT_8hayabusa10detections7configsNtB8_21ComputerMetricsOptionNtNtCseAiZU62iyN8_12clap_builder6derive14FromArgMatches20from_arg_matches_muts2_0Bc_
FN:726,_RNvXst_NtNtCsk6AfKij8NQT_8hayabusa10detections7configsNtB5_6ActionNtNtCseAiZU62iyN8_12clap_builder6derive14FromArgMatches27update_from_arg_matches_mut
FN:1311,_RNvXs13_NtNtCsk6AfKij8NQT_8hayabusa10detections7configsNtB6_12OutputOptionNtNtCseAiZU62iyN8_12clap_builder6derive14FromArgMatches20from_arg_matches_mut
FN:1480,_RNvXs18_NtNtCsk6AfKij8NQT_8hayabusa10detections7configsNtB6_13CommonOptionsNtNtCseAiZU62iyN8_12clap_builder6derive14FromArgMatches23update_from_arg_matches
FN:1254,_RNvXsZ_NtNtCsk6AfKij8NQT_8hayabusa10detections7configsNtB5_18LogonSummaryOptionNtNtCseAiZU62iyN8_12clap_builder6derive14FromArgMatches16from_arg_matches
FN:1428,_RNCNvXs13_NtNtCsk6AfKij8NQT_8hayabusa10detections7configsNtB8_12OutputOptionNtNtCseAiZU62iyN8_12clap_builder6derive14FromArgMatches27update_from_arg_matches_mutsg_0Bc_
FN:1480,_RNvXs19_NtNtCsk6AfKij8NQT_8hayabusa10detections7configsNtB6_13CommonOptionsNtNtCseAiZU62iyN8_12clap_builder6derive4Args12augment_args
FN:1192,_RNCNvXsV_NtNtCsk6AfKij8NQT_8hayabusa10detections7configsNtB7_18PivotKeywordOptionNtNtCseAiZU62iyN8_12clap_builder6derive14FromArgMatches20from_arg_matches_muts_0Bb_
FN:977,_RNCNvXsF_NtNtCsk6AfKij8NQT_8hayabusa10detections7configsNtB7_12SearchOptionNtNtCseAiZU62iyN8_12clap_builder6derive14FromArgMatches27update_from_arg_matches_muts_0Bb_
FN:715,_RNvNtNtCsk6AfKij8NQT_8hayabusa10detections7configs19check_thread_number
FN:1086,_RNCNvXsF_NtNtCsk6AfKij8NQT_8hayabusa10detections7configsNtB7_12SearchOptionNtNtCseAiZU62iyN8_12clap_builder6derive14FromArgMatches27update_from_arg_matches_mutsg_0Bb_
FN:1173,_RNvXsW_NtNtCsk6AfKij8NQT_8hayabusa10detections7configsNtB5_18PivotKeywordOptionNtNtCseAiZU62iyN8_12clap_builder6derive4Args23augment_args_for_update
FN:543,_RNCNvMs_NtNtCsk6AfKij8NQT_8hayabusa10detections7configsNtB6_12StoredStatic18create_static_datasa_0Ba_
FN:726,_RNvXsu_NtNtCsk6AfKij8NQT_8hayabusa10detections7configsNtB5_6ActionNtNtCseAiZU62iyN8_12clap_builder6derive10Subcommand30augment_subcommands_for_update
FN:726,_RNvXsw_NtNtCsk6AfKij8NQT_8hayabusa10detections7configsNtB5_6ActionNtNtCsjwgglklCTGv_4core3fmt5Debug3fmt
FN:1291,_RNCNvXsZ_NtNtCsk6AfKij8NQT_8hayabusa10detections7configsNtB7_18LogonSummaryOptionNtNtCseAiZU62iyN8_12clap_builder6derive14FromArgMatches20from_arg_matches_muts3_0Bb_
FN:1480,_RNvXs19_NtNtCsk6AfKij8NQT_8hayabusa10detections7configsNtB6_13CommonOptionsNtNtCseAiZU62iyN8_12clap_builder6derive4Args8group_id
FN:1311,_RNvXs13_NtNtCsk6AfKij8NQT_8hayabusa10detections7configsNtB6_12OutputOptionNtNtCseAiZU62iyN8_12clap_builder6derive14FromArgMatches27update_from_arg_matches_mut
FN:1728,_RNCNvMs4_NtNtCsk6AfKij8NQT_8hayabusa10detections7configsNtB7_15TargetEventTime3news_0Bb_
FN:2463,_RNCNvNtNtCsk6AfKij8NQT_8hayabusa10detections7configs19load_eventcode_info0B7_
FN:1170,_RNCNvXsR_NtNtCsk6AfKij8NQT_8hayabusa10detections7configsNtB7_16EidMetricsOptionNtNtCseAiZU62iyN8_12clap_builder6derive14FromArgMatches20from_arg_matches_muts5_0Bb_
FN:1240,_RNCNvXsV_NtNtCsk6AfKij8NQT_8hayabusa10detections7configsNtB7_18PivotKeywordOptionNtNtCseAiZU62iyN8_12clap_builder6derive14FromArgMatches27update_from_arg_matches_muts4_0Bb_
FN:1514,_RNvXs1g_NtNtCsk6AfKij8NQT_8hayabusa10detections7configsNtB6_15CsvOutputOptionNtNtCseAiZU62iyN8_12clap_builder6derive14FromArgMatches20from_arg_matches_mut
FN:1436,_RNCNvXs13_NtNtCsk6AfKij8NQT_8hayabusa10detections7configsNtB8_12OutputOptionNtNtCseAiZU62iyN8_12clap_builder6derive14FromArgMatches27update_from_arg_matches_mutsi_0Bc_
FN:1635,_RNvMs1_NtNtCsk6AfKij8NQT_8hayabusa10detections7configsNtB5_12ConfigReader3new
FN:1062,_RNCNvXsF_NtNtCsk6AfKij8NQT_8hayabusa10detections7configsNtB7_12SearchOptionNtNtCseAiZU62iyN8_12clap_builder6derive14FromArgMatches20from_arg_matches_mutsa_0Bb_
FN:1563,_RNvXs1p_NtNtCsk6AfKij8NQT_8hayabusa10detections7configsNtB6_21ComputerMetricsOptionNtNtCseAiZU62iyN8_12clap_builder6derive4Args8group_id
FN:1963,_RNvMs5_NtNtCsk6AfKij8NQT_8hayabusa10detections7configsNtB5_19EventKeyAliasConfig13get_event_key
FN:1358,_RNCNvXs13_NtNtCsk6AfKij8NQT_8hayabusa10detections7configsNtB8_12OutputOptionNtNtCseAiZU62iyN8_12clap_builder6derive14FromArgMatches27update_from_arg_matches_muts4_0Bc_
FN:1107,_RNvXsQ_NtNtCsk6AfKij8NQT_8hayabusa10detections7configsNtB5_17LevelTuningOptionNtNtCsjwgglklCTGv_4core3fmt5Debug3fmt
FN:1563,_RNvXs1q_NtNtCsk6AfKij8NQT_8hayabusa10detections7configsNtB6_21ComputerMetricsOptionNtNtCsjwgglklCTGv_4core5clone5Clone5cloneBa_
FN:1507,_RNCNvXs1c_NtNtCsk6AfKij8NQT_8hayabusa10detections7configsNtB8_11InputOptionNtNtCseAiZU62iyN8_12clap_builder6derive14FromArgMatches27update_from_arg_matches_muts_0Bc_
FN:1514,_RNvXs1g_NtNtCsk6AfKij8NQT_8hayabusa10detections7configsNtB6_15CsvOutputOptionNtNtCseAiZU62iyN8_12clap_builder6derive14FromArgMatches16from_arg_matches
FN:1473,_RNCNvXs13_NtNtCsk6AfKij8NQT_8hayabusa10detections7configsNtB8_12OutputOptionNtNtCseAiZU62iyN8_12clap_builder6derive14FromArgMatches27update_from_arg_matches_mutsn_0Bc_
FN:1671,_RNvMs3_NtNtCsk6AfKij8NQT_8hayabusa10detections7configsNtB5_9TargetIds9is_target
FN:1420,_RNCNvXs13_NtNtCsk6AfKij8NQT_8hayabusa10detections7configsNtB8_12OutputOptionNtNtCseAiZU62iyN8_12clap_builder6derive14FromArgMatches20from_arg_matches_mutse_0Bc_
FN:1393,_RNCNvXs13_NtNtCsk6AfKij8NQT_8hayabusa10detections7configsNtB8_12OutputOptionNtNtCseAiZU62iyN8_12clap_builder6derive14FromArgMatches27update_from_arg_matches_muts8_0Bc_
FN:1173,_RNvXsV_NtNtCsk6AfKij8NQT_8hayabusa10detections7configsNtB5_18PivotKeywordOptionNtNtCseAiZU62iyN8_12clap_builder6derive14FromArgMatches20from_arg_matches_mut
FN:1330,_RNCNvXs13_NtNtCsk6AfKij8NQT_8hayabusa10detections7configsNtB8_12OutputOptionNtNtCseAiZU62iyN8_12clap_builder6derive14FromArgMatches20from_arg_matches_muts_0Bc_
FN:1581,_RNCNvXs1o_NtNtCsk6AfKij8NQT_8hayabusa10detections7configsNtB8_21ComputerMetricsOptionNtNtCseAiZU62iyN8_12clap_builder6derive14FromArgMatches27update_from_arg_matches_muts_0Bc_
FN:918,_RNCNvXsx_NtNtCsk6AfKij8NQT_8hayabusa10detections7configsNtB7_18DetectCommonOptionNtNtCseAiZU62iyN8_12clap_builder6derive14FromArgMatches20from_arg_matches_muts2_0Bb_
FN:1473,_RNCNvXs13_NtNtCsk6AfKij8NQT_8hayabusa10detections7configsNtB8_12OutputOptionNtNtCseAiZU62iyN8_12clap_builder6derive14FromArgMatches20from_arg_matches_mutsn_0Bc_
FN:1563,_RNvXs1p_NtNtCsk6AfKij8NQT_8hayabusa10detections7configsNtB6_21ComputerMetricsOptionNtNtCseAiZU62iyN8_12clap_builder6derive4Args23augment_args_for_update
FN:880,_RNvXsx_NtNtCsk6AfKij8NQT_8hayabusa10detections7configsNtB5_18DetectCommonOptionNtNtCseAiZU62iyN8_12clap_builder6derive14FromArgMatches27update_from_arg_matches_mut
FN:2486,_RNCNvNtNtCsk6AfKij8NQT_8hayabusa10detections7configs31create_control_chat_replace_map0B7_
FN:1358,_RNCNvXs13_NtNtCsk6AfKij8NQT_8hayabusa10detections7configsNtB8_12OutputOptionNtNtCseAiZU62iyN8_12clap_builder6derive14FromArgMatches20from_arg_matches_muts4_0Bc_
FN:1173,_RNvXsV_NtNtCsk6AfKij8NQT_8hayabusa10detections7configsNtB5_18PivotKeywordOptionNtNtCseAiZU62iyN8_12clap_builder6derive14FromArgMatches27update_from_arg_matches_mut
FN:1107,_RNvXsP_NtNtCsk6AfKij8NQT_8hayabusa10detections7configsNtB5_17LevelTuningOptionNtNtCsjwgglklCTGv_4core5clone5Clone5cloneB9_
FN:884,_RNCNvXsx_NtNtCsk6AfKij8NQT_8hayabusa10detections7configsNtB7_18DetectCommonOptionNtNtCseAiZU62iyN8_12clap_builder6derive14FromArgMatches27update_from_arg_matches_mut0Bb_
FN:1012,_RNCNvXsF_NtNtCsk6AfKij8NQT_8hayabusa10detections7configsNtB7_12SearchOptionNtNtCseAiZU62iyN8_12clap_builder6derive14FromArgMatches20from_arg_matches_muts2_0Bb_
FN:487,_RNCNvMs_NtNtCsk6AfKij8NQT_8hayabusa10detections7configsNtB6_12StoredStatic18create_static_datas7_0Ba_
FN:1150,_RNCNvXsR_NtNtCsk6AfKij8NQT_8hayabusa10detections7configsNtB7_16EidMetricsOptionNtNtCseAiZU62iyN8_12clap_builder6derive14FromArgMatches27update_from_arg_matches_muts0_0Bb_
FN:1173,_RNvXsX_NtNtCsk6AfKij8NQT_8hayabusa10detections7configsNtB5_18PivotKeywordOptionNtNtCsjwgglklCTGv_4core5clone5Clone5cloneB9_
FN:989,_RNCNvXsF_NtNtCsk6AfKij8NQT_8hayabusa10detections7configsNtB7_12SearchOptionNtNtCseAiZU62iyN8_12clap_builder6derive14FromArgMatches27update_from_arg_matches_muts0_0Bb_
FN:1244,_RNCNvXsV_NtNtCsk6AfKij8NQT_8hayabusa10detections7configsNtB7_18PivotKeywordOptionNtNtCseAiZU62iyN8_12clap_builder6derive14FromArgMatches27update_from_arg_matches_muts5_0Bb_
FN:1514,_RNvXs1g_NtNtCsk6AfKij8NQT_8hayabusa10detections7configsNtB6_15CsvOutputOptionNtNtCseAiZU62iyN8_12clap_builder6derive14FromArgMatches27update_from_arg_matches_mut
FN:560,_RNCNvMs_NtNtCsk6AfKij8NQT_8hayabusa10detections7configsNtB6_12StoredStatic18create_static_datasc_0Ba_
FN:1122,_RNCNvXsN_NtNtCsk6AfKij8NQT_8hayabusa10detections7configsNtB7_17LevelTuningOptionNtNtCseAiZU62iyN8_12clap_builder6derive14FromArgMatches27update_from_arg_matches_mut0Bb_
FN:2098,_RNvNtNtCsk6AfKij8NQT_8hayabusa10detections7configs22extract_output_options
FN:1170,_RNCNvXsR_NtNtCsk6AfKij8NQT_8hayabusa10detections7configsNtB7_16EidMetricsOptionNtNtCseAiZU62iyN8_12clap_builder6derive14FromArgMatches27update_from_arg_matches_muts5_0Bb_
FN:1283,_RNCNvXsZ_NtNtCsk6AfKij8NQT_8hayabusa10detections7configsNtB7_18LogonSummaryOptionNtNtCseAiZU62iyN8_12clap_builder6derive14FromArgMatches27update_from_arg_matches_muts1_0Bb_
FN:1448,_RNCNvXs13_NtNtCsk6AfKij8NQT_8hayabusa10detections7configsNtB8_12OutputOptionNtNtCseAiZU62iyN8_12clap_builder6derive14FromArgMatches20from_arg_matches_mutsj_0Bc_
FN:1563,_RNvXs1o_NtNtCsk6AfKij8NQT_8hayabusa10detections7configsNtB6_21ComputerMetricsOptionNtNtCseAiZU62iyN8_12clap_builder6derive14FromArgMatches20from_arg_matches_mut
FN:1698,_RNvXs1A_NtNtCsk6AfKij8NQT_8hayabusa10detections7configsNtB6_15TargetEventTimeNtNtCsjwgglklCTGv_4core3fmt5Debug3fmt
FN:880,_RNvXsy_NtNtCsk6AfKij8NQT_8hayabusa10detections7configsNtB5_18DetectCommonOptionNtNtCseAiZU62iyN8_12clap_builder6derive4Args12augment_args
FN:1659,_RNvXs2_NtNtCsk6AfKij8NQT_8hayabusa10detections7configsNtB5_9TargetIdsNtNtCsjwgglklCTGv_4core7default7Default7default
FN:1373,_RNCNvXs13_NtNtCsk6AfKij8NQT_8hayabusa10detections7configsNtB8_12OutputOptionNtNtCseAiZU62iyN8_12clap_builder6derive14FromArgMatches20from_arg_matches_muts5_0Bc_
FN:1251,_RNCNvXsV_NtNtCsk6AfKij8NQT_8hayabusa10detections7configsNtB7_18PivotKeywordOptionNtNtCseAiZU62iyN8_12clap_builder6derive14FromArgMatches20from_arg_matches_muts6_0Bb_
FN:1432,_RNCNvXs13_NtNtCsk6AfKij8NQT_8hayabusa10detections7configsNtB8_12OutputOptionNtNtCseAiZU62iyN8_12clap_builder6derive14FromArgMatches20from_arg_matches_mutsh_0Bc_
FN:167,_RNCNvMs_NtNtCsk6AfKij8NQT_8hayabusa10detections7configsNtB6_12StoredStatic18create_static_datas1_0Ba_
FN:2065,_RNvNtNtCsk6AfKij8NQT_8hayabusa10detections7configs22extract_search_options
FN:888,_RNCNvXsx_NtNtCsk6AfKij8NQT_8hayabusa10detections7configsNtB7_18DetectCommonOptionNtNtCseAiZU62iyN8_12clap_builder6derive14FromArgMatches20from_arg_matches_muts_0Bb_
FN:929,_RNvXsD_NtNtCsk6AfKij8NQT_8hayabusa10detections7configsNtB5_20DefaultProfileOptionNtNtCsjwgglklCTGv_4core5clone5Clone5cloneB9_
FN:1107,_RNvXsN_NtNtCsk6AfKij8NQT_8hayabusa10detections7configsNtB5_17LevelTuningOptionNtNtCseAiZU62iyN8_12clap_builder6derive14FromArgMatches23update_from_arg_matches
FN:1240,_RNCNvXsV_NtNtCsk6AfKij8NQT_8hayabusa10detections7configsNtB7_18PivotKeywordOptionNtNtCseAiZU62iyN8_12clap_builder6derive14FromArgMatches20from_arg_matches_muts4_0Bb_
FN:880,_RNvXsx_NtNtCsk6AfKij8NQT_8hayabusa10detections7configsNtB5_18DetectCommonOptionNtNtCseAiZU62iyN8_12clap_builder6derive14FromArgMatches20from_arg_matches_mut
FN:1373,_RNCNvXs13_NtNtCsk6AfKij8NQT_8hayabusa10detections7configsNtB8_12OutputOptionNtNtCseAiZU62iyN8_12clap_builder6derive14FromArgMatches27update_from_arg_matches_muts5_0Bc_
FN:1397,_RNCNvXs13_NtNtCsk6AfKij8NQT_8hayabusa10detections7configsNtB8_12OutputOptionNtNtCseAiZU62iyN8_12clap_builder6derive14FromArgMatches20from_arg_matches_muts9_0Bc_
FN:1389,_RNCNvXs13_NtNtCsk6AfKij8NQT_8hayabusa10detections7configsNtB8_12OutputOptionNtNtCseAiZU62iyN8_12clap_builder6derive14FromArgMatches27update_from_arg_matches_muts7_0Bc_
FN:1287,_RNCNvXsZ_NtNtCsk6AfKij8NQT_8hayabusa10detections7configsNtB7_18LogonSummaryOptionNtNtCseAiZU62iyN8_12clap_builder6derive14FromArgMatches20from_arg_matches_muts2_0Bb_
FN:999,_RNCNvXsF_NtNtCsk6AfKij8NQT_8hayabusa10detections7configsNtB7_12SearchOptionNtNtCseAiZU62iyN8_12clap_builder6derive14FromArgMatches27update_from_arg_matches_muts1_0Bb_
FN:1488,_RNCNvXs18_NtNtCsk6AfKij8NQT_8hayabusa10detections7configsNtB8_13CommonOptionsNtNtCseAiZU62iyN8_12clap_builder6derive14FromArgMatches27update_from_arg_matches_muts_0Bc_
FN:1491,_RNvXs1e_NtNtCsk6AfKij8NQT_8hayabusa10detections7configsNtB6_11InputOptionNtNtCsjwgglklCTGv_4core5clone5Clone5cloneBa_
FN:1514,_RNvXs1g_NtNtCsk6AfKij8NQT_8hayabusa10detections7configsNtB6_15CsvOutputOptionNtNtCseAiZU62iyN8_12clap_builder6derive14FromArgMatches23update_from_arg_matches
FN:1389,_RNCNvXs13_NtNtCsk6AfKij8NQT_8hayabusa10detections7configsNtB8_12OutputOptionNtNtCseAiZU62iyN8_12clap_builder6derive14FromArgMatches20from_arg_matches_muts7_0Bc_
FN:884,_RNCNvXsx_NtNtCsk6AfKij8NQT_8hayabusa10detections7configsNtB7_18DetectCommonOptionNtNtCseAiZU62iyN8_12clap_builder6derive14FromArgMatches20from_arg_matches_mut0Bb_
FN:1521,_RNCNvXs1g_NtNtCsk6AfKij8NQT_8hayabusa10detections7configsNtB8_15CsvOutputOptionNtNtCseAiZU62iyN8_12clap_builder6derive14FromArgMatches27update_from_arg_matches_mut0Bc_
FN:914,_RNCNvXsx_NtNtCsk6AfKij8NQT_8hayabusa10detections7configsNtB7_18DetectCommonOptionNtNtCseAiZU62iyN8_12clap_builder6derive14FromArgMatches27update_from_arg_matches_muts1_0Bb_
FN:1563,_RNvXs1o_NtNtCsk6AfKij8NQT_8hayabusa10detections7configsNtB6_21ComputerMetricsOptionNtNtCseAiZU62iyN8_12clap_builder6derive14FromArgMatches16from_arg_matches
FN:1607,_RNCNvXs1o_NtNtCsk6AfKij8NQT_8hayabusa10detections7configsNtB8_21ComputerMetricsOptionNtNtCseAiZU62iyN8_12clap_builder6derive14FromArgMatches20from_arg_matches_muts1_0Bc_
FN:1342,_RNCNvXs13_NtNtCsk6AfKij8NQT_8hayabusa10detections7configsNtB8_12OutputOptionNtNtCseAiZU62iyN8_12clap_builder6derive14FromArgMatches20from_arg_matches_muts2_0Bc_
FN:161,_RNCNvMs_NtNtCsk6AfKij8NQT_8hayabusa10detections7configsNtB6_12StoredStatic18create_static_datas0_0Ba_
FN:1311,_RNvXs13_NtNtCsk6AfKij8NQT_8hayabusa10detections7configsNtB6_12OutputOptionNtNtCseAiZU62iyN8_12clap_builder6derive14FromArgMatches16from_arg_matches
FN:1618,_RNvXs1t_NtNtCsk6AfKij8NQT_8hayabusa10detections7configsNtB6_6ConfigNtNtCseAiZU62iyN8_12clap_builder6derive14CommandFactory18command_for_update
FN:1089,_RNvXsK_NtNtCsk6AfKij8NQT_8hayabusa10detections7configsNtB5_12UpdateOptionNtNtCseAiZU62iyN8_12clap_builder6derive4Args8group_id
FN:1107,_RNvXsN_NtNtCsk6AfKij8NQT_8hayabusa10detections7configsNtB5_17LevelTuningOptionNtNtCseAiZU62iyN8_12clap_builder6derive14FromArgMatches20from_arg_matches_mut
FN:999,_RNCNvXsF_NtNtCsk6AfKij8NQT_8hayabusa10detections7configsNtB7_12SearchOptionNtNtCseAiZU62iyN8_12clap_builder6derive14FromArgMatches20from_arg_matches_muts1_0Bb_
FN:1107,_RNvXsO_NtNtCsk6AfKij8NQT_8hayabusa10detections7configsNtB5_17LevelTuningOptionNtNtCseAiZU62iyN8_12clap_builder6derive4Args8group_id
FN:1026,_RNCNvXsF_NtNtCsk6AfKij8NQT_8hayabusa10detections7configsNtB7_12SearchOptionNtNtCseAiZU62iyN8_12clap_builder6derive14FromArgMatches27update_from_arg_matches_muts3_0Bb_
FN:902,_RNCNvXsx_NtNtCsk6AfKij8NQT_8hayabusa10detections7configsNtB7_18DetectCommonOptionNtNtCseAiZU62iyN8_12clap_builder6derive14FromArgMatches20from_arg_matches_muts0_0Bb_
FN:1416,_RNCNvXs13_NtNtCsk6AfKij8NQT_8hayabusa10detections7configsNtB8_12OutputOptionNtNtCseAiZU62iyN8_12clap_builder6derive14FromArgMatches20from_arg_matches_mutsd_0Bc_
FN:1078,_RNCNvXsF_NtNtCsk6AfKij8NQT_8hayabusa10detections7configsNtB7_12SearchOptionNtNtCseAiZU62iyN8_12clap_builder6derive14FromArgMatches20from_arg_matches_mutse_0Bb_
FN:1464,_RNCNvXs13_NtNtCsk6AfKij8NQT_8hayabusa10detections7configsNtB8_12OutputOptionNtNtCseAiZU62iyN8_12clap_builder6derive14FromArgMatches27update_from_arg_matches_mutsm_0Bc_
FN:929,_RNvXsB_NtNtCsk6AfKij8NQT_8hayabusa10detections7configsNtB5_20DefaultProfileOptionNtNtCseAiZU62iyN8_12clap_builder6derive14FromArgMatches20from_arg_matches_mut
FN:1491,_RNvXs1c_NtNtCsk6AfKij8NQT_8hayabusa10detections7configsNtB6_11InputOptionNtNtCseAiZU62iyN8_12clap_builder6derive14FromArgMatches20from_arg_matches_mut
FN:2447,_RNvMsa_NtNtCsk6AfKij8NQT_8hayabusa10detections7configsNtB5_15EventInfoConfig12get_event_id
FN:1042,_RNCNvXsF_NtNtCsk6AfKij8NQT_8hayabusa10detections7configsNtB7_12SearchOptionNtNtCseAiZU62iyN8_12clap_builder6derive14FromArgMatches20from_arg_matches_muts5_0Bb_
FN:1595,_RNCNvXs1o_NtNtCsk6AfKij8NQT_8hayabusa10detections7configsNtB8_21ComputerMetricsOptionNtNtCseAiZU62iyN8_12clap_builder6derive14FromArgMatches20from_arg_matches_muts0_0Bc_
FN:1054,_RNCNvXsF_NtNtCsk6AfKij8NQT_8hayabusa10detections7configsNtB7_12SearchOptionNtNtCseAiZU62iyN8_12clap_builder6derive14FromArgMatches27update_from_arg_matches_muts8_0Bb_
FN:1196,_RNCNvXsV_NtNtCsk6AfKij8NQT_8hayabusa10detections7configsNtB7_18PivotKeywordOptionNtNtCseAiZU62iyN8_12clap_builder6derive14FromArgMatches20from_arg_matches_muts0_0Bb_
FN:1275,_RNCNvXsZ_NtNtCsk6AfKij8NQT_8hayabusa10detections7configsNtB7_18LogonSummaryOptionNtNtCseAiZU62iyN8_12clap_builder6derive14FromArgMatches27update_from_arg_matches_muts_0Bb_
FN:1146,_RNCNvXsR_NtNtCsk6AfKij8NQT_8hayabusa10detections7configsNtB7_16EidMetricsOptionNtNtCseAiZU62iyN8_12clap_builder6derive14FromArgMatches20from_arg_matches_muts_0Bb_
FN:1927,_RNvMs4_NtNtCsk6AfKij8NQT_8hayabusa10detections7configsNtB5_15TargetEventTime16is_parse_success
FN:1188,_RNCNvXsV_NtNtCsk6AfKij8NQT_8hayabusa10detections7configsNtB7_18PivotKeywordOptionNtNtCseAiZU62iyN8_12clap_builder6derive14FromArgMatches27update_from_arg_matches_mut0Bb_
FN:929,_RNvXsB_NtNtCsk6AfKij8NQT_8hayabusa10detections7configsNtB5_20DefaultProfileOptionNtNtCseAiZU62iyN8_12clap_builder6derive14FromArgMatches16from_arg_matches
FN:2419,_RNvXs7_NtNtCsk6AfKij8NQT_8hayabusa10detections7configsNtB5_9EventInfoNtNtCsjwgglklCTGv_4core7default7Default7default
FN:2442,_RNvMsa_NtNtCsk6AfKij8NQT_8hayabusa10detections7configsNtB5_15EventInfoConfig3new
FN:1326,_RNCNvXs13_NtNtCsk6AfKij8NQT_8hayabusa10detections7configsNtB8_12OutputOptionNtNtCseAiZU62iyN8_12clap_builder6derive14FromArgMatches27update_from_arg_matches_mut0Bc_
FN:1311,_RNvXs15_NtNtCsk6AfKij8NQT_8hayabusa10detections7configsNtB6_12OutputOptionNtNtCsjwgglklCTGv_4core5clone5Clone5cloneBa_
FN:1491,_RNvXs1c_NtNtCsk6AfKij8NQT_8hayabusa10detections7configsNtB6_11InputOptionNtNtCseAiZU62iyN8_12clap_builder6derive14FromArgMatches16from_arg_matches
FN:1709,_RNCNvMs4_NtNtCsk6AfKij8NQT_8hayabusa10detections7configsNtB7_15TargetEventTime3new0Bb_
FN:1618,_RNvXs1u_NtNtCsk6AfKij8NQT_8hayabusa10detections7configsNtB6_6ConfigNtNtCseAiZU62iyN8_12clap_builder6derive14FromArgMatches16from_arg_matches
FN:1089,_RNvXsK_NtNtCsk6AfKij8NQT_8hayabusa10detections7configsNtB5_12UpdateOptionNtNtCseAiZU62iyN8_12clap_builder6derive4Args23augment_args_for_update
FN:1915,_RNvMs4_NtNtCsk6AfKij8NQT_8hayabusa10detections7configsNtB5_15TargetEventTime3set
FN:1967,_RNvMs5_NtNtCsk6AfKij8NQT_8hayabusa10detections7configsNtB5_19EventKeyAliasConfig19get_event_key_split
FN:1236,_RNCNvXsV_NtNtCsk6AfKij8NQT_8hayabusa10detections7configsNtB7_18PivotKeywordOptionNtNtCseAiZU62iyN8_12clap_builder6derive14FromArgMatches27update_from_arg_matches_muts3_0Bb_
FN:929,_RNvXsC_NtNtCsk6AfKij8NQT_8hayabusa10detections7configsNtB5_20DefaultProfileOptionNtNtCseAiZU62iyN8_12clap_builder6derive4Args8group_id
FN:1491,_RNvXs1c_NtNtCsk6AfKij8NQT_8hayabusa10detections7configsNtB6_11InputOptionNtNtCseAiZU62iyN8_12clap_builder6derive14FromArgMatches27update_from_arg_matches_mut
FN:1287,_RNCNvXsZ_NtNtCsk6AfKij8NQT_8hayabusa10detections7configsNtB7_18LogonSummaryOptionNtNtCseAiZU62iyN8_12clap_builder6derive14FromArgMatches27update_from_arg_matches_muts2_0Bb_
FN:1342,_RNCNvXs13_NtNtCsk6AfKij8NQT_8hayabusa10detections7configsNtB8_12OutputOptionNtNtCseAiZU62iyN8_12clap_builder6derive14FromArgMatches27update_from_arg_matches_muts2_0Bc_
FN:191,_RNCNvMs_NtNtCsk6AfKij8NQT_8hayabusa10detections7configsNtB6_12StoredStatic18create_static_datas3_0Ba_
FN:546,_RNCNvMs_NtNtCsk6AfKij8NQT_8hayabusa10detections7configsNtB6_12StoredStatic18create_static_datasb_0Ba_
FN:1089,_RNvXsJ_NtNtCsk6AfKij8NQT_8hayabusa10detections7configsNtB5_12UpdateOptionNtNtCseAiZU62iyN8_12clap_builder6derive14FromArgMatches27update_from_arg_matches_mut
FN:1166,_RNCNvXsR_NtNtCsk6AfKij8NQT_8hayabusa10detections7configsNtB7_16EidMetricsOptionNtNtCseAiZU62iyN8_12clap_builder6derive14FromArgMatches27update_from_arg_matches_muts4_0Bb_
FN:1279,_RNCNvXsZ_NtNtCsk6AfKij8NQT_8hayabusa10detections7configsNtB7_18LogonSummaryOptionNtNtCseAiZU62iyN8_12clap_builder6derive14FromArgMatches27update_from_arg_matches_muts0_0Bb_
FN:1107,_RNvXsN_NtNtCsk6AfKij8NQT_8hayabusa10detections7configsNtB5_17LevelTuningOptionNtNtCseAiZU62iyN8_12clap_builder6derive14FromArgMatches27update_from_arg_matches_mut
FN:1765,_RNCNCNvMs4_NtNtCsk6AfKij8NQT_8hayabusa10detections7configsNtB9_15TargetEventTime3news_0s_0Bd_
FN:1581,_RNCNvXs1o_NtNtCsk6AfKij8NQT_8hayabusa10detections7configsNtB8_21ComputerMetricsOptionNtNtCseAiZU62iyN8_12clap_builder6derive14FromArgMatches20from_arg_matches_muts_0Bc_
FN:1618,_RNvXs1u_NtNtCsk6AfKij8NQT_8hayabusa10detections7configsNtB6_6ConfigNtNtCseAiZU62iyN8_12clap_builder6derive14FromArgMatches27update_from_arg_matches_mut
FN:1038,_RNCNvXsF_NtNtCsk6AfKij8NQT_8hayabusa10detections7configsNtB7_12SearchOptionNtNtCseAiZU62iyN8_12clap_builder6derive14FromArgMatches27update_from_arg_matches_muts4_0Bb_
FN:1254,_RNvXs12_NtNtCsk6AfKij8NQT_8hayabusa10detections7configsNtB6_18LogonSummaryOptionNtNtCsjwgglklCTGv_4core3fmt5Debug3fmt
FN:1401,_RNCNvXs13_NtNtCsk6AfKij8NQT_8hayabusa10detections7configsNtB8_12OutputOptionNtNtCseAiZU62iyN8_12clap_builder6derive14FromArgMatches20from_arg_matches_mutsa_0Bc_
FN:914,_RNCNvXsx_NtNtCsk6AfKij8NQT_8hayabusa10detections7configsNtB7_18DetectCommonOptionNtNtCseAiZU62iyN8_12clap_builder6derive14FromArgMatches20from_arg_matches_muts1_0Bb_
FN:1012,_RNCNvXsF_NtNtCsk6AfKij8NQT_8hayabusa10detections7configsNtB7_12SearchOptionNtNtCseAiZU62iyN8_12clap_builder6derive14FromArgMatches27update_from_arg_matches_muts2_0Bb_
FN:1615,_RNCNvXs1o_NtNtCsk6AfKij8NQT_8hayabusa10detections7configsNtB8_21ComputerMetricsOptionNtNtCseAiZU62iyN8_12clap_builder6derive14FromArgMatches20from_arg_matches_muts3_0Bc_
FN:1311,_RNvXs13_NtNtCsk6AfKij8NQT_8hayabusa10detections7configsNtB6_12OutputOptionNtNtCseAiZU62iyN8_12clap_builder6derive14FromArgMatches23update_from_arg_matches
FN:1484,_RNCNvXs18_NtNtCsk6AfKij8NQT_8hayabusa10detections7configsNtB8_13CommonOptionsNtNtCseAiZU62iyN8_12clap_builder6derive14FromArgMatches27update_from_arg_matches_mut0Bc_
FN:1279,_RNCNvXsZ_NtNtCsk6AfKij8NQT_8hayabusa10detections7configsNtB7_18LogonSummaryOptionNtNtCseAiZU62iyN8_12clap_builder6derive14FromArgMatches20from_arg_matches_muts0_0Bb_
FN:1254,_RNvXs10_NtNtCsk6AfKij8NQT_8hayabusa10detections7configsNtB6_18LogonSummaryOptionNtNtCseAiZU62iyN8_12clap_builder6derive4Args12augment_args
FN:1503,_RNCNvXs1c_NtNtCsk6AfKij8NQT_8hayabusa10detections7configsNtB8_11InputOptionNtNtCseAiZU62iyN8_12clap_builder6derive14FromArgMatches20from_arg_matches_mut0Bc_
FN:1311,_RNvXs14_NtNtCsk6AfKij8NQT_8hayabusa10detections7configsNtB6_12OutputOptionNtNtCseAiZU62iyN8_12clap_builder6derive4Args8group_id
FN:1385,_RNCNvXs13_NtNtCsk6AfKij8NQT_8hayabusa10detections7configsNtB8_12OutputOptionNtNtCseAiZU62iyN8_12clap_builder6derive14FromArgMatches27update_from_arg_matches_muts6_0Bc_
FN:1158,_RNCNvXsR_NtNtCsk6AfKij8NQT_8hayabusa10detections7configsNtB7_16EidMetricsOptionNtNtCseAiZU62iyN8_12clap_builder6derive14FromArgMatches20from_arg_matches_muts2_0Bb_
FN:1082,_RNCNvXsF_NtNtCsk6AfKij8NQT_8hayabusa10detections7configsNtB7_12SearchOptionNtNtCseAiZU62iyN8_12clap_builder6derive14FromArgMatches20from_arg_matches_mutsf_0Bb_
FN:1539,_RNvXs1k_NtNtCsk6AfKij8NQT_8hayabusa10detections7configsNtB6_16JSONOutputOptionNtNtCseAiZU62iyN8_12clap_builder6derive14FromArgMatches16from_arg_matches
FN:1956,_RNvMs5_NtNtCsk6AfKij8NQT_8hayabusa10detections7configsNtB5_19EventKeyAliasConfig3new
FN:726,_RNvXsv_NtNtCsk6AfKij8NQT_8hayabusa10detections7configsNtB5_6ActionNtNtCsjwgglklCTGv_4core5clone5Clone5cloneB9_
FN:1046,_RNCNvXsF_NtNtCsk6AfKij8NQT_8hayabusa10detections7configsNtB7_12SearchOptionNtNtCseAiZU62iyN8_12clap_builder6derive14FromArgMatches27update_from_arg_matches_muts6_0Bb_
FN:1192,_RNCNvXsV_NtNtCsk6AfKij8NQT_8hayabusa10detections7configsNtB7_18PivotKeywordOptionNtNtCseAiZU62iyN8_12clap_builder6derive14FromArgMatches27update_from_arg_matches_muts_0Bb_
FN:922,_RNCNvXsx_NtNtCsk6AfKij8NQT_8hayabusa10detections7configsNtB7_18DetectCommonOptionNtNtCseAiZU62iyN8_12clap_builder6derive14FromArgMatches20from_arg_matches_muts3_0Bb_
FN:1074,_RNCNvXsF_NtNtCsk6AfKij8NQT_8hayabusa10detections7configsNtB7_12SearchOptionNtNtCseAiZU62iyN8_12clap_builder6derive14FromArgMatches20from_arg_matches_mutsd_0Bb_
FN:1299,_RNCNvXsZ_NtNtCsk6AfKij8NQT_8hayabusa10detections7configsNtB7_18LogonSummaryOptionNtNtCseAiZU62iyN8_12clap_builder6derive14FromArgMatches20from_arg_matches_muts5_0Bb_
FN:1334,_RNCNvXs13_NtNtCsk6AfKij8NQT_8hayabusa10detections7configsNtB8_12OutputOptionNtNtCseAiZU62iyN8_12clap_builder6derive14FromArgMatches20from_arg_matches_muts0_0Bc_
FN:859,_RNvMs0_NtNtCsk6AfKij8NQT_8hayabusa10detections7configsNtB5_6Action15get_action_name
FN:1665,_RNvMs3_NtNtCsk6AfKij8NQT_8hayabusa10detections7configsNtB5_9TargetIds3new
FN:1460,_RNCNvXs13_NtNtCsk6AfKij8NQT_8hayabusa10detections7configsNtB8_12OutputOptionNtNtCseAiZU62iyN8_12clap_builder6derive14FromArgMatches27update_from_arg_matches_mutsl_0Bc_
FN:1480,_RNvXs19_NtNtCsk6AfKij8NQT_8hayabusa10detections7configsNtB6_13CommonOptionsNtNtCseAiZU62iyN8_12clap_builder6derive4Args23augment_args_for_update
FN:1491,_RNvXs1d_NtNtCsk6AfKij8NQT_8hayabusa10detections7configsNtB6_11InputOptionNtNtCseAiZU62iyN8_12clap_builder6derive4Args8group_id
FN:1978,_RNvNtNtCsk6AfKij8NQT_8hayabusa10detections7configs19load_eventkey_alias
FN:1514,_RNvXs1j_NtNtCsk6AfKij8NQT_8hayabusa10detections7configsNtB6_15CsvOutputOptionNtNtCsjwgglklCTGv_4core3fmt5Debug3fmt
FN:1408,_RNCNvXs13_NtNtCsk6AfKij8NQT_8hayabusa10detections7configsNtB8_12OutputOptionNtNtCseAiZU62iyN8_12clap_builder6derive14FromArgMatches20from_arg_matches_mutsb_0Bc_
FN:294,_RNCNvMs_NtNtCsk6AfKij8NQT_8hayabusa10detections7configsNtB6_12StoredStatic18create_static_datas5_0Ba_
FN:939,_RNvXsH_NtNtCsk6AfKij8NQT_8hayabusa10detections7configsNtB5_12SearchOptionNtNtCsjwgglklCTGv_4core5clone5Clone5cloneB9_
FN:1209,_RNCNvXsV_NtNtCsk6AfKij8NQT_8hayabusa10detections7configsNtB7_18PivotKeywordOptionNtNtCseAiZU62iyN8_12clap_builder6derive14FromArgMatches27update_from_arg_matches_muts1_0Bb_
FN:1611,_RNCNvXs1o_NtNtCsk6AfKij8NQT_8hayabusa10detections7configsNtB8_21ComputerMetricsOptionNtNtCseAiZU62iyN8_12clap_builder6derive14FromArgMatches27update_from_arg_matches_muts2_0Bc_
FN:1631,_RNCNvXs1u_NtNtCsk6AfKij8NQT_8hayabusa10detections7configsNtB8_6ConfigNtNtCseAiZU62iyN8_12clap_builder6derive14FromArgMatches20from_arg_matches_mut0Bc_
FN:1949,_RNvXs1C_NtNtCsk6AfKij8NQT_8hayabusa10detections7configsNtB6_19EventKeyAliasConfigNtNtCsjwgglklCTGv_4core3fmt5Debug3fmt
FN:1706,_RNvMs4_NtNtCsk6AfKij8NQT_8hayabusa10detections7configsNtB5_15TargetEventTime3new
FN:956,_RNCNvXsF_NtNtCsk6AfKij8NQT_8hayabusa10detections7configsNtB7_12SearchOptionNtNtCseAiZU62iyN8_12clap_builder6derive14FromArgMatches27update_from_arg_matches_mut0Bb_
FN:880,_RNvXsA_NtNtCsk6AfKij8NQT_8hayabusa10detections7configsNtB5_18DetectCommonOptionNtNtCsjwgglklCTGv_4core3fmt5Debug3fmt
FN:1973,_RNvXs6_NtNtCsk6AfKij8NQT_8hayabusa10detections7configsNtB5_19EventKeyAliasConfigNtNtCsjwgglklCTGv_4core7default7Default7default
FN:939,_RNvXsG_NtNtCsk6AfKij8NQT_8hayabusa10detections7configsNtB5_12SearchOptionNtNtCseAiZU62iyN8_12clap_builder6derive4Args8group_id
FN:1188,_RNCNvXsV_NtNtCsk6AfKij8NQT_8hayabusa10detections7configsNtB7_18PivotKeywordOptionNtNtCseAiZU62iyN8_12clap_builder6derive14FromArgMatches20from_arg_matches_mut0Bb_
FN:1173,_RNvXsV_NtNtCsk6AfKij8NQT_8hayabusa10detections7configsNtB5_18PivotKeywordOptionNtNtCseAiZU62iyN8_12clap_builder6derive14FromArgMatches23update_from_arg_matches
FN:1988,_RNCNvNtNtCsk6AfKij8NQT_8hayabusa10detections7configs19load_eventkey_alias0B7_
FN:1050,_RNCNvXsF_NtNtCsk6AfKij8NQT_8hayabusa10detections7configsNtB7_12SearchOptionNtNtCseAiZU62iyN8_12clap_builder6derive14FromArgMatches27update_from_arg_matches_muts7_0Bb_
FN:1338,_RNCNvXs13_NtNtCsk6AfKij8NQT_8hayabusa10detections7configsNtB8_12OutputOptionNtNtCseAiZU62iyN8_12clap_builder6derive14FromArgMatches27update_from_arg_matches_muts1_0Bc_
FN:1125,_RNvXsS_NtNtCsk6AfKij8NQT_8hayabusa10detections7configsNtB5_16EidMetricsOptionNtNtCseAiZU62iyN8_12clap_builder6derive4Args12augment_args
FN:1142,_RNCNvXsR_NtNtCsk6AfKij8NQT_8hayabusa10detections7configsNtB7_16EidMetricsOptionNtNtCseAiZU62iyN8_12clap_builder6derive14FromArgMatches20from_arg_matches_mut0Bb_
FN:1338,_RNCNvXs13_NtNtCsk6AfKij8NQT_8hayabusa10detections7configsNtB8_12OutputOptionNtNtCseAiZU62iyN8_12clap_builder6derive14FromArgMatches20from_arg_matches_muts1_0Bc_
FN:1477,_RNCNvXs13_NtNtCsk6AfKij8NQT_8hayabusa10detections7configsNtB8_12OutputOptionNtNtCseAiZU62iyN8_12clap_builder6derive14FromArgMatches27update_from_arg_matches_mutso_0Bc_
FN:1539,_RNvXs1k_NtNtCsk6AfKij8NQT_8hayabusa10detections7configsNtB6_16JSONOutputOptionNtNtCseAiZU62iyN8_12clap_builder6derive14FromArgMatches27update_from_arg_matches_mut
FN:1563,_RNvXs1r_NtNtCsk6AfKij8NQT_8hayabusa10detections7configsNtB6_21ComputerMetricsOptionNtNtCsjwgglklCTGv_4core3fmt5Debug3fmt
FN:1618,_RNvXs1v_NtNtCsk6AfKij8NQT_8hayabusa10detections7configsNtB6_6ConfigNtNtCseAiZU62iyN8_12clap_builder6derive4Args8group_id
FN:1432,_RNCNvXs13_NtNtCsk6AfKij8NQT_8hayabusa10detections7configsNtB8_12OutputOptionNtNtCseAiZU62iyN8_12clap_builder6derive14FromArgMatches27update_from_arg_matches_mutsh_0Bc_
FN:1058,_RNCNvXsF_NtNtCsk6AfKij8NQT_8hayabusa10detections7configsNtB7_12SearchOptionNtNtCseAiZU62iyN8_12clap_builder6derive14FromArgMatches20from_arg_matches_muts9_0Bb_
FN:1162,_RNCNvXsR_NtNtCsk6AfKij8NQT_8hayabusa10detections7configsNtB7_16EidMetricsOptionNtNtCseAiZU62iyN8_12clap_builder6derive14FromArgMatches27update_from_arg_matches_muts3_0Bb_
FN:1283,_RNCNvXsZ_NtNtCsk6AfKij8NQT_8hayabusa10detections7configsNtB7_18LogonSummaryOptionNtNtCseAiZU62iyN8_12clap_builder6derive14FromArgMatches20from_arg_matches_muts1_0Bb_
FN:1291,_RNCNvXsZ_NtNtCsk6AfKij8NQT_8hayabusa10detections7configsNtB7_18LogonSummaryOptionNtNtCseAiZU62iyN8_12clap_builder6derive14FromArgMatches27update_from_arg_matches_muts3_0Bb_
FN:1070,_RNCNvXsF_NtNtCsk6AfKij8NQT_8hayabusa10detections7configsNtB7_12SearchOptionNtNtCseAiZU62iyN8_12clap_builder6derive14FromArgMatches27update_from_arg_matches_mutsc_0Bb_
FN:1125,_RNvXsS_NtNtCsk6AfKij8NQT_8hayabusa10detections7configsNtB5_16EidMetricsOptionNtNtCseAiZU62iyN8_12clap_builder6derive4Args8group_id
FN:1346,_RNCNvXs13_NtNtCsk6AfKij8NQT_8hayabusa10detections7configsNtB8_12OutputOptionNtNtCseAiZU62iyN8_12clap_builder6derive14FromArgMatches27update_from_arg_matches_muts3_0Bc_
FN:888,_RNCNvXsx_NtNtCsk6AfKij8NQT_8hayabusa10detections7configsNtB7_18DetectCommonOptionNtNtCseAiZU62iyN8_12clap_builder6derive14FromArgMatches27update_from_arg_matches_muts_0Bb_
FN:1224,_RNCNvXsV_NtNtCsk6AfKij8NQT_8hayabusa10detections7configsNtB7_18PivotKeywordOptionNtNtCseAiZU62iyN8_12clap_builder6derive14FromArgMatches27update_from_arg_matches_muts2_0Bb_
FN:1104,_RNCNvXsJ_NtNtCsk6AfKij8NQT_8hayabusa10detections7configsNtB7_12UpdateOptionNtNtCseAiZU62iyN8_12clap_builder6derive14FromArgMatches20from_arg_matches_mut0Bb_
FN:155,_RNCNvMs_NtNtCsk6AfKij8NQT_8hayabusa10detections7configsNtB6_12StoredStatic18create_static_data0Ba_
FN:1122,_RNCNvXsN_NtNtCsk6AfKij8NQT_8hayabusa10detections7configsNtB7_17LevelTuningOptionNtNtCseAiZU62iyN8_12clap_builder6derive14FromArgMatches20from_arg_matches_mut0Bb_
FN:1104,_RNCNvXsJ_NtNtCsk6AfKij8NQT_8hayabusa10detections7configsNtB7_12UpdateOptionNtNtCseAiZU62iyN8_12clap_builder6derive14FromArgMatches27update_from_arg_matches_mut0Bb_
FN:880,_RNvXsy_NtNtCsk6AfKij8NQT_8hayabusa10detections7configsNtB5_18DetectCommonOptionNtNtCseAiZU62iyN8_12clap_builder6derive4Args8group_id
FN:2005,_RNCNCNvNtNtCsk6AfKij8NQT_8hayabusa10detections7configs19load_eventkey_alias00B9_
FN:726,_RNvXst_NtNtCsk6AfKij8NQT_8hayabusa10detections7configsNtB5_6ActionNtNtCseAiZU62iyN8_12clap_builder6derive14FromArgMatches23update_from_arg_matches
FN:977,_RNCNvXsF_NtNtCsk6AfKij8NQT_8hayabusa10detections7configsNtB7_12SearchOptionNtNtCseAiZU62iyN8_12clap_builder6derive14FromArgMatches20from_arg_matches_muts_0Bb_
FN:1078,_RNCNvXsF_NtNtCsk6AfKij8NQT_8hayabusa10detections7configsNtB7_12SearchOptionNtNtCseAiZU62iyN8_12clap_builder6derive14FromArgMatches27update_from_arg_matches_mutse_0Bb_
FN:1464,_RNCNvXs13_NtNtCsk6AfKij8NQT_8hayabusa10detections7configsNtB8_12OutputOptionNtNtCseAiZU62iyN8_12clap_builder6derive14FromArgMatches20from_arg_matches_mutsm_0Bc_
FN:1254,_RNvXsZ_NtNtCsk6AfKij8NQT_8hayabusa10detections7configsNtB5_18LogonSummaryOptionNtNtCseAiZU62iyN8_12clap_builder6derive14FromArgMatches27update_from_arg_matches_mut
FN:1236,_RNCNvXsV_NtNtCsk6AfKij8NQT_8hayabusa10detections7configsNtB7_18PivotKeywordOptionNtNtCseAiZU62iyN8_12clap_builder6derive14FromArgMatches20from_arg_matches_muts3_0Bb_
FN:880,_RNvXsx_NtNtCsk6AfKij8NQT_8hayabusa10detections7configsNtB5_18DetectCommonOptionNtNtCseAiZU62iyN8_12clap_builder6derive14FromArgMatches16from_arg_matches
FN:1480,_RNvXs1a_NtNtCsk6AfKij8NQT_8hayabusa10detections7configsNtB6_13CommonOptionsNtNtCsjwgglklCTGv_4core5clone5Clone5cloneBa_
FN:939,_RNvXsF_NtNtCsk6AfKij8NQT_8hayabusa10detections7configsNtB5_12SearchOptionNtNtCseAiZU62iyN8_12clap_builder6derive14FromArgMatches27update_from_arg_matches_mut
FN:1514,_RNvXs1h_NtNtCsk6AfKij8NQT_8hayabusa10detections7configsNtB6_15CsvOutputOptionNtNtCseAiZU62iyN8_12clap_builder6derive4Args8group_id
FN:1514,_RNvXs1h_NtNtCsk6AfKij8NQT_8hayabusa10detections7configsNtB6_15CsvOutputOptionNtNtCseAiZU62iyN8_12clap_builder6derive4Args12augment_args
FN:52,_RNvXsr_NtNtCsk6AfKij8NQT_8hayabusa10detections7configsNtB5_12StoredStaticNtNtCsjwgglklCTGv_4core3fmt5Debug3fmt
FN:726,_RNvXst_NtNtCsk6AfKij8NQT_8hayabusa10detections7configsNtB5_6ActionNtNtCseAiZU62iyN8_12clap_builder6derive14FromArgMatches20from_arg_matches_mut
FN:611,_RNCNvMs_NtNtCsk6AfKij8NQT_8hayabusa10detections7configsNtB6_12StoredStatic18create_static_datasf_0Ba_
FN:1680,_RNvNtNtCsk6AfKij8NQT_8hayabusa10detections7configs15load_target_ids
FN:1244,_RNCNvXsV_NtNtCsk6AfKij8NQT_8hayabusa10detections7configsNtB7_18PivotKeywordOptionNtNtCseAiZU62iyN8_12clap_builder6derive14FromArgMatches20from_arg_matches_muts5_0Bb_
FN:1295,_RNCNvXsZ_NtNtCsk6AfKij8NQT_8hayabusa10detections7configsNtB7_18LogonSummaryOptionNtNtCseAiZU62iyN8_12clap_builder6derive14FromArgMatches27update_from_arg_matches_muts4_0Bb_
FN:319,_RNCNvMs_NtNtCsk6AfKij8NQT_8hayabusa10detections7configsNtB6_12StoredStatic18create_static_datas6_0Ba_
FN:1125,_RNvXsR_NtNtCsk6AfKij8NQT_8hayabusa10detections7configsNtB5_16EidMetricsOptionNtNtCseAiZU62iyN8_12clap_builder6derive14FromArgMatches20from_arg_matches_mut
FN:1146,_RNCNvXsR_NtNtCsk6AfKij8NQT_8hayabusa10detections7configsNtB7_16EidMetricsOptionNtNtCseAiZU62iyN8_12clap_builder6derive14FromArgMatches27update_from_arg_matches_muts_0Bb_
FN:939,_RNvXsI_NtNtCsk6AfKij8NQT_8hayabusa10detections7configsNtB5_12SearchOptionNtNtCsjwgglklCTGv_4core3fmt5Debug3fmt
FN:1412,_RNCNvXs13_NtNtCsk6AfKij8NQT_8hayabusa10detections7configsNtB8_12OutputOptionNtNtCseAiZU62iyN8_12clap_builder6derive14FromArgMatches20from_arg_matches_mutsc_0Bc_
FN:939,_RNvXsF_NtNtCsk6AfKij8NQT_8hayabusa10detections7configsNtB5_12SearchOptionNtNtCseAiZU62iyN8_12clap_builder6derive14FromArgMatches23update_from_arg_matches
FN:657,_RNvMs_NtNtCsk6AfKij8NQT_8hayabusa10detections7configsNtB4_12StoredStatic19get_default_details
FN:880,_RNvXsy_NtNtCsk6AfKij8NQT_8hayabusa10detections7configsNtB5_18DetectCommonOptionNtNtCseAiZU62iyN8_12clap_builder6derive4Args23augment_args_for_update
FN:1539,_RNvXs1k_NtNtCsk6AfKij8NQT_8hayabusa10detections7configsNtB6_16JSONOutputOptionNtNtCseAiZU62iyN8_12clap_builder6derive14FromArgMatches20from_arg_matches_mut
FN:1711,_RNCNCNvMs4_NtNtCsk6AfKij8NQT_8hayabusa10detections7configsNtB9_15TargetEventTime3new00Bd_
FN:1550,_RNCNvXs1k_NtNtCsk6AfKij8NQT_8hayabusa10detections7configsNtB8_16JSONOutputOptionNtNtCseAiZU62iyN8_12clap_builder6derive14FromArgMatches20from_arg_matches_mut0Bc_
FN:1107,_RNvXsN_NtNtCsk6AfKij8NQT_8hayabusa10detections7configsNtB5_17LevelTuningOptionNtNtCseAiZU62iyN8_12clap_builder6derive14FromArgMatches16from_arg_matches
FN:989,_RNCNvXsF_NtNtCsk6AfKij8NQT_8hayabusa10detections7configsNtB7_12SearchOptionNtNtCseAiZU62iyN8_12clap_builder6derive14FromArgMatches20from_arg_matches_muts0_0Bb_
FN:1254,_RNvXsZ_NtNtCsk6AfKij8NQT_8hayabusa10detections7configsNtB5_18LogonSummaryOptionNtNtCseAiZU62iyN8_12clap_builder6derive14FromArgMatches23update_from_arg_matches
FN:1070,_RNCNvXsF_NtNtCsk6AfKij8NQT_8hayabusa10detections7configsNtB7_12SearchOptionNtNtCseAiZU62iyN8_12clap_builder6derive14FromArgMatches20from_arg_matches_mutsc_0Bb_
FN:1125,_RNvXsR_NtNtCsk6AfKij8NQT_8hayabusa10detections7configsNtB5_16EidMetricsOptionNtNtCseAiZU62iyN8_12clap_builder6derive14FromArgMatches16from_arg_matches
FN:1295,_RNCNvXsZ_NtNtCsk6AfKij8NQT_8hayabusa10detections7configsNtB7_18LogonSummaryOptionNtNtCseAiZU62iyN8_12clap_builder6derive14FromArgMatches20from_arg_matches_muts4_0Bb_
FN:1503,_RNCNvXs1c_NtNtCsk6AfKij8NQT_8hayabusa10detections7configsNtB8_11InputOptionNtNtCseAiZU62iyN8_12clap_builder6derive14FromArgMatches27update_from_arg_matches_mut0Bc_
FN:1563,_RNvXs1o_NtNtCsk6AfKij8NQT_8hayabusa10detections7configsNtB6_21ComputerMetricsOptionNtNtCseAiZU62iyN8_12clap_builder6derive14FromArgMatches27update_from_arg_matches_mut
FN:1618,_RNvXs1x_NtNtCsk6AfKij8NQT_8hayabusa10detections7configsNtB6_6ConfigNtNtCsjwgglklCTGv_4core3fmt5Debug3fmt
FN:2413,_RNvXs1F_NtNtCsk6AfKij8NQT_8hayabusa10detections7configsNtB6_9EventInfoNtNtCsjwgglklCTGv_4core5clone5Clone5cloneBa_
FN:1436,_RNCNvXs13_NtNtCsk6AfKij8NQT_8hayabusa10detections7configsNtB8_12OutputOptionNtNtCseAiZU62iyN8_12clap_builder6derive14FromArgMatches20from_arg_matches_mutsi_0Bc_
FN:541,_RNCNvMs_NtNtCsk6AfKij8NQT_8hayabusa10detections7configsNtB6_12StoredStatic18create_static_datas9_0Ba_
FN:1062,_RNCNvXsF_NtNtCsk6AfKij8NQT_8hayabusa10detections7configsNtB7_12SearchOptionNtNtCseAiZU62iyN8_12clap_builder6derive14FromArgMatches27update_from_arg_matches_mutsa_0Bb_
FN:1173,_RNvXsV_NtNtCsk6AfKij8NQT_8hayabusa10detections7configsNtB5_18PivotKeywordOptionNtNtCseAiZU62iyN8_12clap_builder6derive14FromArgMatches16from_arg_matches
FN:1416,_RNCNvXs13_NtNtCsk6AfKij8NQT_8hayabusa10detections7configsNtB8_12OutputOptionNtNtCseAiZU62iyN8_12clap_builder6derive14FromArgMatches27update_from_arg_matches_mutsd_0Bc_
FN:1107,_RNvXsO_NtNtCsk6AfKij8NQT_8hayabusa10detections7configsNtB5_17LevelTuningOptionNtNtCseAiZU62iyN8_12clap_builder6derive4Args23augment_args_for_update
FN:1769,_RNCNCNvMs4_NtNtCsk6AfKij8NQT_8hayabusa10detections7configsNtB9_15TargetEventTime3news_0s3_0Bd_
FN:1173,_RNvXsW_NtNtCsk6AfKij8NQT_8hayabusa10detections7configsNtB5_18PivotKeywordOptionNtNtCseAiZU62iyN8_12clap_builder6derive4Args12augment_args
FN:1577,_RNCNvXs1o_NtNtCsk6AfKij8NQT_8hayabusa10detections7configsNtB8_21ComputerMetricsOptionNtNtCseAiZU62iyN8_12clap_builder6derive14FromArgMatches27update_from_arg_matches_mut0Bc_
FN:1631,_RNCNvXs1u_NtNtCsk6AfKij8NQT_8hayabusa10detections7configsNtB8_6ConfigNtNtCseAiZU62iyN8_12clap_builder6derive14FromArgMatches27update_from_arg_matches_mut0Bc_
FN:1607,_RNCNvXs1o_NtNtCsk6AfKij8NQT_8hayabusa10detections7configsNtB8_21ComputerMetricsOptionNtNtCseAiZU62iyN8_12clap_builder6derive14FromArgMatches27update_from_arg_matches_muts1_0Bc_
FN:1334,_RNCNvXs13_NtNtCsk6AfKij8NQT_8hayabusa10detections7configsNtB8_12OutputOptionNtNtCseAiZU62iyN8_12clap_builder6derive14FromArgMatches27update_from_arg_matches_muts0_0Bc_
FN:939,_RNvXsF_NtNtCsk6AfKij8NQT_8hayabusa10detections7configsNtB5_12SearchOptionNtNtCseAiZU62iyN8_12clap_builder6derive14FromArgMatches20from_arg_matches_mut
FN:918,_RNCNvXsx_NtNtCsk6AfKij8NQT_8hayabusa10detections7configsNtB7_18DetectCommonOptionNtNtCseAiZU62iyN8_12clap_builder6derive14FromArgMatches27update_from_arg_matches_muts2_0Bb_
FN:880,_RNvXsx_NtNtCsk6AfKij8NQT_8hayabusa10detections7configsNtB5_18DetectCommonOptionNtNtCseAiZU62iyN8_12clap_builder6derive14FromArgMatches23update_from_arg_matches
FN:1424,_RNCNvXs13_NtNtCsk6AfKij8NQT_8hayabusa10detections7configsNtB8_12OutputOptionNtNtCseAiZU62iyN8_12clap_builder6derive14FromArgMatches27update_from_arg_matches_mutsf_0Bc_
FN:839,_RNvMs0_NtNtCsk6AfKij8NQT_8hayabusa10detections7configsNtB5_6Action8to_usize
FN:1050,_RNCNvXsF_NtNtCsk6AfKij8NQT_8hayabusa10detections7configsNtB7_12SearchOptionNtNtCseAiZU62iyN8_12clap_builder6derive14FromArgMatches20from_arg_matches_muts7_0Bb_
FN:1385,_RNCNvXs13_NtNtCsk6AfKij8NQT_8hayabusa10detections7configsNtB8_12OutputOptionNtNtCseAiZU62iyN8_12clap_builder6derive14FromArgMatches20from_arg_matches_muts6_0Bc_
FN:1311,_RNvXs14_NtNtCsk6AfKij8NQT_8hayabusa10detections7configsNtB6_12OutputOptionNtNtCseAiZU62iyN8_12clap_builder6derive4Args12augment_args
FN:1224,_RNCNvXsV_NtNtCsk6AfKij8NQT_8hayabusa10detections7configsNtB7_18PivotKeywordOptionNtNtCseAiZU62iyN8_12clap_builder6derive14FromArgMatches20from_arg_matches_muts2_0Bb_
FN:1491,_RNvXs1f_NtNtCsk6AfKij8NQT_8hayabusa10detections7configsNtB6_11InputOptionNtNtCsjwgglklCTGv_4core3fmt5Debug3fmt
FN:1150,_RNCNvXsR_NtNtCsk6AfKij8NQT_8hayabusa10detections7configsNtB7_16EidMetricsOptionNtNtCseAiZU62iyN8_12clap_builder6derive14FromArgMatches20from_arg_matches_muts0_0Bb_
FN:2436,_RNvXs9_NtNtCsk6AfKij8NQT_8hayabusa10detections7configsNtB5_15EventInfoConfigNtNtCsjwgglklCTGv_4core7default7Default7default
FN:2483,_RNvNtNtCsk6AfKij8NQT_8hayabusa10detections7configs31create_control_chat_replace_map
FN:47,_RNvXNtNtCsk6AfKij8NQT_8hayabusa10detections7configsNtB2_12ConfigReaderNtNtCsjwgglklCTGv_4core7default7Default7default
FN:939,_RNvXsF_NtNtCsk6AfKij8NQT_8hayabusa10detections7configsNtB5_12SearchOptionNtNtCseAiZU62iyN8_12clap_builder6derive14FromArgMatches16from_arg_matches
FN:1066,_RNCNvXsF_NtNtCsk6AfKij8NQT_8hayabusa10detections7configsNtB7_12SearchOptionNtNtCseAiZU62iyN8_12clap_builder6derive14FromArgMatches27update_from_arg_matches_mutsb_0Bb_
FN:1158,_RNCNvXsR_NtNtCsk6AfKij8NQT_8hayabusa10detections7configsNtB7_16EidMetricsOptionNtNtCseAiZU62iyN8_12clap_builder6derive14FromArgMatches27update_from_arg_matches_muts2_0Bb_
FN:1491,_RNvXs1c_NtNtCsk6AfKij8NQT_8hayabusa10detections7configsNtB6_11InputOptionNtNtCseAiZU62iyN8_12clap_builder6derive14FromArgMatches23update_from_arg_matches
FN:1491,_RNvXs1d_NtNtCsk6AfKij8NQT_8hayabusa10detections7configsNtB6_11InputOptionNtNtCseAiZU62iyN8_12clap_builder6derive4Args12augment_args
FN:1271,_RNCNvXsZ_NtNtCsk6AfKij8NQT_8hayabusa10detections7configsNtB7_18LogonSummaryOptionNtNtCseAiZU62iyN8_12clap_builder6derive14FromArgMatches20from_arg_matches_mut0Bb_
FN:1299,_RNCNvXsZ_NtNtCsk6AfKij8NQT_8hayabusa10detections7configsNtB7_18LogonSummaryOptionNtNtCseAiZU62iyN8_12clap_builder6derive14FromArgMatches27update_from_arg_matches_muts5_0Bb_
FN:929,_RNvXsB_NtNtCsk6AfKij8NQT_8hayabusa10detections7configsNtB5_20DefaultProfileOptionNtNtCseAiZU62iyN8_12clap_builder6derive14FromArgMatches27update_from_arg_matches_mut
FN:929,_RNvXsC_NtNtCsk6AfKij8NQT_8hayabusa10detections7configsNtB5_20DefaultProfileOptionNtNtCseAiZU62iyN8_12clap_builder6derive4Args23augment_args_for_update
FN:1563,_RNvXs1o_NtNtCsk6AfKij8NQT_8hayabusa10detections7configsNtB6_21ComputerMetricsOptionNtNtCseAiZU62iyN8_12clap_builder6derive14FromArgMatches23update_from_arg_matches
FN:598,_RNCNvMs_NtNtCsk6AfKij8NQT_8hayabusa10detections7configsNtB6_12StoredStatic18create_static_datase_0Ba_
FN:1618,_RNvXs1u_NtNtCsk6AfKij8NQT_8hayabusa10detections7configsNtB6_6ConfigNtNtCseAiZU62iyN8_12clap_builder6derive14FromArgMatches23update_from_arg_matches
FN:1563,_RNvXs1p_NtNtCsk6AfKij8NQT_8hayabusa10detections7configsNtB6_21ComputerMetricsOptionNtNtCseAiZU62iyN8_12clap_builder6derive4Args12augment_args
FN:1460,_RNCNvXs13_NtNtCsk6AfKij8NQT_8hayabusa10detections7configsNtB8_12OutputOptionNtNtCseAiZU62iyN8_12clap_builder6derive14FromArgMatches20from_arg_matches_mutsl_0Bc_
FN:922,_RNCNvXsx_NtNtCsk6AfKij8NQT_8hayabusa10detections7configsNtB7_18DetectCommonOptionNtNtCseAiZU62iyN8_12clap_builder6derive14FromArgMatches27update_from_arg_matches_muts3_0Bb_
FN:158,_RNCNvMs_NtNtCsk6AfKij8NQT_8hayabusa10detections7configsNtB6_12StoredStatic18create_static_datas_0Ba_
FN:1074,_RNCNvXsF_NtNtCsk6AfKij8NQT_8hayabusa10detections7configsNtB7_12SearchOptionNtNtCseAiZU62iyN8_12clap_builder6derive14FromArgMatches27update_from_arg_matches_mutsd_0Bb_
FN:1089,_RNvXsK_NtNtCsk6AfKij8NQT_8hayabusa10detections7configsNtB5_12UpdateOptionNtNtCseAiZU62iyN8_12clap_builder6derive4Args12augment_args
FN:929,_RNvXsB_NtNtCsk6AfKij8NQT_8hayabusa10detections7configsNtB5_20DefaultProfileOptionNtNtCseAiZU62iyN8_12clap_builder6derive14FromArgMatches23update_from_arg_matches
FN:1054,_RNCNvXsF_NtNtCsk6AfKij8NQT_8hayabusa10detections7configsNtB7_12SearchOptionNtNtCseAiZU62iyN8_12clap_builder6derive14FromArgMatches20from_arg_matches_muts8_0Bb_
FN:2453,_RNvNtNtCsk6AfKij8NQT_8hayabusa10detections7configs19load_eventcode_info
FN:1107,_RNvXsO_NtNtCsk6AfKij8NQT_8hayabusa10detections7configsNtB5_17LevelTuningOptionNtNtCseAiZU62iyN8_12clap_builder6derive4Args12augment_args
FN:1688,_RNCNvNtNtCsk6AfKij8NQT_8hayabusa10detections7configs15load_target_ids0B7_
FN:1251,_RNCNvXsV_NtNtCsk6AfKij8NQT_8hayabusa10detections7configsNtB7_18PivotKeywordOptionNtNtCseAiZU62iyN8_12clap_builder6derive14FromArgMatches27update_from_arg_matches_muts6_0Bb_
FN:1254,_RNvXs11_NtNtCsk6AfKij8NQT_8hayabusa10detections7configsNtB6_18LogonSummaryOptionNtNtCsjwgglklCTGv_4core5clone5Clone5cloneBa_
FN:234,_RNCNvMs_NtNtCsk6AfKij8NQT_8hayabusa10detections7configsNtB6_12StoredStatic18create_static_datas4_0Ba_
FN:1026,_RNCNvXsF_NtNtCsk6AfKij8NQT_8hayabusa10detections7configsNtB7_12SearchOptionNtNtCseAiZU62iyN8_12clap_builder6derive14FromArgMatches20from_arg_matches_muts3_0Bb_
FN:1408,_RNCNvXs13_NtNtCsk6AfKij8NQT_8hayabusa10detections7configsNtB8_12OutputOptionNtNtCseAiZU62iyN8_12clap_builder6derive14FromArgMatches27update_from_arg_matches_mutsb_0Bc_
FN:1125,_RNvXsT_NtNtCsk6AfKij8NQT_8hayabusa10detections7configsNtB5_16EidMetricsOptionNtNtCsjwgglklCTGv_4core5clone5Clone5cloneB9_
FN:1539,_RNvXs1n_NtNtCsk6AfKij8NQT_8hayabusa10detections7configsNtB6_16JSONOutputOptionNtNtCsjwgglklCTGv_4core3fmt5Debug3fmt
FN:1089,_RNvXsM_NtNtCsk6AfKij8NQT_8hayabusa10detections7configsNtB5_12UpdateOptionNtNtCsjwgglklCTGv_4core3fmt5Debug3fmt
FN:1755,_RNCNCNvMs4_NtNtCsk6AfKij8NQT_8hayabusa10detections7configsNtB9_15TargetEventTime3news_00Bd_
FN:1595,_RNCNvXs1o_NtNtCsk6AfKij8NQT_8hayabusa10detections7configsNtB8_21ComputerMetricsOptionNtNtCseAiZU62iyN8_12clap_builder6derive14FromArgMatches27update_from_arg_matches_muts0_0Bc_
FN:1311,_RNvXs16_NtNtCsk6AfKij8NQT_8hayabusa10detections7configsNtB6_12OutputOptionNtNtCsjwgglklCTGv_4core3fmt5Debug3fmt
FN:1618,_RNvXs1v_NtNtCsk6AfKij8NQT_8hayabusa10detections7configsNtB6_6ConfigNtNtCseAiZU62iyN8_12clap_builder6derive4Args12augment_args
FN:1653,_RNvXs1y_NtNtCsk6AfKij8NQT_8hayabusa10detections7configsNtB6_9TargetIdsNtNtCsjwgglklCTGv_4core3fmt5Debug3fmt
FN:1311,_RNvXs14_NtNtCsk6AfKij8NQT_8hayabusa10detections7configsNtB6_12OutputOptionNtNtCseAiZU62iyN8_12clap_builder6derive4Args23augment_args_for_update
FN:1173,_RNvXsY_NtNtCsk6AfKij8NQT_8hayabusa10detections7configsNtB5_18PivotKeywordOptionNtNtCsjwgglklCTGv_4core3fmt5Debug3fmt
FN:2049,_RNvNtNtCsk6AfKij8NQT_8hayabusa10detections7configs21get_target_extensions
FN:1480,_RNvXs1b_NtNtCsk6AfKij8NQT_8hayabusa10detections7configsNtB6_13CommonOptionsNtNtCsjwgglklCTGv_4core3fmt5Debug3fmt
FN:1428,_RNCNvXs13_NtNtCsk6AfKij8NQT_8hayabusa10detections7configsNtB8_12OutputOptionNtNtCseAiZU62iyN8_12clap_builder6derive14FromArgMatches20from_arg_matches_mutsg_0Bc_
FN:1491,_RNvXs1d_NtNtCsk6AfKij8NQT_8hayabusa10detections7configsNtB6_11InputOptionNtNtCseAiZU62iyN8_12clap_builder6derive4Args23augment_args_for_update
FN:1330,_RNCNvXs13_NtNtCsk6AfKij8NQT_8hayabusa10detections7configsNtB8_12OutputOptionNtNtCseAiZU62iyN8_12clap_builder6derive14FromArgMatches27update_from_arg_matches_muts_0Bc_
FN:1577,_RNCNvXs1o_NtNtCsk6AfKij8NQT_8hayabusa10detections7configsNtB8_21ComputerMetricsOptionNtNtCseAiZU62iyN8_12clap_builder6derive14FromArgMatches20from_arg_matches_mut0Bc_
FN:1539,_RNvXs1k_NtNtCsk6AfKij8NQT_8hayabusa10detections7configsNtB6_16JSONOutputOptionNtNtCseAiZU62iyN8_12clap_builder6derive14FromArgMatches23update_from_arg_matches
FN:1058,_RNCNvXsF_NtNtCsk6AfKij8NQT_8hayabusa10detections7configsNtB7_12SearchOptionNtNtCseAiZU62iyN8_12clap_builder6derive14FromArgMatches27update_from_arg_matches_muts9_0Bb_
FN:1412,_RNCNvXs13_NtNtCsk6AfKij8NQT_8hayabusa10detections7configsNtB8_12OutputOptionNtNtCseAiZU62iyN8_12clap_builder6derive14FromArgMatches27update_from_arg_matches_mutsc_0Bc_
FN:929,_RNvXsC_NtNtCsk6AfKij8NQT_8hayabusa10detections7configsNtB5_20DefaultProfileOptionNtNtCseAiZU62iyN8_12clap_builder6derive4Args12augment_args
FN:1038,_RNCNvXsF_NtNtCsk6AfKij8NQT_8hayabusa10detections7configsNtB7_12SearchOptionNtNtCseAiZU62iyN8_12clap_builder6derive14FromArgMatches20from_arg_matches_muts4_0Bb_
FN:1142,_RNCNvXsR_NtNtCsk6AfKij8NQT_8hayabusa10detections7configsNtB7_16EidMetricsOptionNtNtCseAiZU62iyN8_12clap_builder6derive14FromArgMatches27update_from_arg_matches_mut0Bb_
FN:1086,_RNCNvXsF_NtNtCsk6AfKij8NQT_8hayabusa10detections7configsNtB7_12SearchOptionNtNtCseAiZU62iyN8_12clap_builder6derive14FromArgMatches20from_arg_matches_mutsg_0Bb_
FN:91,_RNvMs_NtNtCsk6AfKij8NQT_8hayabusa10detections7configsNtB4_12StoredStatic18create_static_data
FN:1271,_RNCNvXsZ_NtNtCsk6AfKij8NQT_8hayabusa10detections7configsNtB7_18LogonSummaryOptionNtNtCseAiZU62iyN8_12clap_builder6derive14FromArgMatches27update_from_arg_matches_mut0Bb_
FN:1698,_RNvXs1B_NtNtCsk6AfKij8NQT_8hayabusa10detections7configsNtB6_15TargetEventTimeNtNtCsjwgglklCTGv_4core5clone5Clone5cloneBa_
FN:2430,_RNvXs1H_NtNtCsk6AfKij8NQT_8hayabusa10detections7configsNtB6_15EventInfoConfigNtNtCsjwgglklCTGv_4core5clone5Clone5cloneBa_
FN:52,_RNvXss_NtNtCsk6AfKij8NQT_8hayabusa10detections7configsNtB5_12StoredStaticNtNtCsjwgglklCTGv_4core5clone5Clone5cloneB9_
FN:1653,_RNvXs1z_NtNtCsk6AfKij8NQT_8hayabusa10detections7configsNtB6_9TargetIdsNtNtCsjwgglklCTGv_4core5clone5Clone5cloneBa_
FN:1949,_RNvXs1D_NtNtCsk6AfKij8NQT_8hayabusa10detections7configsNtB6_19EventKeyAliasConfigNtNtCsjwgglklCTGv_4core5clone5Clone5cloneBa_
FNDA:3,_RNvXs1H_NtNtCsh5cigu73tlT_8hayabusa10detections7configsNtB6_15EventInfoConfigNtNtCsjwgglklCTGv_4core5clone5Clone5cloneBa_
FNDA:1,_RNvNtNtNtCsh5cigu73tlT_8hayabusa10detections7configs5testss_27test_timeline_offset_search
FNDA:426,_RNvXs1w_NtNtCsh5cigu73tlT_8hayabusa10detections7configsNtB6_6ConfigNtNtCsjwgglklCTGv_4core5clone5Clone5cloneBa_
FNDA:1,_RNvNtNtNtCsh5cigu73tlT_8hayabusa10detections7configs5testss_32test_timeline_offset_eid_metrics
FNDA:1,_RNvNtNtNtCsh5cigu73tlT_8hayabusa10detections7configs5testss_26test_get_target_extensions
FNDA:0,_RNvXsD_NtNtCsh5cigu73tlT_8hayabusa10detections7configsNtB5_20DefaultProfileOptionNtNtCsjwgglklCTGv_4core5clone5Clone5cloneB9_
FNDA:447,_RNvNtNtCsh5cigu73tlT_8hayabusa10detections7configs19load_eventkey_alias
FNDA:214038,_RNCNvNtNtCsh5cigu73tlT_8hayabusa10detections7configs19load_eventcode_info0B7_
FNDA:2,_RNvMsa_NtNtCsh5cigu73tlT_8hayabusa10detections7configsNtB5_15EventInfoConfig12get_event_id
FNDA:107280,_RNCNvNtNtCsh5cigu73tlT_8hayabusa10detections7configs19load_eventkey_alias0B7_
FNDA:400,_RNvXs1i_NtNtCsh5cigu73tlT_8hayabusa10detections7configsNtB6_15CsvOutputOptionNtNtCsjwgglklCTGv_4core5clone5Clone5cloneBa_
FNDA:6,_RNvXs1m_NtNtCsh5cigu73tlT_8hayabusa10detections7configsNtB6_16JSONOutputOptionNtNtCsjwgglklCTGv_4core5clone5Clone5cloneBa_
FNDA:7,_RNvNtNtCsh5cigu73tlT_8hayabusa10detections7configs19load_pivot_keywords
FNDA:6,_RNCNCNvMs4_NtNtCsh5cigu73tlT_8hayabusa10detections7configsNtB9_15TargetEventTime3news_0s1_0Bd_
FNDA:1,_RNCNvNtNtNtCsh5cigu73tlT_8hayabusa10detections7configs5tests24target_event_time_filter0B9_
FNDA:1,_RNCNvNtNtNtCsh5cigu73tlT_8hayabusa10detections7configs5tests34test_timeline_offset_logon_summary0B9_
FNDA:6,_RNvMs4_NtNtCsh5cigu73tlT_8hayabusa10detections7configsNtB5_15TargetEventTime3new
FNDA:1,_RNvXsH_NtNtCsh5cigu73tlT_8hayabusa10detections7configsNtB5_12SearchOptionNtNtCsjwgglklCTGv_4core5clone5Clone5cloneB9_
FNDA:0,_RNCNvMs_NtNtCsh5cigu73tlT_8hayabusa10detections7configsNtB6_12StoredStatic18create_static_datas6_0Ba_
FNDA:1,_RNvNtNtNtCsh5cigu73tlT_8hayabusa10detections7configs5testss_24target_event_time_filter
FNDA:338379,_RNCNCNvNtNtCsh5cigu73tlT_8hayabusa10detections7configs19load_eventkey_alias00B9_
FNDA:0,_RNCNvMs_NtNtCsh5cigu73tlT_8hayabusa10detections7configsNtB6_12StoredStatic18create_static_datas2_0Ba_
FNDA:3,_RNvXss_NtNtCsh5cigu73tlT_8hayabusa10detections7configsNtB5_12StoredStaticNtNtCsjwgglklCTGv_4core5clone5Clone5cloneB9_
FNDA:0,_RNCNCNvMs4_NtNtCsh5cigu73tlT_8hayabusa10detections7configsNtB9_15TargetEventTime3new00Bd_
FNDA:1,_RNCNvNtNtNtCsh5cigu73tlT_8hayabusa10detections7configs5tests32test_timeline_offset_eid_metrics0B9_
FNDA:215553,_RNvXs1F_NtNtCsh5cigu73tlT_8hayabusa10detections7configsNtB6_9EventInfoNtNtCsjwgglklCTGv_4core5clone5Clone5cloneBa_
FNDA:423,_RNvMs_NtNtCsh5cigu73tlT_8hayabusa10detections7configsNtB4_12StoredStatic18create_static_data
FNDA:1,_RNvNtNtNtCsh5cigu73tlT_8hayabusa10detections7configs5testss_26test_timeline_offset_pivot
FNDA:813,_RNvXs15_NtNtCsh5cigu73tlT_8hayabusa10detections7configsNtB6_12OutputOptionNtNtCsjwgglklCTGv_4core5clone5Clone5cloneBa_
FNDA:1,_RNvXsX_NtNtCsh5cigu73tlT_8hayabusa10detections7configsNtB5_18PivotKeywordOptionNtNtCsjwgglklCTGv_4core5clone5Clone5cloneB9_
FNDA:6,_RNCNvMs4_NtNtCsh5cigu73tlT_8hayabusa10detections7configsNtB7_15TargetEventTime3new0Bb_
FNDA:6,_RNvXs1z_NtNtCsh5cigu73tlT_8hayabusa10detections7configsNtB6_9TargetIdsNtNtCsjwgglklCTGv_4core5clone5Clone5cloneBa_
FNDA:423,_RNvNtNtCsh5cigu73tlT_8hayabusa10detections7configs22extract_search_options
FNDA:1,_RNCNvNtNtNtCsh5cigu73tlT_8hayabusa10detections7configs5tests27test_timeline_offset_search0B9_
FNDA:0,_RNCNvMs_NtNtCsh5cigu73tlT_8hayabusa10detections7configsNtB6_12StoredStatic18create_static_datasd_0Ba_
FNDA:0,_RNCNvMs_NtNtCsh5cigu73tlT_8hayabusa10detections7configsNtB6_12StoredStatic18create_static_datas3_0Ba_
FNDA:6,_RNCNvMs4_NtNtCsh5cigu73tlT_8hayabusa10detections7configsNtB7_15TargetEventTime3news_0Bb_
FNDA:3,_RNvXsT_NtNtCsh5cigu73tlT_8hayabusa10detections7configsNtB5_16EidMetricsOptionNtNtCsjwgglklCTGv_4core5clone5Clone5cloneB9_
FNDA:56,_RNCNvNtNtCsh5cigu73tlT_8hayabusa10detections7configs19load_pivot_keywords0B7_
FNDA:4,_RNvXsL_NtNtCsh5cigu73tlT_8hayabusa10detections7configsNtB5_12UpdateOptionNtNtCsjwgglklCTGv_4core5clone5Clone5cloneB9_
FNDA:835,_RNvXs1a_NtNtCsh5cigu73tlT_8hayabusa10detections7configsNtB6_13CommonOptionsNtNtCsjwgglklCTGv_4core5clone5Clone5cloneBa_
FNDA:688,_RNvMs5_NtNtCsh5cigu73tlT_8hayabusa10detections7configsNtB5_19EventKeyAliasConfig13get_event_key
FNDA:2,_RNvNtNtCsh5cigu73tlT_8hayabusa10detections7configs31create_control_chat_replace_map
FNDA:398,_RNCNvMs_NtNtCsh5cigu73tlT_8hayabusa10detections7configsNtB6_12StoredStatic18create_static_data0Ba_
FNDA:853,_RNvMs0_NtNtCsh5cigu73tlT_8hayabusa10detections7configsNtB5_6Action8to_usize
FNDA:6,_RNCNCNvMs4_NtNtCsh5cigu73tlT_8hayabusa10detections7configsNtB9_15TargetEventTime3news_0s_0Bd_
FNDA:5,_RNvMs4_NtNtCsh5cigu73tlT_8hayabusa10detections7configsNtB5_15TargetEventTime9is_target
FNDA:0,_RNCNvNtNtCsh5cigu73tlT_8hayabusa10detections7configs15load_target_ids0B7_
FNDA:1,_RNvNtNtNtCsh5cigu73tlT_8hayabusa10detections7configs5testss_20no_target_extensions
FNDA:6,_RNCNCNvMs4_NtNtCsh5cigu73tlT_8hayabusa10detections7configsNtB9_15TargetEventTime3news_0s2_0Bd_
FNDA:41881,_RNCNvMs_NtNtCsh5cigu73tlT_8hayabusa10detections7configsNtB6_12StoredStatic19get_default_details0Ba_
FNDA:6,_RNCNCNvMs4_NtNtCsh5cigu73tlT_8hayabusa10detections7configsNtB9_15TargetEventTime3news_0s0_0Bd_
FNDA:1,_RNCNvNtNtNtCsh5cigu73tlT_8hayabusa10detections7configs5tests42target_event_time_filter_containes_on_time0B9_
FNDA:6,_RNCNCNvMs4_NtNtCsh5cigu73tlT_8hayabusa10detections7configsNtB9_15TargetEventTime3news_0s3_0Bd_
FNDA:1,_RNCNvNtNtNtCsh5cigu73tlT_8hayabusa10detections7configs5tests26test_timeline_offset_pivot0B9_
FNDA:423,_RNvNtNtCsh5cigu73tlT_8hayabusa10detections7configs15load_target_ids
FNDA:423,_RNvMsa_NtNtCsh5cigu73tlT_8hayabusa10detections7configsNtB5_15EventInfoConfig3new
FNDA:0,_RNCNvMs_NtNtCsh5cigu73tlT_8hayabusa10detections7configsNtB6_12StoredStatic18create_static_datase_0Ba_
FNDA:423,_RNvNtNtCsh5cigu73tlT_8hayabusa10detections7configs19check_thread_number
FNDA:423,_RNvNtNtCsh5cigu73tlT_8hayabusa10detections7configs19load_eventcode_info
FNDA:1,_RNvNtNtNtCsh5cigu73tlT_8hayabusa10detections7configs5testss_34test_timeline_offset_logon_summary
FNDA:579,_RNvMs5_NtNtCsh5cigu73tlT_8hayabusa10detections7configsNtB5_19EventKeyAliasConfig19get_event_key_split
FNDA:1,_RNvNtNtNtCsh5cigu73tlT_8hayabusa10detections7configs5testss_36test_create_control_char_replace_map
FNDA:0,_RNCNvMs_NtNtCsh5cigu73tlT_8hayabusa10detections7configsNtB6_12StoredStatic18create_static_datasf_0Ba_
FNDA:423,_RNvNtNtCsh5cigu73tlT_8hayabusa10detections7configs22extract_output_options
FNDA:0,_RNCNvMs_NtNtCsh5cigu73tlT_8hayabusa10detections7configsNtB6_12StoredStatic18create_static_datas8_0Ba_
FNDA:425,_RNvXsv_NtNtCsh5cigu73tlT_8hayabusa10detections7configsNtB5_6ActionNtNtCsjwgglklCTGv_4core5clone5Clone5cloneB9_
FNDA:1,_RNCNvNtNtNtCsh5cigu73tlT_8hayabusa10detections7configs5tests20no_target_extensions0B9_
FNDA:1,_RNCNvNtNtNtCsh5cigu73tlT_8hayabusa10detections7configs5tests25test_timeline_offset_json0B9_
FNDA:5,_RNvXsP_NtNtCsh5cigu73tlT_8hayabusa10detections7configsNtB5_17LevelTuningOptionNtNtCsjwgglklCTGv_4core5clone5Clone5cloneB9_
FNDA:833,_RNvXs1e_NtNtCsh5cigu73tlT_8hayabusa10detections7configsNtB6_11InputOptionNtNtCsjwgglklCTGv_4core5clone5Clone5cloneBa_
FNDA:1,_RNCNvNtNtNtCsh5cigu73tlT_8hayabusa10detections7configs5tests26test_get_target_extensions0B9_
FNDA:13959,_RNCNvMs_NtNtCsh5cigu73tlT_8hayabusa10detections7configsNtB6_12StoredStatic18create_static_datasa_0Ba_
FNDA:1,_RNCNvMs_NtNtCsh5cigu73tlT_8hayabusa10detections7configsNtB6_12StoredStatic18create_static_datas0_0Ba_
FNDA:424,_RNvMs_NtNtCsh5cigu73tlT_8hayabusa10detections7configsNtB4_12StoredStatic19get_default_details
FNDA:174,_RNvXs1D_NtNtCsh5cigu73tlT_8hayabusa10detections7configsNtB6_19EventKeyAliasConfigNtNtCsjwgglklCTGv_4core5clone5Clone5cloneBa_
FNDA:1,_RNCNvNtNtNtCsh5cigu73tlT_8hayabusa10detections7configs5tests24test_timeline_offset_csv0B9_
FNDA:846,_RNvMs3_NtNtCsh5cigu73tlT_8hayabusa10detections7configsNtB5_9TargetIds3new
FNDA:32,_RNCNvNtNtNtCsh5cigu73tlT_8hayabusa10detections7configs5testss_36test_create_control_char_replace_map0B9_
FNDA:14,_RNCNCNvMs4_NtNtCsh5cigu73tlT_8hayabusa10detections7configsNtB9_15TargetEventTime3news_00Bd_
FNDA:0,_RNCNvMs_NtNtCsh5cigu73tlT_8hayabusa10detections7configsNtB6_12StoredStatic18create_static_datas1_0Ba_
FNDA:13959,_RNCNvMs_NtNtCsh5cigu73tlT_8hayabusa10detections7configsNtB6_12StoredStatic18create_static_datas9_0Ba_
FNDA:1,_RNvNtNtNtCsh5cigu73tlT_8hayabusa10detections7configs5testss_24test_timeline_offset_csv
FNDA:469,_RNvNtNtCsh5cigu73tlT_8hayabusa10detections7configs25convert_option_vecs_to_hs
FNDA:423,_RNvMs8_NtNtCsh5cigu73tlT_8hayabusa10detections7configsNtB5_9EventInfo3new
FNDA:1,_RNvNtNtNtCsh5cigu73tlT_8hayabusa10detections7configs5testss_25test_timeline_offset_json
FNDA:3,_RNvXs11_NtNtCsh5cigu73tlT_8hayabusa10detections7configsNtB6_18LogonSummaryOptionNtNtCsjwgglklCTGv_4core5clone5Clone5cloneBa_
FNDA:2,_RNvNtNtCsh5cigu73tlT_8hayabusa10detections7configs21get_target_extensions
FNDA:64,_RNCNvNtNtCsh5cigu73tlT_8hayabusa10detections7configs31create_control_chat_replace_map0B7_
FNDA:6,_RNCNvMs_NtNtCsh5cigu73tlT_8hayabusa10detections7configsNtB6_12StoredStatic18create_static_datas_0Ba_
FNDA:0,_RNCNvMs_NtNtCsh5cigu73tlT_8hayabusa10detections7configsNtB6_12StoredStatic18create_static_datasb_0Ba_
FNDA:8,_RNvMs4_NtNtCsh5cigu73tlT_8hayabusa10detections7configsNtB5_15TargetEventTime3set
FNDA:2,_RNCNvMs_NtNtCsh5cigu73tlT_8hayabusa10detections7configsNtB6_12StoredStatic18create_static_datas4_0Ba_
FNDA:1,_RNvNtNtNtCsh5cigu73tlT_8hayabusa10detections7configs5testss_42target_event_time_filter_containes_on_time
FNDA:827,_RNvXsz_NtNtCsh5cigu73tlT_8hayabusa10detections7configsNtB5_18DetectCommonOptionNtNtCsjwgglklCTGv_4core5clone5Clone5cloneB9_
FNDA:447,_RNvMs5_NtNtCsh5cigu73tlT_8hayabusa10detections7configsNtB5_19EventKeyAliasConfig3new
FNDA:0,_RNCNvMs_NtNtCsh5cigu73tlT_8hayabusa10detections7configsNtB6_12StoredStatic18create_static_datas7_0Ba_
FNDA:0,_RNCNvMs_NtNtCsh5cigu73tlT_8hayabusa10detections7configsNtB6_12StoredStatic18create_static_datasc_0Ba_
FNDA:846,_RNvXs2_NtNtCsh5cigu73tlT_8hayabusa10detections7configsNtB5_9TargetIdsNtNtCsjwgglklCTGv_4core7default7Default7default
FNDA:0,_RNCNvMs_NtNtCsh5cigu73tlT_8hayabusa10detections7configsNtB6_12StoredStatic18create_static_datas5_0Ba_
FNDA:1,_RNCNvNtNtNtCsh5cigu73tlT_8hayabusa10detections7configs5tests36test_create_control_char_replace_map0B9_
FNDA:2,_RNvXs1q_NtNtCsh5cigu73tlT_8hayabusa10detections7configsNtB6_21ComputerMetricsOptionNtNtCsjwgglklCTGv_4core5clone5Clone5cloneBa_
FNDA:23,_RNvMs3_NtNtCsh5cigu73tlT_8hayabusa10detections7configsNtB5_9TargetIds9is_target
FNDA:0,_RNCNvXsF_NtNtCsh5cigu73tlT_8hayabusa10detections7configsNtB7_12SearchOptionNtNtCseAiZU62iyN8_12clap_builder6derive14FromArgMatches27update_from_arg_matches_mut0Bb_
FNDA:0,_RNvXsY_NtNtCsh5cigu73tlT_8hayabusa10detections7configsNtB5_18PivotKeywordOptionNtNtCsjwgglklCTGv_4core3fmt5Debug3fmt
FNDA:0,_RNCNvXs13_NtNtCsh5cigu73tlT_8hayabusa10detections7configsNtB8_12OutputOptionNtNtCseAiZU62iyN8_12clap_builder6derive14FromArgMatches27update_from_arg_matches_mutsd_0Bc_
FNDA:0,_RNCNvXsF_NtNtCsh5cigu73tlT_8hayabusa10detections7configsNtB7_12SearchOptionNtNtCseAiZU62iyN8_12clap_builder6derive14FromArgMatches20from_arg_matches_muts5_0Bb_
FNDA:0,_RNvXsN_NtNtCsh5cigu73tlT_8hayabusa10detections7configsNtB5_17LevelTuningOptionNtNtCseAiZU62iyN8_12clap_builder6derive14FromArgMatches16from_arg_matches
FNDA:0,_RNCNvXs1u_NtNtCsh5cigu73tlT_8hayabusa10detections7configsNtB8_6ConfigNtNtCseAiZU62iyN8_12clap_builder6derive14FromArgMatches27update_from_arg_matches_mut0Bc_
FNDA:0,_RNvXsR_NtNtCsh5cigu73tlT_8hayabusa10detections7configsNtB5_16EidMetricsOptionNtNtCseAiZU62iyN8_12clap_builder6derive14FromArgMatches16from_arg_matches
FNDA:0,_RNCNvXsZ_NtNtCsh5cigu73tlT_8hayabusa10detections7configsNtB7_18LogonSummaryOptionNtNtCseAiZU62iyN8_12clap_builder6derive14FromArgMatches27update_from_arg_matches_muts_0Bb_
FNDA:0,_RNCNvXsV_NtNtCsh5cigu73tlT_8hayabusa10detections7configsNtB7_18PivotKeywordOptionNtNtCseAiZU62iyN8_12clap_builder6derive14FromArgMatches27update_from_arg_matches_muts2_0Bb_
FNDA:0,_RNCNvXsV_NtNtCsh5cigu73tlT_8hayabusa10detections7configsNtB7_18PivotKeywordOptionNtNtCseAiZU62iyN8_12clap_builder6derive14FromArgMatches20from_arg_matches_muts_0Bb_
FNDA:0,_RNCNvXsZ_NtNtCsh5cigu73tlT_8hayabusa10detections7configsNtB7_18LogonSummaryOptionNtNtCseAiZU62iyN8_12clap_builder6derive14FromArgMatches27update_from_arg_matches_muts2_0Bb_
FNDA:0,_RNCNvXs13_NtNtCsh5cigu73tlT_8hayabusa10detections7configsNtB8_12OutputOptionNtNtCseAiZU62iyN8_12clap_builder6derive14FromArgMatches27update_from_arg_matches_muts3_0Bc_
FNDA:0,_RNCNvXsV_NtNtCsh5cigu73tlT_8hayabusa10detections7configsNtB7_18PivotKeywordOptionNtNtCseAiZU62iyN8_12clap_builder6derive14FromArgMatches27update_from_arg_matches_muts5_0Bb_
FNDA:0,_RNCNvXsV_NtNtCsh5cigu73tlT_8hayabusa10detections7configsNtB7_18PivotKeywordOptionNtNtCseAiZU62iyN8_12clap_builder6derive14FromArgMatches20from_arg_matches_muts2_0Bb_
FNDA:0,_RNCNvXs18_NtNtCsh5cigu73tlT_8hayabusa10detections7configsNtB8_13CommonOptionsNtNtCseAiZU62iyN8_12clap_builder6derive14FromArgMatches20from_arg_matches_muts_0Bc_
FNDA:0,_RNCNvXs13_NtNtCsh5cigu73tlT_8hayabusa10detections7configsNtB8_12OutputOptionNtNtCseAiZU62iyN8_12clap_builder6derive14FromArgMatches27update_from_arg_matches_muts6_0Bc_
FNDA:0,_RNCNvXsF_NtNtCsh5cigu73tlT_8hayabusa10detections7configsNtB7_12SearchOptionNtNtCseAiZU62iyN8_12clap_builder6derive14FromArgMatches20from_arg_matches_mut0Bb_
FNDA:0,_RNCNvXsZ_NtNtCsh5cigu73tlT_8hayabusa10detections7configsNtB7_18LogonSummaryOptionNtNtCseAiZU62iyN8_12clap_builder6derive14FromArgMatches20from_arg_matches_muts2_0Bb_
FNDA:0,_RNvXs1g_NtNtCsh5cigu73tlT_8hayabusa10detections7configsNtB6_15CsvOutputOptionNtNtCseAiZU62iyN8_12clap_builder6derive14FromArgMatches27update_from_arg_matches_mut
FNDA:0,_RNvXs1c_NtNtCsh5cigu73tlT_8hayabusa10detections7configsNtB6_11InputOptionNtNtCseAiZU62iyN8_12clap_builder6derive14FromArgMatches23update_from_arg_matches
FNDA:0,_RNvXsF_NtNtCsh5cigu73tlT_8hayabusa10detections7configsNtB5_12SearchOptionNtNtCseAiZU62iyN8_12clap_builder6derive14FromArgMatches16from_arg_matches
FNDA:0,_RNCNvXs1o_NtNtCsh5cigu73tlT_8hayabusa10detections7configsNtB8_21ComputerMetricsOptionNtNtCseAiZU62iyN8_12clap_builder6derive14FromArgMatches27update_from_arg_matches_muts_0Bc_
FNDA:0,_RNvXsJ_NtNtCsh5cigu73tlT_8hayabusa10detections7configsNtB5_12UpdateOptionNtNtCseAiZU62iyN8_12clap_builder6derive14FromArgMatches23update_from_arg_matches
FNDA:0,_RNvXsN_NtNtCsh5cigu73tlT_8hayabusa10detections7configsNtB5_17LevelTuningOptionNtNtCseAiZU62iyN8_12clap_builder6derive14FromArgMatches23update_from_arg_matches
FNDA:0,_RNCNvXs13_NtNtCsh5cigu73tlT_8hayabusa10detections7configsNtB8_12OutputOptionNtNtCseAiZU62iyN8_12clap_builder6derive14FromArgMatches20from_arg_matches_mutse_0Bc_
FNDA:0,_RNvXs10_NtNtCsh5cigu73tlT_8hayabusa10detections7configsNtB6_18LogonSummaryOptionNtNtCseAiZU62iyN8_12clap_builder6derive4Args8group_id
FNDA:0,_RNCNvXsR_NtNtCsh5cigu73tlT_8hayabusa10detections7configsNtB7_16EidMetricsOptionNtNtCseAiZU62iyN8_12clap_builder6derive14FromArgMatches27update_from_arg_matches_muts0_0Bb_
FNDA:0,_RNvXs13_NtNtCsh5cigu73tlT_8hayabusa10detections7configsNtB6_12OutputOptionNtNtCseAiZU62iyN8_12clap_builder6derive14FromArgMatches16from_arg_matches
FNDA:0,_RNvXs16_NtNtCsh5cigu73tlT_8hayabusa10detections7configsNtB6_12OutputOptionNtNtCsjwgglklCTGv_4core3fmt5Debug3fmt
FNDA:0,_RNCNvXsV_NtNtCsh5cigu73tlT_8hayabusa10detections7configsNtB7_18PivotKeywordOptionNtNtCseAiZU62iyN8_12clap_builder6derive14FromArgMatches27update_from_arg_matches_muts1_0Bb_
FNDA:0,_RNvXs1t_NtNtCsh5cigu73tlT_8hayabusa10detections7configsNtB6_6ConfigNtNtCseAiZU62iyN8_12clap_builder6derive14CommandFactory7command
FNDA:0,_RNvXsB_NtNtCsh5cigu73tlT_8hayabusa10detections7configsNtB5_20DefaultProfileOptionNtNtCseAiZU62iyN8_12clap_builder6derive14FromArgMatches20from_arg_matches_mut
FNDA:0,_RNCNvXsF_NtNtCsh5cigu73tlT_8hayabusa10detections7configsNtB7_12SearchOptionNtNtCseAiZU62iyN8_12clap_builder6derive14FromArgMatches27update_from_arg_matches_mutsb_0Bb_
FNDA:0,_RNCNvXs1g_NtNtCsh5cigu73tlT_8hayabusa10detections7configsNtB8_15CsvOutputOptionNtNtCseAiZU62iyN8_12clap_builder6derive14FromArgMatches20from_arg_matches_mut0Bc_
FNDA:0,_RNvXs1r_NtNtCsh5cigu73tlT_8hayabusa10detections7configsNtB6_21ComputerMetricsOptionNtNtCsjwgglklCTGv_4core3fmt5Debug3fmt
FNDA:0,_RNCNvXsR_NtNtCsh5cigu73tlT_8hayabusa10detections7configsNtB7_16EidMetricsOptionNtNtCseAiZU62iyN8_12clap_builder6derive14FromArgMatches27update_from_arg_matches_muts3_0Bb_
FNDA:0,_RNCNvXsF_NtNtCsh5cigu73tlT_8hayabusa10detections7configsNtB7_12SearchOptionNtNtCseAiZU62iyN8_12clap_builder6derive14FromArgMatches27update_from_arg_matches_muts0_0Bb_
FNDA:0,_RNCNvXs1g_NtNtCsh5cigu73tlT_8hayabusa10detections7configsNtB8_15CsvOutputOptionNtNtCseAiZU62iyN8_12clap_builder6derive14FromArgMatches27update_from_arg_matches_mut0Bc_
FNDA:0,_RNCNvXsF_NtNtCsh5cigu73tlT_8hayabusa10detections7configsNtB7_12SearchOptionNtNtCseAiZU62iyN8_12clap_builder6derive14FromArgMatches20from_arg_matches_muts8_0Bb_
FNDA:0,_RNvXsW_NtNtCsh5cigu73tlT_8hayabusa10detections7configsNtB5_18PivotKeywordOptionNtNtCseAiZU62iyN8_12clap_builder6derive4Args23augment_args_for_update
FNDA:0,_RNCNvXs13_NtNtCsh5cigu73tlT_8hayabusa10detections7configsNtB8_12OutputOptionNtNtCseAiZU62iyN8_12clap_builder6derive14FromArgMatches27update_from_arg_matches_mutsj_0Bc_
FNDA:0,_RNCNvXs1k_NtNtCsh5cigu73tlT_8hayabusa10detections7configsNtB8_16JSONOutputOptionNtNtCseAiZU62iyN8_12clap_builder6derive14FromArgMatches20from_arg_matches_mut0Bc_
FNDA:0,_RNCNvXsF_NtNtCsh5cigu73tlT_8hayabusa10detections7configsNtB7_12SearchOptionNtNtCseAiZU62iyN8_12clap_builder6derive14FromArgMatches20from_arg_matches_mutsb_0Bb_
FNDA:0,_RNCNvXs13_NtNtCsh5cigu73tlT_8hayabusa10detections7configsNtB8_12OutputOptionNtNtCseAiZU62iyN8_12clap_builder6derive14FromArgMatches27update_from_arg_matches_muts5_0Bc_
FNDA:0,_RNvXs13_NtNtCsh5cigu73tlT_8hayabusa10detections7configsNtB6_12OutputOptionNtNtCseAiZU62iyN8_12clap_builder6derive14FromArgMatches27update_from_arg_matches_mut
FNDA:0,_RNCNvXsx_NtNtCsh5cigu73tlT_8hayabusa10detections7configsNtB7_18DetectCommonOptionNtNtCseAiZU62iyN8_12clap_builder6derive14FromArgMatches20from_arg_matches_muts0_0Bb_
FNDA:0,_RNCNvXs13_NtNtCsh5cigu73tlT_8hayabusa10detections7configsNtB8_12OutputOptionNtNtCseAiZU62iyN8_12clap_builder6derive14FromArgMatches27update_from_arg_matches_mutsm_0Bc_
FNDA:0,_RNCNvXsF_NtNtCsh5cigu73tlT_8hayabusa10detections7configsNtB7_12SearchOptionNtNtCseAiZU62iyN8_12clap_builder6derive14FromArgMatches20from_arg_matches_mutse_0Bb_
FNDA:0,_RNCNvXs13_NtNtCsh5cigu73tlT_8hayabusa10detections7configsNtB8_12OutputOptionNtNtCseAiZU62iyN8_12clap_builder6derive14FromArgMatches20from_arg_matches_muts0_0Bc_
FNDA:0,_RNvXs1k_NtNtCsh5cigu73tlT_8hayabusa10detections7configsNtB6_16JSONOutputOptionNtNtCseAiZU62iyN8_12clap_builder6derive14FromArgMatches20from_arg_matches_mut
FNDA:0,_RNCNvXsR_NtNtCsh5cigu73tlT_8hayabusa10detections7configsNtB7_16EidMetricsOptionNtNtCseAiZU62iyN8_12clap_builder6derive14FromArgMatches27update_from_arg_matches_muts_0Bb_
FNDA:0,_RNCNvXs13_NtNtCsh5cigu73tlT_8hayabusa10detections7configsNtB8_12OutputOptionNtNtCseAiZU62iyN8_12clap_builder6derive14FromArgMatches27update_from_arg_matches_mutsc_0Bc_
FNDA:0,_RNCNvXsF_NtNtCsh5cigu73tlT_8hayabusa10detections7configsNtB7_12SearchOptionNtNtCseAiZU62iyN8_12clap_builder6derive14FromArgMatches20from_arg_matches_muts4_0Bb_
FNDA:0,_RNCNvXs13_NtNtCsh5cigu73tlT_8hayabusa10detections7configsNtB8_12OutputOptionNtNtCseAiZU62iyN8_12clap_builder6derive14FromArgMatches27update_from_arg_matches_mut0Bc_
FNDA:0,_RNvXs19_NtNtCsh5cigu73tlT_8hayabusa10detections7configsNtB6_13CommonOptionsNtNtCseAiZU62iyN8_12clap_builder6derive4Args23augment_args_for_update
FNDA:0,_RNvXs1d_NtNtCsh5cigu73tlT_8hayabusa10detections7configsNtB6_11InputOptionNtNtCseAiZU62iyN8_12clap_builder6derive4Args8group_id
FNDA:0,_RNvXs1k_NtNtCsh5cigu73tlT_8hayabusa10detections7configsNtB6_16JSONOutputOptionNtNtCseAiZU62iyN8_12clap_builder6derive14FromArgMatches16from_arg_matches
FNDA:0,_RNvXs1B_NtNtCsh5cigu73tlT_8hayabusa10detections7configsNtB6_15TargetEventTimeNtNtCsjwgglklCTGv_4core5clone5Clone5cloneBa_
FNDA:0,_RNvXs1p_NtNtCsh5cigu73tlT_8hayabusa10detections7configsNtB6_21ComputerMetricsOptionNtNtCseAiZU62iyN8_12clap_builder6derive4Args23augment_args_for_update
FNDA:0,_RNvXsG_NtNtCsh5cigu73tlT_8hayabusa10detections7configsNtB5_12SearchOptionNtNtCseAiZU62iyN8_12clap_builder6derive4Args12augment_args
FNDA:0,_RNCNvXsF_NtNtCsh5cigu73tlT_8hayabusa10detections7configsNtB7_12SearchOptionNtNtCseAiZU62iyN8_12clap_builder6derive14FromArgMatches27update_from_arg_matches_mutsa_0Bb_
FNDA:0,_RNCNvXs13_NtNtCsh5cigu73tlT_8hayabusa10detections7configsNtB8_12OutputOptionNtNtCseAiZU62iyN8_12clap_builder6derive14FromArgMatches27update_from_arg_matches_muts1_0Bc_
FNDA:0,_RNvXs18_NtNtCsh5cigu73tlT_8hayabusa10detections7configsNtB6_13CommonOptionsNtNtCseAiZU62iyN8_12clap_builder6derive14FromArgMatches16from_arg_matches
FNDA:0,_RNCNvXs13_NtNtCsh5cigu73tlT_8hayabusa10detections7configsNtB8_12OutputOptionNtNtCseAiZU62iyN8_12clap_builder6derive14FromArgMatches20from_arg_matches_mutsh_0Bc_
FNDA:0,_RNCNvXs1o_NtNtCsh5cigu73tlT_8hayabusa10detections7configsNtB8_21ComputerMetricsOptionNtNtCseAiZU62iyN8_12clap_builder6derive14FromArgMatches20from_arg_matches_muts_0Bc_
FNDA:0,_RNvXsG_NtNtCsh5cigu73tlT_8hayabusa10detections7configsNtB5_12SearchOptionNtNtCseAiZU62iyN8_12clap_builder6derive4Args8group_id
FNDA:0,_RNCNvXs13_NtNtCsh5cigu73tlT_8hayabusa10detections7configsNtB8_12OutputOptionNtNtCseAiZU62iyN8_12clap_builder6derive14FromArgMatches20from_arg_matches_mutsk_0Bc_
FNDA:0,_RNCNvXs1o_NtNtCsh5cigu73tlT_8hayabusa10detections7configsNtB8_21ComputerMetricsOptionNtNtCseAiZU62iyN8_12clap_builder6derive14FromArgMatches20from_arg_matches_muts2_0Bc_
FNDA:0,_RNCNvXs13_NtNtCsh5cigu73tlT_8hayabusa10detections7configsNtB8_12OutputOptionNtNtCseAiZU62iyN8_12clap_builder6derive14FromArgMatches20from_arg_matches_muts6_0Bc_
FNDA:0,_RNvXsS_NtNtCsh5cigu73tlT_8hayabusa10detections7configsNtB5_16EidMetricsOptionNtNtCseAiZU62iyN8_12clap_builder6derive4Args12augment_args
FNDA:0,_RNCNvXsx_NtNtCsh5cigu73tlT_8hayabusa10detections7configsNtB7_18DetectCommonOptionNtNtCseAiZU62iyN8_12clap_builder6derive14FromArgMatches27update_from_arg_matches_muts1_0Bb_
FNDA:0,_RNCNvXsZ_NtNtCsh5cigu73tlT_8hayabusa10detections7configsNtB7_18LogonSummaryOptionNtNtCseAiZU62iyN8_12clap_builder6derive14FromArgMatches20from_arg_matches_muts0_0Bb_
FNDA:0,_RNvMs4_NtNtCsh5cigu73tlT_8hayabusa10detections7configsNtB5_15TargetEventTime16is_parse_success
FNDA:0,_RNCNvXs13_NtNtCsh5cigu73tlT_8hayabusa10detections7configsNtB8_12OutputOptionNtNtCseAiZU62iyN8_12clap_builder6derive14FromArgMatches27update_from_arg_matches_mutsi_0Bc_
FNDA:0,_RNCNvXsZ_NtNtCsh5cigu73tlT_8hayabusa10detections7configsNtB7_18LogonSummaryOptionNtNtCseAiZU62iyN8_12clap_builder6derive14FromArgMatches20from_arg_matches_muts3_0Bb_
FNDA:0,_RNCNvXsx_NtNtCsh5cigu73tlT_8hayabusa10detections7configsNtB7_18DetectCommonOptionNtNtCseAiZU62iyN8_12clap_builder6derive14FromArgMatches27update_from_arg_matches_muts4_0Bb_
FNDA:0,_RNvXst_NtNtCsh5cigu73tlT_8hayabusa10detections7configsNtB5_6ActionNtNtCseAiZU62iyN8_12clap_builder6derive14FromArgMatches27update_from_arg_matches_mut
FNDA:0,_RNvXs13_NtNtCsh5cigu73tlT_8hayabusa10detections7configsNtB6_12OutputOptionNtNtCseAiZU62iyN8_12clap_builder6derive14FromArgMatches20from_arg_matches_mut
FNDA:0,_RNCNvXsx_NtNtCsh5cigu73tlT_8hayabusa10detections7configsNtB7_18DetectCommonOptionNtNtCseAiZU62iyN8_12clap_builder6derive14FromArgMatches20from_arg_matches_muts_0Bb_
FNDA:0,_RNCNvXs13_NtNtCsh5cigu73tlT_8hayabusa10detections7configsNtB8_12OutputOptionNtNtCseAiZU62iyN8_12clap_builder6derive14FromArgMatches20from_arg_matches_mutsd_0Bc_
FNDA:0,_RNvXsx_NtNtCsh5cigu73tlT_8hayabusa10detections7configsNtB5_18DetectCommonOptionNtNtCseAiZU62iyN8_12clap_builder6derive14FromArgMatches20from_arg_matches_mut
FNDA:0,_RNvXsy_NtNtCsh5cigu73tlT_8hayabusa10detections7configsNtB5_18DetectCommonOptionNtNtCseAiZU62iyN8_12clap_builder6derive4Args8group_id
FNDA:0,_RNCNvXs13_NtNtCsh5cigu73tlT_8hayabusa10detections7configsNtB8_12OutputOptionNtNtCseAiZU62iyN8_12clap_builder6derive14FromArgMatches20from_arg_matches_muts_0Bc_
FNDA:0,_RNCNvXsF_NtNtCsh5cigu73tlT_8hayabusa10detections7configsNtB7_12SearchOptionNtNtCseAiZU62iyN8_12clap_builder6derive14FromArgMatches20from_arg_matches_mutsd_0Bb_
FNDA:0,_RNvXsO_NtNtCsh5cigu73tlT_8hayabusa10detections7configsNtB5_17LevelTuningOptionNtNtCseAiZU62iyN8_12clap_builder6derive4Args12augment_args
FNDA:0,_RNvXsF_NtNtCsh5cigu73tlT_8hayabusa10detections7configsNtB5_12SearchOptionNtNtCseAiZU62iyN8_12clap_builder6derive14FromArgMatches27update_from_arg_matches_mut
FNDA:0,_RNCNvXs13_NtNtCsh5cigu73tlT_8hayabusa10detections7configsNtB8_12OutputOptionNtNtCseAiZU62iyN8_12clap_builder6derive14FromArgMatches20from_arg_matches_muts2_0Bc_
FNDA:0,_RNvXsN_NtNtCsh5cigu73tlT_8hayabusa10detections7configsNtB5_17LevelTuningOptionNtNtCseAiZU62iyN8_12clap_builder6derive14FromArgMatches20from_arg_matches_mut
FNDA:0,_RNvXsO_NtNtCsh5cigu73tlT_8hayabusa10detections7configsNtB5_17LevelTuningOptionNtNtCseAiZU62iyN8_12clap_builder6derive4Args8group_id
FNDA:0,_RNvXsR_NtNtCsh5cigu73tlT_8hayabusa10detections7configsNtB5_16EidMetricsOptionNtNtCseAiZU62iyN8_12clap_builder6derive14FromArgMatches20from_arg_matches_mut
FNDA:0,_RNCNvXs1k_NtNtCsh5cigu73tlT_8hayabusa10detections7configsNtB8_16JSONOutputOptionNtNtCseAiZU62iyN8_12clap_builder6derive14FromArgMatches27update_from_arg_matches_mut0Bc_
FNDA:0,_RNvXsI_NtNtCsh5cigu73tlT_8hayabusa10detections7configsNtB5_12SearchOptionNtNtCsjwgglklCTGv_4core3fmt5Debug3fmt
FNDA:0,_RNvMs0_NtNtCsh5cigu73tlT_8hayabusa10detections7configsNtB5_6Action15get_action_name
FNDA:0,_RNCNvXsV_NtNtCsh5cigu73tlT_8hayabusa10detections7configsNtB7_18PivotKeywordOptionNtNtCseAiZU62iyN8_12clap_builder6derive14FromArgMatches20from_arg_matches_muts0_0Bb_
FNDA:0,_RNCNvXsZ_NtNtCsh5cigu73tlT_8hayabusa10detections7configsNtB7_18LogonSummaryOptionNtNtCseAiZU62iyN8_12clap_builder6derive14FromArgMatches27update_from_arg_matches_muts0_0Bb_
FNDA:0,_RNCNvXsR_NtNtCsh5cigu73tlT_8hayabusa10detections7configsNtB7_16EidMetricsOptionNtNtCseAiZU62iyN8_12clap_builder6derive14FromArgMatches27update_from_arg_matches_muts2_0Bb_
FNDA:0,_RNCNvXsN_NtNtCsh5cigu73tlT_8hayabusa10detections7configsNtB7_17LevelTuningOptionNtNtCseAiZU62iyN8_12clap_builder6derive14FromArgMatches20from_arg_matches_mut0Bb_
FNDA:0,_RNCNvXsZ_NtNtCsh5cigu73tlT_8hayabusa10detections7configsNtB7_18LogonSummaryOptionNtNtCseAiZU62iyN8_12clap_builder6derive14FromArgMatches27update_from_arg_matches_muts3_0Bb_
FNDA:0,_RNCNvXsZ_NtNtCsh5cigu73tlT_8hayabusa10detections7configsNtB7_18LogonSummaryOptionNtNtCseAiZU62iyN8_12clap_builder6derive14FromArgMatches20from_arg_matches_muts_0Bb_
FNDA:0,_RNCNvXsR_NtNtCsh5cigu73tlT_8hayabusa10detections7configsNtB7_16EidMetricsOptionNtNtCseAiZU62iyN8_12clap_builder6derive14FromArgMatches27update_from_arg_matches_muts5_0Bb_
FNDA:0,_RNCNvXsN_NtNtCsh5cigu73tlT_8hayabusa10detections7configsNtB7_17LevelTuningOptionNtNtCseAiZU62iyN8_12clap_builder6derive14FromArgMatches27update_from_arg_matches_mut0Bb_
FNDA:0,_RNvXsF_NtNtCsh5cigu73tlT_8hayabusa10detections7configsNtB5_12SearchOptionNtNtCseAiZU62iyN8_12clap_builder6derive14FromArgMatches20from_arg_matches_mut
FNDA:0,_RNvXs1c_NtNtCsh5cigu73tlT_8hayabusa10detections7configsNtB6_11InputOptionNtNtCseAiZU62iyN8_12clap_builder6derive14FromArgMatches27update_from_arg_matches_mut
FNDA:0,_RNCNvXs13_NtNtCsh5cigu73tlT_8hayabusa10detections7configsNtB8_12OutputOptionNtNtCseAiZU62iyN8_12clap_builder6derive14FromArgMatches27update_from_arg_matches_muts4_0Bc_
FNDA:0,_RNvXs1f_NtNtCsh5cigu73tlT_8hayabusa10detections7configsNtB6_11InputOptionNtNtCsjwgglklCTGv_4core3fmt5Debug3fmt
FNDA:0,_RNCNvXs18_NtNtCsh5cigu73tlT_8hayabusa10detections7configsNtB8_13CommonOptionsNtNtCseAiZU62iyN8_12clap_builder6derive14FromArgMatches27update_from_arg_matches_muts_0Bc_
FNDA:0,_RNvXs1u_NtNtCsh5cigu73tlT_8hayabusa10detections7configsNtB6_6ConfigNtNtCseAiZU62iyN8_12clap_builder6derive14FromArgMatches27update_from_arg_matches_mut
FNDA:0,_RNCNvXs1c_NtNtCsh5cigu73tlT_8hayabusa10detections7configsNtB8_11InputOptionNtNtCseAiZU62iyN8_12clap_builder6derive14FromArgMatches20from_arg_matches_muts_0Bc_
FNDA:0,_RNvXs1A_NtNtCsh5cigu73tlT_8hayabusa10detections7configsNtB6_15TargetEventTimeNtNtCsjwgglklCTGv_4core3fmt5Debug3fmt
FNDA:0,_RNCNvXsJ_NtNtCsh5cigu73tlT_8hayabusa10detections7configsNtB7_12UpdateOptionNtNtCseAiZU62iyN8_12clap_builder6derive14FromArgMatches27update_from_arg_matches_mut0Bb_
FNDA:0,_RNCNvXsF_NtNtCsh5cigu73tlT_8hayabusa10detections7configsNtB7_12SearchOptionNtNtCseAiZU62iyN8_12clap_builder6derive14FromArgMatches20from_arg_matches_muts_0Bb_
FNDA:0,_RNvXs1u_NtNtCsh5cigu73tlT_8hayabusa10detections7configsNtB6_6ConfigNtNtCseAiZU62iyN8_12clap_builder6derive14FromArgMatches23update_from_arg_matches
FNDA:0,_RNCNvXs1c_NtNtCsh5cigu73tlT_8hayabusa10detections7configsNtB8_11InputOptionNtNtCseAiZU62iyN8_12clap_builder6derive14FromArgMatches27update_from_arg_matches_mut0Bc_
FNDA:0,_RNvXsB_NtNtCsh5cigu73tlT_8hayabusa10detections7configsNtB5_20DefaultProfileOptionNtNtCseAiZU62iyN8_12clap_builder6derive14FromArgMatches27update_from_arg_matches_mut
FNDA:0,_RNvXsC_NtNtCsh5cigu73tlT_8hayabusa10detections7configsNtB5_20DefaultProfileOptionNtNtCseAiZU62iyN8_12clap_builder6derive4Args23augment_args_for_update
FNDA:0,_RNCNvXs13_NtNtCsh5cigu73tlT_8hayabusa10detections7configsNtB8_12OutputOptionNtNtCseAiZU62iyN8_12clap_builder6derive14FromArgMatches20from_arg_matches_mutsc_0Bc_
FNDA:0,_RNCNvXs13_NtNtCsh5cigu73tlT_8hayabusa10detections7configsNtB8_12OutputOptionNtNtCseAiZU62iyN8_12clap_builder6derive14FromArgMatches27update_from_arg_matches_muts0_0Bc_
FNDA:0,_RNCNvXs13_NtNtCsh5cigu73tlT_8hayabusa10detections7configsNtB8_12OutputOptionNtNtCseAiZU62iyN8_12clap_builder6derive14FromArgMatches27update_from_arg_matches_mutso_0Bc_
FNDA:0,_RNCNvXs13_NtNtCsh5cigu73tlT_8hayabusa10detections7configsNtB8_12OutputOptionNtNtCseAiZU62iyN8_12clap_builder6derive14FromArgMatches20from_arg_matches_mutsf_0Bc_
FNDA:0,_RNCNvXsF_NtNtCsh5cigu73tlT_8hayabusa10detections7configsNtB7_12SearchOptionNtNtCseAiZU62iyN8_12clap_builder6derive14FromArgMatches27update_from_arg_matches_muts8_0Bb_
FNDA:0,_RNCNvXs13_NtNtCsh5cigu73tlT_8hayabusa10detections7configsNtB8_12OutputOptionNtNtCseAiZU62iyN8_12clap_builder6derive14FromArgMatches20from_arg_matches_mutsi_0Bc_
FNDA:0,_RNvXsA_NtNtCsh5cigu73tlT_8hayabusa10detections7configsNtB5_18DetectCommonOptionNtNtCsjwgglklCTGv_4core3fmt5Debug3fmt
FNDA:0,_RNvXs1v_NtNtCsh5cigu73tlT_8hayabusa10detections7configsNtB6_6ConfigNtNtCseAiZU62iyN8_12clap_builder6derive4Args8group_id
FNDA:0,_RNCNvXs13_NtNtCsh5cigu73tlT_8hayabusa10detections7configsNtB8_12OutputOptionNtNtCseAiZU62iyN8_12clap_builder6derive14FromArgMatches20from_arg_matches_muts5_0Bc_
FNDA:0,_RNCNvXsx_NtNtCsh5cigu73tlT_8hayabusa10detections7configsNtB7_18DetectCommonOptionNtNtCseAiZU62iyN8_12clap_builder6derive14FromArgMatches27update_from_arg_matches_muts_0Bb_
FNDA:0,_RNvXs7_NtNtCsh5cigu73tlT_8hayabusa10detections7configsNtB5_9EventInfoNtNtCsjwgglklCTGv_4core7default7Default7default
FNDA:0,_RNvXsJ_NtNtCsh5cigu73tlT_8hayabusa10detections7configsNtB5_12UpdateOptionNtNtCseAiZU62iyN8_12clap_builder6derive14FromArgMatches16from_arg_matches
FNDA:0,_RNCNvXs13_NtNtCsh5cigu73tlT_8hayabusa10detections7configsNtB8_12OutputOptionNtNtCseAiZU62iyN8_12clap_builder6derive14FromArgMatches20from_arg_matches_muts8_0Bc_
FNDA:0,_RNvXs1c_NtNtCsh5cigu73tlT_8hayabusa10detections7configsNtB6_11InputOptionNtNtCseAiZU62iyN8_12clap_builder6derive14FromArgMatches16from_arg_matches
FNDA:0,_RNCNvXsx_NtNtCsh5cigu73tlT_8hayabusa10detections7configsNtB7_18DetectCommonOptionNtNtCseAiZU62iyN8_12clap_builder6derive14FromArgMatches27update_from_arg_matches_muts2_0Bb_
FNDA:0,_RNCNvXsF_NtNtCsh5cigu73tlT_8hayabusa10detections7configsNtB7_12SearchOptionNtNtCseAiZU62iyN8_12clap_builder6derive14FromArgMatches27update_from_arg_matches_muts1_0Bb_
FNDA:0,_RNCNvXs18_NtNtCsh5cigu73tlT_8hayabusa10detections7configsNtB8_13CommonOptionsNtNtCseAiZU62iyN8_12clap_builder6derive14FromArgMatches27update_from_arg_matches_mut0Bc_
FNDA:0,_RNCNvXsx_NtNtCsh5cigu73tlT_8hayabusa10detections7configsNtB7_18DetectCommonOptionNtNtCseAiZU62iyN8_12clap_builder6derive14FromArgMatches20from_arg_matches_mut0Bb_
FNDA:0,_RNvXs1l_NtNtCsh5cigu73tlT_8hayabusa10detections7configsNtB6_16JSONOutputOptionNtNtCseAiZU62iyN8_12clap_builder6derive4Args12augment_args
FNDA:0,_RNCNvXsF_NtNtCsh5cigu73tlT_8hayabusa10detections7configsNtB7_12SearchOptionNtNtCseAiZU62iyN8_12clap_builder6derive14FromArgMatches27update_from_arg_matches_muts4_0Bb_
FNDA:0,_RNCNvXsx_NtNtCsh5cigu73tlT_8hayabusa10detections7configsNtB7_18DetectCommonOptionNtNtCseAiZU62iyN8_12clap_builder6derive14FromArgMatches20from_arg_matches_muts1_0Bb_
FNDA:0,_RNvXs9_NtNtCsh5cigu73tlT_8hayabusa10detections7configsNtB5_15EventInfoConfigNtNtCsjwgglklCTGv_4core7default7Default7default
FNDA:0,_RNCNvXsZ_NtNtCsh5cigu73tlT_8hayabusa10detections7configsNtB7_18LogonSummaryOptionNtNtCseAiZU62iyN8_12clap_builder6derive14FromArgMatches27update_from_arg_matches_muts5_0Bb_
FNDA:0,_RNvXsZ_NtNtCsh5cigu73tlT_8hayabusa10detections7configsNtB5_18LogonSummaryOptionNtNtCseAiZU62iyN8_12clap_builder6derive14FromArgMatches27update_from_arg_matches_mut
FNDA:0,_RNvXst_NtNtCsh5cigu73tlT_8hayabusa10detections7configsNtB5_6ActionNtNtCseAiZU62iyN8_12clap_builder6derive14FromArgMatches20from_arg_matches_mut
FNDA:0,_RNCNvXs13_NtNtCsh5cigu73tlT_8hayabusa10detections7configsNtB8_12OutputOptionNtNtCseAiZU62iyN8_12clap_builder6derive14FromArgMatches27update_from_arg_matches_muts9_0Bc_
FNDA:0,_RNCNvXsF_NtNtCsh5cigu73tlT_8hayabusa10detections7configsNtB7_12SearchOptionNtNtCseAiZU62iyN8_12clap_builder6derive14FromArgMatches20from_arg_matches_muts1_0Bb_
FNDA:0,_RNCNvXsZ_NtNtCsh5cigu73tlT_8hayabusa10detections7configsNtB7_18LogonSummaryOptionNtNtCseAiZU62iyN8_12clap_builder6derive14FromArgMatches20from_arg_matches_muts5_0Bb_
FNDA:0,_RNvXsy_NtNtCsh5cigu73tlT_8hayabusa10detections7configsNtB5_18DetectCommonOptionNtNtCseAiZU62iyN8_12clap_builder6derive4Args23augment_args_for_update
FNDA:0,_RNvXs18_NtNtCsh5cigu73tlT_8hayabusa10detections7configsNtB6_13CommonOptionsNtNtCseAiZU62iyN8_12clap_builder6derive14FromArgMatches20from_arg_matches_mut
FNDA:0,_RNCNvXsZ_NtNtCsh5cigu73tlT_8hayabusa10detections7configsNtB7_18LogonSummaryOptionNtNtCseAiZU62iyN8_12clap_builder6derive14FromArgMatches27update_from_arg_matches_mut0Bb_
FNDA:0,_RNvXs1o_NtNtCsh5cigu73tlT_8hayabusa10detections7configsNtB6_21ComputerMetricsOptionNtNtCseAiZU62iyN8_12clap_builder6derive14FromArgMatches27update_from_arg_matches_mut
FNDA:0,_RNCNvXs1o_NtNtCsh5cigu73tlT_8hayabusa10detections7configsNtB8_21ComputerMetricsOptionNtNtCseAiZU62iyN8_12clap_builder6derive14FromArgMatches27update_from_arg_matches_muts2_0Bc_
FNDA:0,_RNvXsx_NtNtCsh5cigu73tlT_8hayabusa10detections7configsNtB5_18DetectCommonOptionNtNtCseAiZU62iyN8_12clap_builder6derive14FromArgMatches27update_from_arg_matches_mut
FNDA:0,_RNCNvXsV_NtNtCsh5cigu73tlT_8hayabusa10detections7configsNtB7_18PivotKeywordOptionNtNtCseAiZU62iyN8_12clap_builder6derive14FromArgMatches20from_arg_matches_mut0Bb_
FNDA:0,_RNvXs1l_NtNtCsh5cigu73tlT_8hayabusa10detections7configsNtB6_16JSONOutputOptionNtNtCseAiZU62iyN8_12clap_builder6derive4Args23augment_args_for_update
FNDA:0,_RNvXsW_NtNtCsh5cigu73tlT_8hayabusa10detections7configsNtB5_18PivotKeywordOptionNtNtCseAiZU62iyN8_12clap_builder6derive4Args12augment_args
FNDA:0,_RNCNvXsZ_NtNtCsh5cigu73tlT_8hayabusa10detections7configsNtB7_18LogonSummaryOptionNtNtCseAiZU62iyN8_12clap_builder6derive14FromArgMatches20from_arg_matches_mut0Bb_
FNDA:0,_RNvXs1E_NtNtCsh5cigu73tlT_8hayabusa10detections7configsNtB6_9EventInfoNtNtCsjwgglklCTGv_4core3fmt5Debug3fmt
FNDA:0,_RNvXs6_NtNtCsh5cigu73tlT_8hayabusa10detections7configsNtB5_19EventKeyAliasConfigNtNtCsjwgglklCTGv_4core7default7Default7default
FNDA:0,_RNvXs1G_NtNtCsh5cigu73tlT_8hayabusa10detections7configsNtB6_15EventInfoConfigNtNtCsjwgglklCTGv_4core3fmt5Debug3fmt
FNDA:0,_RNCNvXsR_NtNtCsh5cigu73tlT_8hayabusa10detections7configsNtB7_16EidMetricsOptionNtNtCseAiZU62iyN8_12clap_builder6derive14FromArgMatches20from_arg_matches_muts0_0Bb_
FNDA:0,_RNCNvXsZ_NtNtCsh5cigu73tlT_8hayabusa10detections7configsNtB7_18LogonSummaryOptionNtNtCseAiZU62iyN8_12clap_builder6derive14FromArgMatches20from_arg_matches_muts1_0Bb_
FNDA:0,_RNCNvXsR_NtNtCsh5cigu73tlT_8hayabusa10detections7configsNtB7_16EidMetricsOptionNtNtCseAiZU62iyN8_12clap_builder6derive14FromArgMatches20from_arg_matches_muts3_0Bb_
FNDA:0,_RNCNvXs13_NtNtCsh5cigu73tlT_8hayabusa10detections7configsNtB8_12OutputOptionNtNtCseAiZU62iyN8_12clap_builder6derive14FromArgMatches20from_arg_matches_muts7_0Bc_
FNDA:0,_RNCNvXsV_NtNtCsh5cigu73tlT_8hayabusa10detections7configsNtB7_18PivotKeywordOptionNtNtCseAiZU62iyN8_12clap_builder6derive14FromArgMatches27update_from_arg_matches_muts4_0Bb_
FNDA:0,_RNCNvXs13_NtNtCsh5cigu73tlT_8hayabusa10detections7configsNtB8_12OutputOptionNtNtCseAiZU62iyN8_12clap_builder6derive14FromArgMatches20from_arg_matches_mutsa_0Bc_
FNDA:0,_RNvXs1g_NtNtCsh5cigu73tlT_8hayabusa10detections7configsNtB6_15CsvOutputOptionNtNtCseAiZU62iyN8_12clap_builder6derive14FromArgMatches23update_from_arg_matches
FNDA:0,_RNvXs19_NtNtCsh5cigu73tlT_8hayabusa10detections7configsNtB6_13CommonOptionsNtNtCseAiZU62iyN8_12clap_builder6derive4Args12augment_args
FNDA:0,_RNvXsZ_NtNtCsh5cigu73tlT_8hayabusa10detections7configsNtB5_18LogonSummaryOptionNtNtCseAiZU62iyN8_12clap_builder6derive14FromArgMatches16from_arg_matches
FNDA:0,_RNvXs1p_NtNtCsh5cigu73tlT_8hayabusa10detections7configsNtB6_21ComputerMetricsOptionNtNtCseAiZU62iyN8_12clap_builder6derive4Args12augment_args
FNDA:0,_RNvXsu_NtNtCsh5cigu73tlT_8hayabusa10detections7configsNtB5_6ActionNtNtCseAiZU62iyN8_12clap_builder6derive10Subcommand30augment_subcommands_for_update
FNDA:0,_RNvXsw_NtNtCsh5cigu73tlT_8hayabusa10detections7configsNtB5_6ActionNtNtCsjwgglklCTGv_4core3fmt5Debug3fmt
FNDA:0,_RNCNvXsx_NtNtCsh5cigu73tlT_8hayabusa10detections7configsNtB7_18DetectCommonOptionNtNtCseAiZU62iyN8_12clap_builder6derive14FromArgMatches20from_arg_matches_muts3_0Bb_
FNDA:0,_RNvXs1h_NtNtCsh5cigu73tlT_8hayabusa10detections7configsNtB6_15CsvOutputOptionNtNtCseAiZU62iyN8_12clap_builder6derive4Args8group_id
FNDA:0,_RNvXsM_NtNtCsh5cigu73tlT_8hayabusa10detections7configsNtB5_12UpdateOptionNtNtCsjwgglklCTGv_4core3fmt5Debug3fmt
FNDA:0,_RNCNvXsF_NtNtCsh5cigu73tlT_8hayabusa10detections7configsNtB7_12SearchOptionNtNtCseAiZU62iyN8_12clap_builder6derive14FromArgMatches27update_from_arg_matches_muts7_0Bb_
FNDA:0,_RNCNvXsV_NtNtCsh5cigu73tlT_8hayabusa10detections7configsNtB7_18PivotKeywordOptionNtNtCseAiZU62iyN8_12clap_builder6derive14FromArgMatches27update_from_arg_matches_muts0_0Bb_
FNDA:0,_RNvXsQ_NtNtCsh5cigu73tlT_8hayabusa10detections7configsNtB5_17LevelTuningOptionNtNtCsjwgglklCTGv_4core3fmt5Debug3fmt
FNDA:0,_RNCNvXs1o_NtNtCsh5cigu73tlT_8hayabusa10detections7configsNtB8_21ComputerMetricsOptionNtNtCseAiZU62iyN8_12clap_builder6derive14FromArgMatches27update_from_arg_matches_muts1_0Bc_
FNDA:0,_RNvXs1g_NtNtCsh5cigu73tlT_8hayabusa10detections7configsNtB6_15CsvOutputOptionNtNtCseAiZU62iyN8_12clap_builder6derive14FromArgMatches16from_arg_matches
FNDA:0,_RNvXsZ_NtNtCsh5cigu73tlT_8hayabusa10detections7configsNtB5_18LogonSummaryOptionNtNtCseAiZU62iyN8_12clap_builder6derive14FromArgMatches23update_from_arg_matches
FNDA:0,_RNCNvXsV_NtNtCsh5cigu73tlT_8hayabusa10detections7configsNtB7_18PivotKeywordOptionNtNtCseAiZU62iyN8_12clap_builder6derive14FromArgMatches20from_arg_matches_muts1_0Bb_
FNDA:0,_RNCNvXs13_NtNtCsh5cigu73tlT_8hayabusa10detections7configsNtB8_12OutputOptionNtNtCseAiZU62iyN8_12clap_builder6derive14FromArgMatches27update_from_arg_matches_mutsf_0Bc_
FNDA:0,_RNCNvXsF_NtNtCsh5cigu73tlT_8hayabusa10detections7configsNtB7_12SearchOptionNtNtCseAiZU62iyN8_12clap_builder6derive14FromArgMatches20from_arg_matches_muts7_0Bb_
FNDA:0,_RNvXsE_NtNtCsh5cigu73tlT_8hayabusa10detections7configsNtB5_20DefaultProfileOptionNtNtCsjwgglklCTGv_4core3fmt5Debug3fmt
FNDA:0,_RNCNvXsF_NtNtCsh5cigu73tlT_8hayabusa10detections7configsNtB7_12SearchOptionNtNtCseAiZU62iyN8_12clap_builder6derive14FromArgMatches20from_arg_matches_mutsa_0Bb_
FNDA:0,_RNCNvXsR_NtNtCsh5cigu73tlT_8hayabusa10detections7configsNtB7_16EidMetricsOptionNtNtCseAiZU62iyN8_12clap_builder6derive14FromArgMatches20from_arg_matches_muts2_0Bb_
FNDA:0,_RNCNvXsZ_NtNtCsh5cigu73tlT_8hayabusa10detections7configsNtB7_18LogonSummaryOptionNtNtCseAiZU62iyN8_12clap_builder6derive14FromArgMatches27update_from_arg_matches_muts4_0Bb_
FNDA:0,_RNCNvXsF_NtNtCsh5cigu73tlT_8hayabusa10detections7configsNtB7_12SearchOptionNtNtCseAiZU62iyN8_12clap_builder6derive14FromArgMatches27update_from_arg_matches_mutsd_0Bb_
FNDA:0,_RNvXNtNtCsh5cigu73tlT_8hayabusa10detections7configsNtB2_12ConfigReaderNtNtCsjwgglklCTGv_4core7default7Default7default
FNDA:0,_RNvXs1l_NtNtCsh5cigu73tlT_8hayabusa10detections7configsNtB6_16JSONOutputOptionNtNtCseAiZU62iyN8_12clap_builder6derive4Args8group_id
FNDA:0,_RNvXsN_NtNtCsh5cigu73tlT_8hayabusa10detections7configsNtB5_17LevelTuningOptionNtNtCseAiZU62iyN8_12clap_builder6derive14FromArgMatches27update_from_arg_matches_mut
FNDA:0,_RNCNvXsR_NtNtCsh5cigu73tlT_8hayabusa10detections7configsNtB7_16EidMetricsOptionNtNtCseAiZU62iyN8_12clap_builder6derive14FromArgMatches20from_arg_matches_muts5_0Bb_
FNDA:0,_RNvXs1o_NtNtCsh5cigu73tlT_8hayabusa10detections7configsNtB6_21ComputerMetricsOptionNtNtCseAiZU62iyN8_12clap_builder6derive14FromArgMatches20from_arg_matches_mut
FNDA:0,_RNCNvXsF_NtNtCsh5cigu73tlT_8hayabusa10detections7configsNtB7_12SearchOptionNtNtCseAiZU62iyN8_12clap_builder6derive14FromArgMatches27update_from_arg_matches_mutsg_0Bb_
FNDA:0,_RNCNvXsF_NtNtCsh5cigu73tlT_8hayabusa10detections7configsNtB7_12SearchOptionNtNtCseAiZU62iyN8_12clap_builder6derive14FromArgMatches20from_arg_matches_muts0_0Bb_
FNDA:0,_RNCNvXsF_NtNtCsh5cigu73tlT_8hayabusa10detections7configsNtB7_12SearchOptionNtNtCseAiZU62iyN8_12clap_builder6derive14FromArgMatches27update_from_arg_matches_muts3_0Bb_
FNDA:0,_RNvXsU_NtNtCsh5cigu73tlT_8hayabusa10detections7configsNtB5_16EidMetricsOptionNtNtCsjwgglklCTGv_4core3fmt5Debug3fmt
FNDA:0,_RNCNvXs13_NtNtCsh5cigu73tlT_8hayabusa10detections7configsNtB8_12OutputOptionNtNtCseAiZU62iyN8_12clap_builder6derive14FromArgMatches20from_arg_matches_mutsn_0Bc_
FNDA:0,_RNvXs1o_NtNtCsh5cigu73tlT_8hayabusa10detections7configsNtB6_21ComputerMetricsOptionNtNtCseAiZU62iyN8_12clap_builder6derive14FromArgMatches16from_arg_matches
FNDA:0,_RNvXs1t_NtNtCsh5cigu73tlT_8hayabusa10detections7configsNtB6_6ConfigNtNtCseAiZU62iyN8_12clap_builder6derive14CommandFactory18command_for_update
FNDA:0,_RNCNvXsF_NtNtCsh5cigu73tlT_8hayabusa10detections7configsNtB7_12SearchOptionNtNtCseAiZU62iyN8_12clap_builder6derive14FromArgMatches20from_arg_matches_muts3_0Bb_
FNDA:0,_RNCNvXsF_NtNtCsh5cigu73tlT_8hayabusa10detections7configsNtB7_12SearchOptionNtNtCseAiZU62iyN8_12clap_builder6derive14FromArgMatches27update_from_arg_matches_muts6_0Bb_
FNDA:0,_RNvXsK_NtNtCsh5cigu73tlT_8hayabusa10detections7configsNtB5_12UpdateOptionNtNtCseAiZU62iyN8_12clap_builder6derive4Args12augment_args
FNDA:0,_RNCNvXs13_NtNtCsh5cigu73tlT_8hayabusa10detections7configsNtB8_12OutputOptionNtNtCseAiZU62iyN8_12clap_builder6derive14FromArgMatches27update_from_arg_matches_mutsl_0Bc_
FNDA:0,_RNCNvXsR_NtNtCsh5cigu73tlT_8hayabusa10detections7configsNtB7_16EidMetricsOptionNtNtCseAiZU62iyN8_12clap_builder6derive14FromArgMatches20from_arg_matches_mut0Bb_
FNDA:0,_RNCNvXsF_NtNtCsh5cigu73tlT_8hayabusa10detections7configsNtB7_12SearchOptionNtNtCseAiZU62iyN8_12clap_builder6derive14FromArgMatches27update_from_arg_matches_muts9_0Bb_
FNDA:0,_RNvXsK_NtNtCsh5cigu73tlT_8hayabusa10detections7configsNtB5_12UpdateOptionNtNtCseAiZU62iyN8_12clap_builder6derive4Args8group_id
FNDA:0,_RNCNvXs13_NtNtCsh5cigu73tlT_8hayabusa10detections7configsNtB8_12OutputOptionNtNtCseAiZU62iyN8_12clap_builder6derive14FromArgMatches20from_arg_matches_mutsg_0Bc_
FNDA:0,_RNvXs18_NtNtCsh5cigu73tlT_8hayabusa10detections7configsNtB6_13CommonOptionsNtNtCseAiZU62iyN8_12clap_builder6derive14FromArgMatches27update_from_arg_matches_mut
FNDA:0,_RNvXsu_NtNtCsh5cigu73tlT_8hayabusa10detections7configsNtB5_6ActionNtNtCseAiZU62iyN8_12clap_builder6derive10Subcommand14has_subcommand
FNDA:0,_RNCNvXsF_NtNtCsh5cigu73tlT_8hayabusa10detections7configsNtB7_12SearchOptionNtNtCseAiZU62iyN8_12clap_builder6derive14FromArgMatches27update_from_arg_matches_muts_0Bb_
FNDA:0,_RNCNvXs13_NtNtCsh5cigu73tlT_8hayabusa10detections7configsNtB8_12OutputOptionNtNtCseAiZU62iyN8_12clap_builder6derive14FromArgMatches20from_arg_matches_mutsj_0Bc_
FNDA:0,_RNCNvXs13_NtNtCsh5cigu73tlT_8hayabusa10detections7configsNtB8_12OutputOptionNtNtCseAiZU62iyN8_12clap_builder6derive14FromArgMatches27update_from_arg_matches_mutse_0Bc_
FNDA:0,_RNvXs1c_NtNtCsh5cigu73tlT_8hayabusa10detections7configsNtB6_11InputOptionNtNtCseAiZU62iyN8_12clap_builder6derive14FromArgMatches20from_arg_matches_mut
FNDA:0,_RNvXs1u_NtNtCsh5cigu73tlT_8hayabusa10detections7configsNtB6_6ConfigNtNtCseAiZU62iyN8_12clap_builder6derive14FromArgMatches20from_arg_matches_mut
FNDA:0,_RNCNvXsx_NtNtCsh5cigu73tlT_8hayabusa10detections7configsNtB7_18DetectCommonOptionNtNtCseAiZU62iyN8_12clap_builder6derive14FromArgMatches27update_from_arg_matches_muts0_0Bb_
FNDA:0,_RNCNvXs13_NtNtCsh5cigu73tlT_8hayabusa10detections7configsNtB8_12OutputOptionNtNtCseAiZU62iyN8_12clap_builder6derive14FromArgMatches27update_from_arg_matches_mutsh_0Bc_
FNDA:0,_RNvXsB_NtNtCsh5cigu73tlT_8hayabusa10detections7configsNtB5_20DefaultProfileOptionNtNtCseAiZU62iyN8_12clap_builder6derive14FromArgMatches16from_arg_matches
FNDA:0,_RNvXsC_NtNtCsh5cigu73tlT_8hayabusa10detections7configsNtB5_20DefaultProfileOptionNtNtCseAiZU62iyN8_12clap_builder6derive4Args12augment_args
FNDA:0,_RNCNvXsF_NtNtCsh5cigu73tlT_8hayabusa10detections7configsNtB7_12SearchOptionNtNtCseAiZU62iyN8_12clap_builder6derive14FromArgMatches20from_arg_matches_muts9_0Bb_
FNDA:0,_RNvXs1u_NtNtCsh5cigu73tlT_8hayabusa10detections7configsNtB6_6ConfigNtNtCseAiZU62iyN8_12clap_builder6derive14FromArgMatches16from_arg_matches
FNDA:0,_RNCNvXsx_NtNtCsh5cigu73tlT_8hayabusa10detections7configsNtB7_18DetectCommonOptionNtNtCseAiZU62iyN8_12clap_builder6derive14FromArgMatches27update_from_arg_matches_muts3_0Bb_
FNDA:0,_RNCNvXsV_NtNtCsh5cigu73tlT_8hayabusa10detections7configsNtB7_18PivotKeywordOptionNtNtCseAiZU62iyN8_12clap_builder6derive14FromArgMatches27update_from_arg_matches_muts6_0Bb_
FNDA:0,_RNvXsK_NtNtCsh5cigu73tlT_8hayabusa10detections7configsNtB5_12UpdateOptionNtNtCseAiZU62iyN8_12clap_builder6derive4Args23augment_args_for_update
FNDA:0,_RNCNvXsV_NtNtCsh5cigu73tlT_8hayabusa10detections7configsNtB7_18PivotKeywordOptionNtNtCseAiZU62iyN8_12clap_builder6derive14FromArgMatches20from_arg_matches_muts3_0Bb_
FNDA:0,_RNCNvXs13_NtNtCsh5cigu73tlT_8hayabusa10detections7configsNtB8_12OutputOptionNtNtCseAiZU62iyN8_12clap_builder6derive14FromArgMatches27update_from_arg_matches_muts7_0Bc_
FNDA:0,_RNCNvXs13_NtNtCsh5cigu73tlT_8hayabusa10detections7configsNtB8_12OutputOptionNtNtCseAiZU62iyN8_12clap_builder6derive14FromArgMatches20from_arg_matches_mut0Bc_
FNDA:0,_RNCNvXsV_NtNtCsh5cigu73tlT_8hayabusa10detections7configsNtB7_18PivotKeywordOptionNtNtCseAiZU62iyN8_12clap_builder6derive14FromArgMatches20from_arg_matches_muts6_0Bb_
FNDA:0,_RNCNvXs1u_NtNtCsh5cigu73tlT_8hayabusa10detections7configsNtB8_6ConfigNtNtCseAiZU62iyN8_12clap_builder6derive14FromArgMatches20from_arg_matches_mut0Bc_
FNDA:0,_RNvXs12_NtNtCsh5cigu73tlT_8hayabusa10detections7configsNtB6_18LogonSummaryOptionNtNtCsjwgglklCTGv_4core3fmt5Debug3fmt
FNDA:0,_RNvXs14_NtNtCsh5cigu73tlT_8hayabusa10detections7configsNtB6_12OutputOptionNtNtCseAiZU62iyN8_12clap_builder6derive4Args8group_id
FNDA:0,_RNCNvXsR_NtNtCsh5cigu73tlT_8hayabusa10detections7configsNtB7_16EidMetricsOptionNtNtCseAiZU62iyN8_12clap_builder6derive14FromArgMatches27update_from_arg_matches_mut0Bb_
FNDA:0,_RNCNvXs1o_NtNtCsh5cigu73tlT_8hayabusa10detections7configsNtB8_21ComputerMetricsOptionNtNtCseAiZU62iyN8_12clap_builder6derive14FromArgMatches27update_from_arg_matches_muts3_0Bc_
FNDA:0,_RNCNvXsR_NtNtCsh5cigu73tlT_8hayabusa10detections7configsNtB7_16EidMetricsOptionNtNtCseAiZU62iyN8_12clap_builder6derive14FromArgMatches27update_from_arg_matches_muts1_0Bb_
FNDA:0,_RNvXs1h_NtNtCsh5cigu73tlT_8hayabusa10detections7configsNtB6_15CsvOutputOptionNtNtCseAiZU62iyN8_12clap_builder6derive4Args23augment_args_for_update
FNDA:0,_RNCNvXs1o_NtNtCsh5cigu73tlT_8hayabusa10detections7configsNtB8_21ComputerMetricsOptionNtNtCseAiZU62iyN8_12clap_builder6derive14FromArgMatches20from_arg_matches_muts0_0Bc_
FNDA:0,_RNvXsV_NtNtCsh5cigu73tlT_8hayabusa10detections7configsNtB5_18PivotKeywordOptionNtNtCseAiZU62iyN8_12clap_builder6derive14FromArgMatches27update_from_arg_matches_mut
FNDA:0,_RNCNvXsR_NtNtCsh5cigu73tlT_8hayabusa10detections7configsNtB7_16EidMetricsOptionNtNtCseAiZU62iyN8_12clap_builder6derive14FromArgMatches27update_from_arg_matches_muts4_0Bb_
FNDA:0,_RNvXs1C_NtNtCsh5cigu73tlT_8hayabusa10detections7configsNtB6_19EventKeyAliasConfigNtNtCsjwgglklCTGv_4core3fmt5Debug3fmt
FNDA:0,_RNvXsV_NtNtCsh5cigu73tlT_8hayabusa10detections7configsNtB5_18PivotKeywordOptionNtNtCseAiZU62iyN8_12clap_builder6derive14FromArgMatches23update_from_arg_matches
FNDA:0,_RNCNvXsR_NtNtCsh5cigu73tlT_8hayabusa10detections7configsNtB7_16EidMetricsOptionNtNtCseAiZU62iyN8_12clap_builder6derive14FromArgMatches20from_arg_matches_muts4_0Bb_
FNDA:0,_RNCNvXs1c_NtNtCsh5cigu73tlT_8hayabusa10detections7configsNtB8_11InputOptionNtNtCseAiZU62iyN8_12clap_builder6derive14FromArgMatches20from_arg_matches_mut0Bc_
FNDA:0,_RNCNvXsF_NtNtCsh5cigu73tlT_8hayabusa10detections7configsNtB7_12SearchOptionNtNtCseAiZU62iyN8_12clap_builder6derive14FromArgMatches27update_from_arg_matches_mutsf_0Bb_
FNDA:0,_RNvXsy_NtNtCsh5cigu73tlT_8hayabusa10detections7configsNtB5_18DetectCommonOptionNtNtCseAiZU62iyN8_12clap_builder6derive4Args12augment_args
FNDA:0,_RNvXs18_NtNtCsh5cigu73tlT_8hayabusa10detections7configsNtB6_13CommonOptionsNtNtCseAiZU62iyN8_12clap_builder6derive14FromArgMatches23update_from_arg_matches
FNDA:0,_RNCNvXs13_NtNtCsh5cigu73tlT_8hayabusa10detections7configsNtB8_12OutputOptionNtNtCseAiZU62iyN8_12clap_builder6derive14FromArgMatches27update_from_arg_matches_mutsk_0Bc_
FNDA:0,_RNvXst_NtNtCsh5cigu73tlT_8hayabusa10detections7configsNtB5_6ActionNtNtCseAiZU62iyN8_12clap_builder6derive14FromArgMatches23update_from_arg_matches
FNDA:0,_RNCNvXsF_NtNtCsh5cigu73tlT_8hayabusa10detections7configsNtB7_12SearchOptionNtNtCseAiZU62iyN8_12clap_builder6derive14FromArgMatches20from_arg_matches_mutsc_0Bb_
FNDA:0,_RNCNvXs13_NtNtCsh5cigu73tlT_8hayabusa10detections7configsNtB8_12OutputOptionNtNtCseAiZU62iyN8_12clap_builder6derive14FromArgMatches20from_arg_matches_mutsb_0Bc_
FNDA:0,_RNvXsB_NtNtCsh5cigu73tlT_8hayabusa10detections7configsNtB5_20DefaultProfileOptionNtNtCseAiZU62iyN8_12clap_builder6derive14FromArgMatches23update_from_arg_matches
FNDA:0,_RNvXs1h_NtNtCsh5cigu73tlT_8hayabusa10detections7configsNtB6_15CsvOutputOptionNtNtCseAiZU62iyN8_12clap_builder6derive4Args12augment_args
FNDA:0,_RNvMs1_NtNtCsh5cigu73tlT_8hayabusa10detections7configsNtB5_12ConfigReader3new
FNDA:0,_RNvXs1y_NtNtCsh5cigu73tlT_8hayabusa10detections7configsNtB6_9TargetIdsNtNtCsjwgglklCTGv_4core3fmt5Debug3fmt
FNDA:0,_RNvXsx_NtNtCsh5cigu73tlT_8hayabusa10detections7configsNtB5_18DetectCommonOptionNtNtCseAiZU62iyN8_12clap_builder6derive14FromArgMatches16from_arg_matches
FNDA:0,_RNCNvXs13_NtNtCsh5cigu73tlT_8hayabusa10detections7configsNtB8_12OutputOptionNtNtCseAiZU62iyN8_12clap_builder6derive14FromArgMatches27update_from_arg_matches_mutsn_0Bc_
FNDA:0,_RNCNvXsF_NtNtCsh5cigu73tlT_8hayabusa10detections7configsNtB7_12SearchOptionNtNtCseAiZU62iyN8_12clap_builder6derive14FromArgMatches20from_arg_matches_mutsf_0Bb_
FNDA:0,_RNCNvXs13_NtNtCsh5cigu73tlT_8hayabusa10detections7configsNtB8_12OutputOptionNtNtCseAiZU62iyN8_12clap_builder6derive14FromArgMatches20from_arg_matches_muts1_0Bc_
FNDA:0,_RNvXs1x_NtNtCsh5cigu73tlT_8hayabusa10detections7configsNtB6_6ConfigNtNtCsjwgglklCTGv_4core3fmt5Debug3fmt
FNDA:0,_RNCNvXsx_NtNtCsh5cigu73tlT_8hayabusa10detections7configsNtB7_18DetectCommonOptionNtNtCseAiZU62iyN8_12clap_builder6derive14FromArgMatches20from_arg_matches_muts4_0Bb_
FNDA:0,_RNvXsF_NtNtCsh5cigu73tlT_8hayabusa10detections7configsNtB5_12SearchOptionNtNtCseAiZU62iyN8_12clap_builder6derive14FromArgMatches23update_from_arg_matches
FNDA:0,_RNCNvXsV_NtNtCsh5cigu73tlT_8hayabusa10detections7configsNtB7_18PivotKeywordOptionNtNtCseAiZU62iyN8_12clap_builder6derive14FromArgMatches27update_from_arg_matches_mut0Bb_
FNDA:0,_RNCNvXs13_NtNtCsh5cigu73tlT_8hayabusa10detections7configsNtB8_12OutputOptionNtNtCseAiZU62iyN8_12clap_builder6derive14FromArgMatches20from_arg_matches_muts4_0Bc_
FNDA:0,_RNvXsV_NtNtCsh5cigu73tlT_8hayabusa10detections7configsNtB5_18PivotKeywordOptionNtNtCseAiZU62iyN8_12clap_builder6derive14FromArgMatches20from_arg_matches_mut
FNDA:0,_RNCNvXsx_NtNtCsh5cigu73tlT_8hayabusa10detections7configsNtB7_18DetectCommonOptionNtNtCseAiZU62iyN8_12clap_builder6derive14FromArgMatches27update_from_arg_matches_mut0Bb_
FNDA:0,_RNCNvXs13_NtNtCsh5cigu73tlT_8hayabusa10detections7configsNtB8_12OutputOptionNtNtCseAiZU62iyN8_12clap_builder6derive14FromArgMatches27update_from_arg_matches_muts_0Bc_
FNDA:0,_RNCNvXs18_NtNtCsh5cigu73tlT_8hayabusa10detections7configsNtB8_13CommonOptionsNtNtCseAiZU62iyN8_12clap_builder6derive14FromArgMatches20from_arg_matches_mut0Bc_
FNDA:0,_RNCNvXs13_NtNtCsh5cigu73tlT_8hayabusa10detections7configsNtB8_12OutputOptionNtNtCseAiZU62iyN8_12clap_builder6derive14FromArgMatches27update_from_arg_matches_mutsg_0Bc_
FNDA:0,_RNvXsV_NtNtCsh5cigu73tlT_8hayabusa10detections7configsNtB5_18PivotKeywordOptionNtNtCseAiZU62iyN8_12clap_builder6derive14FromArgMatches16from_arg_matches
FNDA:0,_RNCNvXs13_NtNtCsh5cigu73tlT_8hayabusa10detections7configsNtB8_12OutputOptionNtNtCseAiZU62iyN8_12clap_builder6derive14FromArgMatches27update_from_arg_matches_muts2_0Bc_
FNDA:0,_RNCNvXsZ_NtNtCsh5cigu73tlT_8hayabusa10detections7configsNtB7_18LogonSummaryOptionNtNtCseAiZU62iyN8_12clap_builder6derive14FromArgMatches27update_from_arg_matches_muts1_0Bb_
FNDA:0,_RNvXsC_NtNtCsh5cigu73tlT_8hayabusa10detections7configsNtB5_20DefaultProfileOptionNtNtCseAiZU62iyN8_12clap_builder6derive4Args8group_id
FNDA:0,_RNvXs1o_NtNtCsh5cigu73tlT_8hayabusa10detections7configsNtB6_21ComputerMetricsOptionNtNtCseAiZU62iyN8_12clap_builder6derive14FromArgMatches23update_from_arg_matches
FNDA:0,_RNCNvXs13_NtNtCsh5cigu73tlT_8hayabusa10detections7configsNtB8_12OutputOptionNtNtCseAiZU62iyN8_12clap_builder6derive14FromArgMatches20from_arg_matches_mutsl_0Bc_
FNDA:0,_RNvXsx_NtNtCsh5cigu73tlT_8hayabusa10detections7configsNtB5_18DetectCommonOptionNtNtCseAiZU62iyN8_12clap_builder6derive14FromArgMatches23update_from_arg_matches
FNDA:0,_RNCNvXsV_NtNtCsh5cigu73tlT_8hayabusa10detections7configsNtB7_18PivotKeywordOptionNtNtCseAiZU62iyN8_12clap_builder6derive14FromArgMatches20from_arg_matches_muts5_0Bb_
FNDA:0,_RNvXs14_NtNtCsh5cigu73tlT_8hayabusa10detections7configsNtB6_12OutputOptionNtNtCseAiZU62iyN8_12clap_builder6derive4Args12augment_args
FNDA:0,_RNCNvXsF_NtNtCsh5cigu73tlT_8hayabusa10detections7configsNtB7_12SearchOptionNtNtCseAiZU62iyN8_12clap_builder6derive14FromArgMatches27update_from_arg_matches_mutse_0Bb_
FNDA:0,_RNCNvXs1o_NtNtCsh5cigu73tlT_8hayabusa10detections7configsNtB8_21ComputerMetricsOptionNtNtCseAiZU62iyN8_12clap_builder6derive14FromArgMatches20from_arg_matches_muts3_0Bc_
FNDA:0,_RNCNvXs13_NtNtCsh5cigu73tlT_8hayabusa10detections7configsNtB8_12OutputOptionNtNtCseAiZU62iyN8_12clap_builder6derive14FromArgMatches20from_arg_matches_mutso_0Bc_
FNDA:0,_RNvXs1d_NtNtCsh5cigu73tlT_8hayabusa10detections7configsNtB6_11InputOptionNtNtCseAiZU62iyN8_12clap_builder6derive4Args12augment_args
FNDA:0,_RNCNvXs1o_NtNtCsh5cigu73tlT_8hayabusa10detections7configsNtB8_21ComputerMetricsOptionNtNtCseAiZU62iyN8_12clap_builder6derive14FromArgMatches27update_from_arg_matches_mut0Bc_
FNDA:0,_RNCNvXsZ_NtNtCsh5cigu73tlT_8hayabusa10detections7configsNtB7_18LogonSummaryOptionNtNtCseAiZU62iyN8_12clap_builder6derive14FromArgMatches20from_arg_matches_muts4_0Bb_
FNDA:0,_RNvXs1v_NtNtCsh5cigu73tlT_8hayabusa10detections7configsNtB6_6ConfigNtNtCseAiZU62iyN8_12clap_builder6derive4Args12augment_args
FNDA:0,_RNCNvXs13_NtNtCsh5cigu73tlT_8hayabusa10detections7configsNtB8_12OutputOptionNtNtCseAiZU62iyN8_12clap_builder6derive14FromArgMatches20from_arg_matches_muts3_0Bc_
FNDA:0,_RNCNvXsR_NtNtCsh5cigu73tlT_8hayabusa10detections7configsNtB7_16EidMetricsOptionNtNtCseAiZU62iyN8_12clap_builder6derive14FromArgMatches20from_arg_matches_muts_0Bb_
FNDA:0,_RNvXs14_NtNtCsh5cigu73tlT_8hayabusa10detections7configsNtB6_12OutputOptionNtNtCseAiZU62iyN8_12clap_builder6derive4Args23augment_args_for_update
FNDA:0,_RNvXs1k_NtNtCsh5cigu73tlT_8hayabusa10detections7configsNtB6_16JSONOutputOptionNtNtCseAiZU62iyN8_12clap_builder6derive14FromArgMatches27update_from_arg_matches_mut
FNDA:0,_RNvXs1b_NtNtCsh5cigu73tlT_8hayabusa10detections7configsNtB6_13CommonOptionsNtNtCsjwgglklCTGv_4core3fmt5Debug3fmt
FNDA:0,_RNvXs1d_NtNtCsh5cigu73tlT_8hayabusa10detections7configsNtB6_11InputOptionNtNtCseAiZU62iyN8_12clap_builder6derive4Args23augment_args_for_update
FNDA:0,_RNCNvXsV_NtNtCsh5cigu73tlT_8hayabusa10detections7configsNtB7_18PivotKeywordOptionNtNtCseAiZU62iyN8_12clap_builder6derive14FromArgMatches27update_from_arg_matches_muts3_0Bb_
FNDA:0,_RNvXs1k_NtNtCsh5cigu73tlT_8hayabusa10detections7configsNtB6_16JSONOutputOptionNtNtCseAiZU62iyN8_12clap_builder6derive14FromArgMatches23update_from_arg_matches
FNDA:0,_RNvXsS_NtNtCsh5cigu73tlT_8hayabusa10detections7configsNtB5_16EidMetricsOptionNtNtCseAiZU62iyN8_12clap_builder6derive4Args8group_id
FNDA:0,_RNvXsG_NtNtCsh5cigu73tlT_8hayabusa10detections7configsNtB5_12SearchOptionNtNtCseAiZU62iyN8_12clap_builder6derive4Args23augment_args_for_update
FNDA:0,_RNCNvXsV_NtNtCsh5cigu73tlT_8hayabusa10detections7configsNtB7_18PivotKeywordOptionNtNtCseAiZU62iyN8_12clap_builder6derive14FromArgMatches20from_arg_matches_muts4_0Bb_
FNDA:0,_RNvXs1v_NtNtCsh5cigu73tlT_8hayabusa10detections7configsNtB6_6ConfigNtNtCseAiZU62iyN8_12clap_builder6derive4Args23augment_args_for_update
FNDA:0,_RNvXsJ_NtNtCsh5cigu73tlT_8hayabusa10detections7configsNtB5_12UpdateOptionNtNtCseAiZU62iyN8_12clap_builder6derive14FromArgMatches27update_from_arg_matches_mut
FNDA:0,_RNvXsS_NtNtCsh5cigu73tlT_8hayabusa10detections7configsNtB5_16EidMetricsOptionNtNtCseAiZU62iyN8_12clap_builder6derive4Args23augment_args_for_update
FNDA:0,_RNCNvXs13_NtNtCsh5cigu73tlT_8hayabusa10detections7configsNtB8_12OutputOptionNtNtCseAiZU62iyN8_12clap_builder6derive14FromArgMatches27update_from_arg_matches_muts8_0Bc_
FNDA:0,_RNCNvXsV_NtNtCsh5cigu73tlT_8hayabusa10detections7configsNtB7_18PivotKeywordOptionNtNtCseAiZU62iyN8_12clap_builder6derive14FromArgMatches27update_from_arg_matches_muts_0Bb_
FNDA:0,_RNCNvXs1o_NtNtCsh5cigu73tlT_8hayabusa10detections7configsNtB8_21ComputerMetricsOptionNtNtCseAiZU62iyN8_12clap_builder6derive14FromArgMatches27update_from_arg_matches_muts0_0Bc_
FNDA:0,_RNvXs13_NtNtCsh5cigu73tlT_8hayabusa10detections7configsNtB6_12OutputOptionNtNtCseAiZU62iyN8_12clap_builder6derive14FromArgMatches23update_from_arg_matches
FNDA:0,_RNvXs10_NtNtCsh5cigu73tlT_8hayabusa10detections7configsNtB6_18LogonSummaryOptionNtNtCseAiZU62iyN8_12clap_builder6derive4Args12augment_args
FNDA:0,_RNCNvXs1c_NtNtCsh5cigu73tlT_8hayabusa10detections7configsNtB8_11InputOptionNtNtCseAiZU62iyN8_12clap_builder6derive14FromArgMatches27update_from_arg_matches_muts_0Bc_
FNDA:0,_RNCNvXs13_NtNtCsh5cigu73tlT_8hayabusa10detections7configsNtB8_12OutputOptionNtNtCseAiZU62iyN8_12clap_builder6derive14FromArgMatches27update_from_arg_matches_mutsb_0Bc_
FNDA:0,_RNvXst_NtNtCsh5cigu73tlT_8hayabusa10detections7configsNtB5_6ActionNtNtCseAiZU62iyN8_12clap_builder6derive14FromArgMatches16from_arg_matches
FNDA:0,_RNvXsu_NtNtCsh5cigu73tlT_8hayabusa10detections7configsNtB5_6ActionNtNtCseAiZU62iyN8_12clap_builder6derive10Subcommand19augment_subcommands
FNDA:0,_RNCNvXs1o_NtNtCsh5cigu73tlT_8hayabusa10detections7configsNtB8_21ComputerMetricsOptionNtNtCseAiZU62iyN8_12clap_builder6derive14FromArgMatches20from_arg_matches_mut0Bc_
FNDA:0,_RNvXs1j_NtNtCsh5cigu73tlT_8hayabusa10detections7configsNtB6_15CsvOutputOptionNtNtCsjwgglklCTGv_4core3fmt5Debug3fmt
FNDA:0,_RNvXsO_NtNtCsh5cigu73tlT_8hayabusa10detections7configsNtB5_17LevelTuningOptionNtNtCseAiZU62iyN8_12clap_builder6derive4Args23augment_args_for_update
FNDA:0,_RNCNvXs1o_NtNtCsh5cigu73tlT_8hayabusa10detections7configsNtB8_21ComputerMetricsOptionNtNtCseAiZU62iyN8_12clap_builder6derive14FromArgMatches20from_arg_matches_muts1_0Bc_
FNDA:0,_RNCNvXsF_NtNtCsh5cigu73tlT_8hayabusa10detections7configsNtB7_12SearchOptionNtNtCseAiZU62iyN8_12clap_builder6derive14FromArgMatches20from_arg_matches_muts6_0Bb_
FNDA:0,_RNvXsR_NtNtCsh5cigu73tlT_8hayabusa10detections7configsNtB5_16EidMetricsOptionNtNtCseAiZU62iyN8_12clap_builder6derive14FromArgMatches27update_from_arg_matches_mut
FNDA:0,_RNCNvXsJ_NtNtCsh5cigu73tlT_8hayabusa10detections7configsNtB7_12UpdateOptionNtNtCseAiZU62iyN8_12clap_builder6derive14FromArgMatches20from_arg_matches_mut0Bb_
FNDA:0,_RNvXsJ_NtNtCsh5cigu73tlT_8hayabusa10detections7configsNtB5_12UpdateOptionNtNtCseAiZU62iyN8_12clap_builder6derive14FromArgMatches20from_arg_matches_mut
FNDA:0,_RNCNvXsR_NtNtCsh5cigu73tlT_8hayabusa10detections7configsNtB7_16EidMetricsOptionNtNtCseAiZU62iyN8_12clap_builder6derive14FromArgMatches20from_arg_matches_muts1_0Bb_
FNDA:0,_RNvXsW_NtNtCsh5cigu73tlT_8hayabusa10detections7configsNtB5_18PivotKeywordOptionNtNtCseAiZU62iyN8_12clap_builder6derive4Args8group_id
FNDA:0,_RNCNvXsF_NtNtCsh5cigu73tlT_8hayabusa10detections7configsNtB7_12SearchOptionNtNtCseAiZU62iyN8_12clap_builder6derive14FromArgMatches27update_from_arg_matches_mutsc_0Bb_
FNDA:0,_RNvXsR_NtNtCsh5cigu73tlT_8hayabusa10detections7configsNtB5_16EidMetricsOptionNtNtCseAiZU62iyN8_12clap_builder6derive14FromArgMatches23update_from_arg_matches
FNDA:0,_RNvXsZ_NtNtCsh5cigu73tlT_8hayabusa10detections7configsNtB5_18LogonSummaryOptionNtNtCseAiZU62iyN8_12clap_builder6derive14FromArgMatches20from_arg_matches_mut
FNDA:0,_RNvXs10_NtNtCsh5cigu73tlT_8hayabusa10detections7configsNtB6_18LogonSummaryOptionNtNtCseAiZU62iyN8_12clap_builder6derive4Args23augment_args_for_update
FNDA:0,_RNCNvXs13_NtNtCsh5cigu73tlT_8hayabusa10detections7configsNtB8_12OutputOptionNtNtCseAiZU62iyN8_12clap_builder6derive14FromArgMatches20from_arg_matches_muts9_0Bc_
FNDA:0,_RNCNvXsF_NtNtCsh5cigu73tlT_8hayabusa10detections7configsNtB7_12SearchOptionNtNtCseAiZU62iyN8_12clap_builder6derive14FromArgMatches27update_from_arg_matches_muts2_0Bb_
FNDA:0,_RNCNvXs13_NtNtCsh5cigu73tlT_8hayabusa10detections7configsNtB8_12OutputOptionNtNtCseAiZU62iyN8_12clap_builder6derive14FromArgMatches20from_arg_matches_mutsm_0Bc_
FNDA:0,_RNCNvXsF_NtNtCsh5cigu73tlT_8hayabusa10detections7configsNtB7_12SearchOptionNtNtCseAiZU62iyN8_12clap_builder6derive14FromArgMatches27update_from_arg_matches_muts5_0Bb_
FNDA:0,_RNCNvXsx_NtNtCsh5cigu73tlT_8hayabusa10detections7configsNtB7_18DetectCommonOptionNtNtCseAiZU62iyN8_12clap_builder6derive14FromArgMatches20from_arg_matches_muts2_0Bb_
FNDA:0,_RNvXs19_NtNtCsh5cigu73tlT_8hayabusa10detections7configsNtB6_13CommonOptionsNtNtCseAiZU62iyN8_12clap_builder6derive4Args8group_id
FNDA:0,_RNvXs1n_NtNtCsh5cigu73tlT_8hayabusa10detections7configsNtB6_16JSONOutputOptionNtNtCsjwgglklCTGv_4core3fmt5Debug3fmt
FNDA:0,_RNvXs1p_NtNtCsh5cigu73tlT_8hayabusa10detections7configsNtB6_21ComputerMetricsOptionNtNtCseAiZU62iyN8_12clap_builder6derive4Args8group_id
FNDA:0,_RNvXs1g_NtNtCsh5cigu73tlT_8hayabusa10detections7configsNtB6_15CsvOutputOptionNtNtCseAiZU62iyN8_12clap_builder6derive14FromArgMatches20from_arg_matches_mut
FNDA:0,_RNvXsr_NtNtCsh5cigu73tlT_8hayabusa10detections7configsNtB5_12StoredStaticNtNtCsjwgglklCTGv_4core3fmt5Debug3fmt
FNDA:0,_RNCNvXsF_NtNtCsh5cigu73tlT_8hayabusa10detections7configsNtB7_12SearchOptionNtNtCseAiZU62iyN8_12clap_builder6derive14FromArgMatches20from_arg_matches_mutsg_0Bb_
FNDA:0,_RNCNvXs13_NtNtCsh5cigu73tlT_8hayabusa10detections7configsNtB8_12OutputOptionNtNtCseAiZU62iyN8_12clap_builder6derive14FromArgMatches27update_from_arg_matches_mutsa_0Bc_
FNDA:0,_RNCNvXsF_NtNtCsh5cigu73tlT_8hayabusa10detections7configsNtB7_12SearchOptionNtNtCseAiZU62iyN8_12clap_builder6derive14FromArgMatches20from_arg_matches_muts2_0Bb_
FNDA:18,_RNvXs1e_NtNtCsk6AfKij8NQT_8hayabusa10detections7configsNtB6_11InputOptionNtNtCsjwgglklCTGv_4core5clone5Clone5cloneCs7Hls9FlRdLI_8hayabusa
FNDA:18,_RNvXss_NtNtCsk6AfKij8NQT_8hayabusa10detections7configsNtB5_12StoredStaticNtNtCsjwgglklCTGv_4core5clone5Clone5cloneCs7Hls9FlRdLI_8hayabusa
FNDA:18,_RNvXs15_NtNtCsk6AfKij8NQT_8hayabusa10detections7configsNtB6_12OutputOptionNtNtCsjwgglklCTGv_4core5clone5Clone5cloneCs7Hls9FlRdLI_8hayabusa
FNDA:18,_RNvXsz_NtNtCsk6AfKij8NQT_8hayabusa10detections7configsNtB5_18DetectCommonOptionNtNtCsjwgglklCTGv_4core5clone5Clone5cloneCs7Hls9FlRdLI_8hayabusa
FNDA:36,_RNvXs1a_NtNtCsk6AfKij8NQT_8hayabusa10detections7configsNtB6_13CommonOptionsNtNtCsjwgglklCTGv_4core5clone5Clone5cloneCs7Hls9FlRdLI_8hayabusa
FNDA:36,_RNvXs1D_NtNtCsk6AfKij8NQT_8hayabusa10detections7configsNtB6_19EventKeyAliasConfigNtNtCsjwgglklCTGv_4core5clone5Clone5cloneCs7Hls9FlRdLI_8hayabusa
FNDA:9090,_RNvXs1F_NtNtCsk6AfKij8NQT_8hayabusa10detections7configsNtB6_9EventInfoNtNtCsjwgglklCTGv_4core5clone5Clone5cloneCs7Hls9FlRdLI_8hayabusa
FNDA:18,_RNvXs1H_NtNtCsk6AfKij8NQT_8hayabusa10detections7configsNtB6_15EventInfoConfigNtNtCsjwgglklCTGv_4core5clone5Clone5cloneCs7Hls9FlRdLI_8hayabusa
FNDA:0,_RNvXsH_NtNtCsk6AfKij8NQT_8hayabusa10detections7configsNtB5_12SearchOptionNtNtCsjwgglklCTGv_4core5clone5Clone5cloneCs7Hls9FlRdLI_8hayabusa
FNDA:36,_RNvXs1z_NtNtCsk6AfKij8NQT_8hayabusa10detections7configsNtB6_9TargetIdsNtNtCsjwgglklCTGv_4core5clone5Clone5cloneCs7Hls9FlRdLI_8hayabusa
FNDA:18,_RNvXs1w_NtNtCsk6AfKij8NQT_8hayabusa10detections7configsNtB6_6ConfigNtNtCsjwgglklCTGv_4core5clone5Clone5cloneCs7Hls9FlRdLI_8hayabusa
FNDA:0,_RNCNvXsR_NtNtCsk6AfKij8NQT_8hayabusa10detections7configsNtB7_16EidMetricsOptionNtNtCseAiZU62iyN8_12clap_builder6derive14FromArgMatches20from_arg_matches_muts3_0Bb_
FNDA:0,_RNCNvXsV_NtNtCsk6AfKij8NQT_8hayabusa10detections7configsNtB7_18PivotKeywordOptionNtNtCseAiZU62iyN8_12clap_builder6derive14FromArgMatches27update_from_arg_matches_muts0_0Bb_
FNDA:0,_RNCNvXsx_NtNtCsk6AfKij8NQT_8hayabusa10detections7configsNtB7_18DetectCommonOptionNtNtCseAiZU62iyN8_12clap_builder6derive14FromArgMatches27update_from_arg_matches_muts0_0Bb_
FNDA:0,_RNvXsG_NtNtCsk6AfKij8NQT_8hayabusa10detections7configsNtB5_12SearchOptionNtNtCseAiZU62iyN8_12clap_builder6derive4Args23augment_args_for_update
FNDA:0,_RNCNvMs_NtNtCsk6AfKij8NQT_8hayabusa10detections7configsNtB6_12StoredStatic18create_static_datas2_0Ba_
FNDA:39,_RNvXsz_NtNtCsk6AfKij8NQT_8hayabusa10detections7configsNtB5_18DetectCommonOptionNtNtCsjwgglklCTGv_4core5clone5Clone5cloneB9_
FNDA:0,_RNvNtNtCsk6AfKij8NQT_8hayabusa10detections7configs19load_pivot_keywords
FNDA:0,_RNvXsL_NtNtCsk6AfKij8NQT_8hayabusa10detections7configsNtB5_12UpdateOptionNtNtCsjwgglklCTGv_4core5clone5Clone5cloneB9_
FNDA:0,_RNCNvXsR_NtNtCsk6AfKij8NQT_8hayabusa10detections7configsNtB7_16EidMetricsOptionNtNtCseAiZU62iyN8_12clap_builder6derive14FromArgMatches20from_arg_matches_muts1_0Bb_
FNDA:0,_RNvXsE_NtNtCsk6AfKij8NQT_8hayabusa10detections7configsNtB5_20DefaultProfileOptionNtNtCsjwgglklCTGv_4core3fmt5Debug3fmt
FNDA:0,_RNCNCNvMs4_NtNtCsk6AfKij8NQT_8hayabusa10detections7configsNtB9_15TargetEventTime3news_0s2_0Bd_
FNDA:0,_RNCNvXsZ_NtNtCsk6AfKij8NQT_8hayabusa10detections7configsNtB7_18LogonSummaryOptionNtNtCseAiZU62iyN8_12clap_builder6derive14FromArgMatches20from_arg_matches_muts_0Bb_
FNDA:0,_RNCNvXs13_NtNtCsk6AfKij8NQT_8hayabusa10detections7configsNtB8_12OutputOptionNtNtCseAiZU62iyN8_12clap_builder6derive14FromArgMatches20from_arg_matches_muts3_0Bc_
FNDA:0,_RNCNvXsF_NtNtCsk6AfKij8NQT_8hayabusa10detections7configsNtB7_12SearchOptionNtNtCseAiZU62iyN8_12clap_builder6derive14FromArgMatches20from_arg_matches_muts6_0Bb_
FNDA:0,_RNCNvXs13_NtNtCsk6AfKij8NQT_8hayabusa10detections7configsNtB8_12OutputOptionNtNtCseAiZU62iyN8_12clap_builder6derive14FromArgMatches20from_arg_matches_muts8_0Bc_
FNDA:0,_RNCNvXs13_NtNtCsk6AfKij8NQT_8hayabusa10detections7configsNtB8_12OutputOptionNtNtCseAiZU62iyN8_12clap_builder6derive14FromArgMatches27update_from_arg_matches_mutsa_0Bc_
FNDA:0,_RNCNvXsV_NtNtCsk6AfKij8NQT_8hayabusa10detections7configsNtB7_18PivotKeywordOptionNtNtCseAiZU62iyN8_12clap_builder6derive14FromArgMatches20from_arg_matches_muts1_0Bb_
FNDA:0,_RNCNvXs13_NtNtCsk6AfKij8NQT_8hayabusa10detections7configsNtB8_12OutputOptionNtNtCseAiZU62iyN8_12clap_builder6derive14FromArgMatches27update_from_arg_matches_mutse_0Bc_
FNDA:0,_RNCNvXs18_NtNtCsk6AfKij8NQT_8hayabusa10detections7configsNtB8_13CommonOptionsNtNtCseAiZU62iyN8_12clap_builder6derive14FromArgMatches20from_arg_matches_mut0Bc_
FNDA:0,_RNCNvXs1g_NtNtCsk6AfKij8NQT_8hayabusa10detections7configsNtB8_15CsvOutputOptionNtNtCseAiZU62iyN8_12clap_builder6derive14FromArgMatches20from_arg_matches_mut0Bc_
FNDA:0,_RNvXs1l_NtNtCsk6AfKij8NQT_8hayabusa10detections7configsNtB6_16JSONOutputOptionNtNtCseAiZU62iyN8_12clap_builder6derive4Args8group_id
FNDA:0,_RNCNvXs13_NtNtCsk6AfKij8NQT_8hayabusa10detections7configsNtB8_12OutputOptionNtNtCseAiZU62iyN8_12clap_builder6derive14FromArgMatches20from_arg_matches_mutso_0Bc_
FNDA:0,_RNCNvXs1c_NtNtCsk6AfKij8NQT_8hayabusa10detections7configsNtB8_11InputOptionNtNtCseAiZU62iyN8_12clap_builder6derive14FromArgMatches20from_arg_matches_muts_0Bc_
FNDA:24,_RNvXs1l_NtNtCsk6AfKij8NQT_8hayabusa10detections7configsNtB6_16JSONOutputOptionNtNtCseAiZU62iyN8_12clap_builder6derive4Args12augment_args
FNDA:0,_RNCNvXs13_NtNtCsk6AfKij8NQT_8hayabusa10detections7configsNtB8_12OutputOptionNtNtCseAiZU62iyN8_12clap_builder6derive14FromArgMatches20from_arg_matches_mut0Bc_
FNDA:0,_RNvXsS_NtNtCsk6AfKij8NQT_8hayabusa10detections7configsNtB5_16EidMetricsOptionNtNtCseAiZU62iyN8_12clap_builder6derive4Args23augment_args_for_update
FNDA:0,_RNCNvXsF_NtNtCsk6AfKij8NQT_8hayabusa10detections7configsNtB7_12SearchOptionNtNtCseAiZU62iyN8_12clap_builder6derive14FromArgMatches20from_arg_matches_mutsb_0Bb_
FNDA:0,_RNvXsJ_NtNtCsk6AfKij8NQT_8hayabusa10detections7configsNtB5_12UpdateOptionNtNtCseAiZU62iyN8_12clap_builder6derive14FromArgMatches23update_from_arg_matches
FNDA:0,_RNCNvXsx_NtNtCsk6AfKij8NQT_8hayabusa10detections7configsNtB7_18DetectCommonOptionNtNtCseAiZU62iyN8_12clap_builder6derive14FromArgMatches27update_from_arg_matches_muts4_0Bb_
FNDA:0,_RNvXsU_NtNtCsk6AfKij8NQT_8hayabusa10detections7configsNtB5_16EidMetricsOptionNtNtCsjwgglklCTGv_4core3fmt5Debug3fmt
FNDA:1584,_RNCNvMs_NtNtCsk6AfKij8NQT_8hayabusa10detections7configsNtB6_12StoredStatic19get_default_details0Ba_
FNDA:0,_RNCNvXsR_NtNtCsk6AfKij8NQT_8hayabusa10detections7configsNtB7_16EidMetricsOptionNtNtCseAiZU62iyN8_12clap_builder6derive14FromArgMatches20from_arg_matches_muts4_0Bb_
FNDA:0,_RNCNvXs13_NtNtCsk6AfKij8NQT_8hayabusa10detections7configsNtB8_12OutputOptionNtNtCseAiZU62iyN8_12clap_builder6derive14FromArgMatches27update_from_arg_matches_mutsj_0Bc_
FNDA:0,_RNCNvMs_NtNtCsk6AfKij8NQT_8hayabusa10detections7configsNtB6_12StoredStatic18create_static_datasd_0Ba_
FNDA:0,_RNvXs1v_NtNtCsk6AfKij8NQT_8hayabusa10detections7configsNtB6_6ConfigNtNtCseAiZU62iyN8_12clap_builder6derive4Args23augment_args_for_update
FNDA:16,_RNvXs1w_NtNtCsk6AfKij8NQT_8hayabusa10detections7configsNtB6_6ConfigNtNtCsjwgglklCTGv_4core5clone5Clone5cloneBa_
FNDA:0,_RNCNCNvMs4_NtNtCsk6AfKij8NQT_8hayabusa10detections7configsNtB9_15TargetEventTime3news_0s0_0Bd_
FNDA:0,_RNCNvNtNtCsk6AfKij8NQT_8hayabusa10detections7configs19load_pivot_keywords0B7_
FNDA:0,_RNCNvXsF_NtNtCsk6AfKij8NQT_8hayabusa10detections7configsNtB7_12SearchOptionNtNtCseAiZU62iyN8_12clap_builder6derive14FromArgMatches20from_arg_matches_mut0Bb_
FNDA:0,_RNvXst_NtNtCsk6AfKij8NQT_8hayabusa10detections7configsNtB5_6ActionNtNtCseAiZU62iyN8_12clap_builder6derive14FromArgMatches16from_arg_matches
FNDA:24,_RNvXsu_NtNtCsk6AfKij8NQT_8hayabusa10detections7configsNtB5_6ActionNtNtCseAiZU62iyN8_12clap_builder6derive10Subcommand19augment_subcommands
FNDA:0,_RNCNvXsF_NtNtCsk6AfKij8NQT_8hayabusa10detections7configsNtB7_12SearchOptionNtNtCseAiZU62iyN8_12clap_builder6derive14FromArgMatches27update_from_arg_matches_mutsf_0Bb_
FNDA:0,_RNCNvXs13_NtNtCsk6AfKij8NQT_8hayabusa10detections7configsNtB8_12OutputOptionNtNtCseAiZU62iyN8_12clap_builder6derive14FromArgMatches27update_from_arg_matches_muts9_0Bc_
FNDA:0,_RNvXs18_NtNtCsk6AfKij8NQT_8hayabusa10detections7configsNtB6_13CommonOptionsNtNtCseAiZU62iyN8_12clap_builder6derive14FromArgMatches20from_arg_matches_mut
FNDA:0,_RNvXs10_NtNtCsk6AfKij8NQT_8hayabusa10detections7configsNtB6_18LogonSummaryOptionNtNtCseAiZU62iyN8_12clap_builder6derive4Args8group_id
FNDA:5,_RNvXs1m_NtNtCsk6AfKij8NQT_8hayabusa10detections7configsNtB6_16JSONOutputOptionNtNtCsjwgglklCTGv_4core5clone5Clone5cloneBa_
FNDA:0,_RNCNvXs1o_NtNtCsk6AfKij8NQT_8hayabusa10detections7configsNtB8_21ComputerMetricsOptionNtNtCseAiZU62iyN8_12clap_builder6derive14FromArgMatches27update_from_arg_matches_muts3_0Bc_
FNDA:0,_RNvXs1h_NtNtCsk6AfKij8NQT_8hayabusa10detections7configsNtB6_15CsvOutputOptionNtNtCseAiZU62iyN8_12clap_builder6derive4Args23augment_args_for_update
FNDA:24,_RNvXsG_NtNtCsk6AfKij8NQT_8hayabusa10detections7configsNtB5_12SearchOptionNtNtCseAiZU62iyN8_12clap_builder6derive4Args12augment_args
FNDA:0,_RNvXs18_NtNtCsk6AfKij8NQT_8hayabusa10detections7configsNtB6_13CommonOptionsNtNtCseAiZU62iyN8_12clap_builder6derive14FromArgMatches16from_arg_matches
FNDA:0,_RNCNvXsF_NtNtCsk6AfKij8NQT_8hayabusa10detections7configsNtB7_12SearchOptionNtNtCseAiZU62iyN8_12clap_builder6derive14FromArgMatches27update_from_arg_matches_muts5_0Bb_
FNDA:0,_RNvXs1l_NtNtCsk6AfKij8NQT_8hayabusa10detections7configsNtB6_16JSONOutputOptionNtNtCseAiZU62iyN8_12clap_builder6derive4Args23augment_args_for_update
FNDA:31,_RNvNtNtCsk6AfKij8NQT_8hayabusa10detections7configs25convert_option_vecs_to_hs
FNDA:16,_RNvMs8_NtNtCsk6AfKij8NQT_8hayabusa10detections7configsNtB5_9EventInfo3new
FNDA:0,_RNCNvXs13_NtNtCsk6AfKij8NQT_8hayabusa10detections7configsNtB8_12OutputOptionNtNtCseAiZU62iyN8_12clap_builder6derive14FromArgMatches27update_from_arg_matches_mutsk_0Bc_
FNDA:0,_RNvXsR_NtNtCsk6AfKij8NQT_8hayabusa10detections7configsNtB5_16EidMetricsOptionNtNtCseAiZU62iyN8_12clap_builder6derive14FromArgMatches27update_from_arg_matches_mut
FNDA:0,_RNvXs1E_NtNtCsk6AfKij8NQT_8hayabusa10detections7configsNtB6_9EventInfoNtNtCsjwgglklCTGv_4core3fmt5Debug3fmt
FNDA:0,_RNvXs1G_NtNtCsk6AfKij8NQT_8hayabusa10detections7configsNtB6_15EventInfoConfigNtNtCsjwgglklCTGv_4core3fmt5Debug3fmt
FNDA:0,_RNCNvMs_NtNtCsk6AfKij8NQT_8hayabusa10detections7configsNtB6_12StoredStatic18create_static_datas8_0Ba_
FNDA:0,_RNvXsJ_NtNtCsk6AfKij8NQT_8hayabusa10detections7configsNtB5_12UpdateOptionNtNtCseAiZU62iyN8_12clap_builder6derive14FromArgMatches20from_arg_matches_mut
FNDA:0,_RNCNvXsR_NtNtCsk6AfKij8NQT_8hayabusa10detections7configsNtB7_16EidMetricsOptionNtNtCseAiZU62iyN8_12clap_builder6derive14FromArgMatches27update_from_arg_matches_muts1_0Bb_
FNDA:9,_RNvMs4_NtNtCsk6AfKij8NQT_8hayabusa10detections7configsNtB5_15TargetEventTime9is_target
FNDA:0,_RNvXsu_NtNtCsk6AfKij8NQT_8hayabusa10detections7configsNtB5_6ActionNtNtCseAiZU62iyN8_12clap_builder6derive10Subcommand14has_subcommand
FNDA:0,_RNvXs18_NtNtCsk6AfKij8NQT_8hayabusa10detections7configsNtB6_13CommonOptionsNtNtCseAiZU62iyN8_12clap_builder6derive14FromArgMatches27update_from_arg_matches_mut
FNDA:0,_RNCNvXs13_NtNtCsk6AfKij8NQT_8hayabusa10detections7configsNtB8_12OutputOptionNtNtCseAiZU62iyN8_12clap_builder6derive14FromArgMatches20from_arg_matches_mutsf_0Bc_
FNDA:0,_RNvXsW_NtNtCsk6AfKij8NQT_8hayabusa10detections7configsNtB5_18PivotKeywordOptionNtNtCseAiZU62iyN8_12clap_builder6derive4Args8group_id
FNDA:24,_RNvXs1t_NtNtCsk6AfKij8NQT_8hayabusa10detections7configsNtB6_6ConfigNtNtCseAiZU62iyN8_12clap_builder6derive14CommandFactory7command
FNDA:0,_RNvXsR_NtNtCsk6AfKij8NQT_8hayabusa10detections7configsNtB5_16EidMetricsOptionNtNtCseAiZU62iyN8_12clap_builder6derive14FromArgMatches23update_from_arg_matches
FNDA:12,_RNvXs1u_NtNtCsk6AfKij8NQT_8hayabusa10detections7configsNtB6_6ConfigNtNtCseAiZU62iyN8_12clap_builder6derive14FromArgMatches20from_arg_matches_mut
FNDA:0,_RNCNvXs1k_NtNtCsk6AfKij8NQT_8hayabusa10detections7configsNtB8_16JSONOutputOptionNtNtCseAiZU62iyN8_12clap_builder6derive14FromArgMatches27update_from_arg_matches_mut0Bc_
FNDA:0,_RNCNvXsx_NtNtCsk6AfKij8NQT_8hayabusa10detections7configsNtB7_18DetectCommonOptionNtNtCseAiZU62iyN8_12clap_builder6derive14FromArgMatches20from_arg_matches_muts4_0Bb_
FNDA:0,_RNvXsJ_NtNtCsk6AfKij8NQT_8hayabusa10detections7configsNtB5_12UpdateOptionNtNtCseAiZU62iyN8_12clap_builder6derive14FromArgMatches16from_arg_matches
FNDA:0,_RNvXsZ_NtNtCsk6AfKij8NQT_8hayabusa10detections7configsNtB5_18LogonSummaryOptionNtNtCseAiZU62iyN8_12clap_builder6derive14FromArgMatches20from_arg_matches_mut
FNDA:0,_RNCNvXs18_NtNtCsk6AfKij8NQT_8hayabusa10detections7configsNtB8_13CommonOptionsNtNtCseAiZU62iyN8_12clap_builder6derive14FromArgMatches20from_arg_matches_muts_0Bc_
FNDA:12,_RNvXs1i_NtNtCsk6AfKij8NQT_8hayabusa10detections7configsNtB6_15CsvOutputOptionNtNtCsjwgglklCTGv_4core5clone5Clone5cloneBa_
FNDA:0,_RNCNCNvMs4_NtNtCsk6AfKij8NQT_8hayabusa10detections7configsNtB9_15TargetEventTime3news_0s1_0Bd_
FNDA:0,_RNvXs10_NtNtCsk6AfKij8NQT_8hayabusa10detections7configsNtB6_18LogonSummaryOptionNtNtCseAiZU62iyN8_12clap_builder6derive4Args23augment_args_for_update
FNDA:0,_RNCNvXs13_NtNtCsk6AfKij8NQT_8hayabusa10detections7configsNtB8_12OutputOptionNtNtCseAiZU62iyN8_12clap_builder6derive14FromArgMatches20from_arg_matches_mutsk_0Bc_
FNDA:0,_RNCNvXs1o_NtNtCsk6AfKij8NQT_8hayabusa10detections7configsNtB8_21ComputerMetricsOptionNtNtCseAiZU62iyN8_12clap_builder6derive14FromArgMatches20from_arg_matches_muts2_0Bc_
FNDA:0,_RNvXst_NtNtCsk6AfKij8NQT_8hayabusa10detections7configsNtB5_6ActionNtNtCseAiZU62iyN8_12clap_builder6derive14FromArgMatches27update_from_arg_matches_mut
FNDA:0,_RNvXs13_NtNtCsk6AfKij8NQT_8hayabusa10detections7configsNtB6_12OutputOptionNtNtCseAiZU62iyN8_12clap_builder6derive14FromArgMatches20from_arg_matches_mut
FNDA:0,_RNvXs18_NtNtCsk6AfKij8NQT_8hayabusa10detections7configsNtB6_13CommonOptionsNtNtCseAiZU62iyN8_12clap_builder6derive14FromArgMatches23update_from_arg_matches
FNDA:0,_RNvXsZ_NtNtCsk6AfKij8NQT_8hayabusa10detections7configsNtB5_18LogonSummaryOptionNtNtCseAiZU62iyN8_12clap_builder6derive14FromArgMatches16from_arg_matches
FNDA:0,_RNCNvXs13_NtNtCsk6AfKij8NQT_8hayabusa10detections7configsNtB8_12OutputOptionNtNtCseAiZU62iyN8_12clap_builder6derive14FromArgMatches27update_from_arg_matches_mutsg_0Bc_
FNDA:288,_RNvXs19_NtNtCsk6AfKij8NQT_8hayabusa10detections7configsNtB6_13CommonOptionsNtNtCseAiZU62iyN8_12clap_builder6derive4Args12augment_args
FNDA:0,_RNCNvXsV_NtNtCsk6AfKij8NQT_8hayabusa10detections7configsNtB7_18PivotKeywordOptionNtNtCseAiZU62iyN8_12clap_builder6derive14FromArgMatches20from_arg_matches_muts_0Bb_
FNDA:0,_RNCNvXsF_NtNtCsk6AfKij8NQT_8hayabusa10detections7configsNtB7_12SearchOptionNtNtCseAiZU62iyN8_12clap_builder6derive14FromArgMatches27update_from_arg_matches_muts_0Bb_
FNDA:16,_RNvNtNtCsk6AfKij8NQT_8hayabusa10detections7configs19check_thread_number
FNDA:0,_RNCNvXsF_NtNtCsk6AfKij8NQT_8hayabusa10detections7configsNtB7_12SearchOptionNtNtCseAiZU62iyN8_12clap_builder6derive14FromArgMatches27update_from_arg_matches_mutsg_0Bb_
FNDA:0,_RNvXsW_NtNtCsk6AfKij8NQT_8hayabusa10detections7configsNtB5_18PivotKeywordOptionNtNtCseAiZU62iyN8_12clap_builder6derive4Args23augment_args_for_update
FNDA:528,_RNCNvMs_NtNtCsk6AfKij8NQT_8hayabusa10detections7configsNtB6_12StoredStatic18create_static_datasa_0Ba_
FNDA:0,_RNvXsu_NtNtCsk6AfKij8NQT_8hayabusa10detections7configsNtB5_6ActionNtNtCseAiZU62iyN8_12clap_builder6derive10Subcommand30augment_subcommands_for_update
FNDA:0,_RNvXsw_NtNtCsk6AfKij8NQT_8hayabusa10detections7configsNtB5_6ActionNtNtCsjwgglklCTGv_4core3fmt5Debug3fmt
FNDA:0,_RNCNvXsZ_NtNtCsk6AfKij8NQT_8hayabusa10detections7configsNtB7_18LogonSummaryOptionNtNtCseAiZU62iyN8_12clap_builder6derive14FromArgMatches20from_arg_matches_muts3_0Bb_
FNDA:0,_RNvXs19_NtNtCsk6AfKij8NQT_8hayabusa10detections7configsNtB6_13CommonOptionsNtNtCseAiZU62iyN8_12clap_builder6derive4Args8group_id
FNDA:0,_RNvXs13_NtNtCsk6AfKij8NQT_8hayabusa10detections7configsNtB6_12OutputOptionNtNtCseAiZU62iyN8_12clap_builder6derive14FromArgMatches27update_from_arg_matches_mut
FNDA:0,_RNCNvMs4_NtNtCsk6AfKij8NQT_8hayabusa10detections7configsNtB7_15TargetEventTime3news_0Bb_
FNDA:8096,_RNCNvNtNtCsk6AfKij8NQT_8hayabusa10detections7configs19load_eventcode_info0B7_
FNDA:0,_RNCNvXsR_NtNtCsk6AfKij8NQT_8hayabusa10detections7configsNtB7_16EidMetricsOptionNtNtCseAiZU62iyN8_12clap_builder6derive14FromArgMatches20from_arg_matches_muts5_0Bb_
FNDA:0,_RNCNvXsV_NtNtCsk6AfKij8NQT_8hayabusa10detections7configsNtB7_18PivotKeywordOptionNtNtCseAiZU62iyN8_12clap_builder6derive14FromArgMatches27update_from_arg_matches_muts4_0Bb_
FNDA:0,_RNvXs1g_NtNtCsk6AfKij8NQT_8hayabusa10detections7configsNtB6_15CsvOutputOptionNtNtCseAiZU62iyN8_12clap_builder6derive14FromArgMatches20from_arg_matches_mut
FNDA:0,_RNCNvXs13_NtNtCsk6AfKij8NQT_8hayabusa10detections7configsNtB8_12OutputOptionNtNtCseAiZU62iyN8_12clap_builder6derive14FromArgMatches27update_from_arg_matches_mutsi_0Bc_
FNDA:12,_RNvMs1_NtNtCsk6AfKij8NQT_8hayabusa10detections7configsNtB5_12ConfigReader3new
FNDA:0,_RNCNvXsF_NtNtCsk6AfKij8NQT_8hayabusa10detections7configsNtB7_12SearchOptionNtNtCseAiZU62iyN8_12clap_builder6derive14FromArgMatches20from_arg_matches_mutsa_0Bb_
FNDA:0,_RNvXs1p_NtNtCsk6AfKij8NQT_8hayabusa10detections7configsNtB6_21ComputerMetricsOptionNtNtCseAiZU62iyN8_12clap_builder6derive4Args8group_id
FNDA:483,_RNvMs5_NtNtCsk6AfKij8NQT_8hayabusa10detections7configsNtB5_19EventKeyAliasConfig13get_event_key
FNDA:0,_RNCNvXs13_NtNtCsk6AfKij8NQT_8hayabusa10detections7configsNtB8_12OutputOptionNtNtCseAiZU62iyN8_12clap_builder6derive14FromArgMatches27update_from_arg_matches_muts4_0Bc_
FNDA:0,_RNvXsQ_NtNtCsk6AfKij8NQT_8hayabusa10detections7configsNtB5_17LevelTuningOptionNtNtCsjwgglklCTGv_4core3fmt5Debug3fmt
FNDA:5,_RNvXs1q_NtNtCsk6AfKij8NQT_8hayabusa10detections7configsNtB6_21ComputerMetricsOptionNtNtCsjwgglklCTGv_4core5clone5Clone5cloneBa_
FNDA:0,_RNCNvXs1c_NtNtCsk6AfKij8NQT_8hayabusa10detections7configsNtB8_11InputOptionNtNtCseAiZU62iyN8_12clap_builder6derive14FromArgMatches27update_from_arg_matches_muts_0Bc_
FNDA:0,_RNvXs1g_NtNtCsk6AfKij8NQT_8hayabusa10detections7configsNtB6_15CsvOutputOptionNtNtCseAiZU62iyN8_12clap_builder6derive14FromArgMatches16from_arg_matches
FNDA:0,_RNCNvXs13_NtNtCsk6AfKij8NQT_8hayabusa10detections7configsNtB8_12OutputOptionNtNtCseAiZU62iyN8_12clap_builder6derive14FromArgMatches27update_from_arg_matches_mutsn_0Bc_
FNDA:12183,_RNvMs3_NtNtCsk6AfKij8NQT_8hayabusa10detections7configsNtB5_9TargetIds9is_target
FNDA:0,_RNCNvXs13_NtNtCsk6AfKij8NQT_8hayabusa10detections7configsNtB8_12OutputOptionNtNtCseAiZU62iyN8_12clap_builder6derive14FromArgMatches20from_arg_matches_mutse_0Bc_
FNDA:0,_RNCNvXs13_NtNtCsk6AfKij8NQT_8hayabusa10detections7configsNtB8_12OutputOptionNtNtCseAiZU62iyN8_12clap_builder6derive14FromArgMatches27update_from_arg_matches_muts8_0Bc_
FNDA:0,_RNvXsV_NtNtCsk6AfKij8NQT_8hayabusa10detections7configsNtB5_18PivotKeywordOptionNtNtCseAiZU62iyN8_12clap_builder6derive14FromArgMatches20from_arg_matches_mut
FNDA:0,_RNCNvXs13_NtNtCsk6AfKij8NQT_8hayabusa10detections7configsNtB8_12OutputOptionNtNtCseAiZU62iyN8_12clap_builder6derive14FromArgMatches20from_arg_matches_muts_0Bc_
FNDA:0,_RNCNvXs1o_NtNtCsk6AfKij8NQT_8hayabusa10detections7configsNtB8_21ComputerMetricsOptionNtNtCseAiZU62iyN8_12clap_builder6derive14FromArgMatches27update_from_arg_matches_muts_0Bc_
FNDA:0,_RNCNvXsx_NtNtCsk6AfKij8NQT_8hayabusa10detections7configsNtB7_18DetectCommonOptionNtNtCseAiZU62iyN8_12clap_builder6derive14FromArgMatches20from_arg_matches_muts2_0Bb_
FNDA:0,_RNCNvXs13_NtNtCsk6AfKij8NQT_8hayabusa10detections7configsNtB8_12OutputOptionNtNtCseAiZU62iyN8_12clap_builder6derive14FromArgMatches20from_arg_matches_mutsn_0Bc_
FNDA:0,_RNvXs1p_NtNtCsk6AfKij8NQT_8hayabusa10detections7configsNtB6_21ComputerMetricsOptionNtNtCseAiZU62iyN8_12clap_builder6derive4Args23augment_args_for_update
FNDA:0,_RNvXsx_NtNtCsk6AfKij8NQT_8hayabusa10detections7configsNtB5_18DetectCommonOptionNtNtCseAiZU62iyN8_12clap_builder6derive14FromArgMatches27update_from_arg_matches_mut
FNDA:32,_RNCNvNtNtCsk6AfKij8NQT_8hayabusa10detections7configs31create_control_chat_replace_map0B7_
FNDA:0,_RNCNvXs13_NtNtCsk6AfKij8NQT_8hayabusa10detections7configsNtB8_12OutputOptionNtNtCseAiZU62iyN8_12clap_builder6derive14FromArgMatches20from_arg_matches_muts4_0Bc_
FNDA:0,_RNvXsV_NtNtCsk6AfKij8NQT_8hayabusa10detections7configsNtB5_18PivotKeywordOptionNtNtCseAiZU62iyN8_12clap_builder6derive14FromArgMatches27update_from_arg_matches_mut
FNDA:0,_RNvXsP_NtNtCsk6AfKij8NQT_8hayabusa10detections7configsNtB5_17LevelTuningOptionNtNtCsjwgglklCTGv_4core5clone5Clone5cloneB9_
FNDA:0,_RNCNvXsx_NtNtCsk6AfKij8NQT_8hayabusa10detections7configsNtB7_18DetectCommonOptionNtNtCseAiZU62iyN8_12clap_builder6derive14FromArgMatches27update_from_arg_matches_mut0Bb_
FNDA:0,_RNCNvXsF_NtNtCsk6AfKij8NQT_8hayabusa10detections7configsNtB7_12SearchOptionNtNtCseAiZU62iyN8_12clap_builder6derive14FromArgMatches20from_arg_matches_muts2_0Bb_
FNDA:0,_RNCNvMs_NtNtCsk6AfKij8NQT_8hayabusa10detections7configsNtB6_12StoredStatic18create_static_datas7_0Ba_
FNDA:0,_RNCNvXsR_NtNtCsk6AfKij8NQT_8hayabusa10detections7configsNtB7_16EidMetricsOptionNtNtCseAiZU62iyN8_12clap_builder6derive14FromArgMatches27update_from_arg_matches_muts0_0Bb_
FNDA:0,_RNvXsX_NtNtCsk6AfKij8NQT_8hayabusa10detections7configsNtB5_18PivotKeywordOptionNtNtCsjwgglklCTGv_4core5clone5Clone5cloneB9_
FNDA:0,_RNCNvXsF_NtNtCsk6AfKij8NQT_8hayabusa10detections7configsNtB7_12SearchOptionNtNtCseAiZU62iyN8_12clap_builder6derive14FromArgMatches27update_from_arg_matches_muts0_0Bb_
FNDA:0,_RNCNvXsV_NtNtCsk6AfKij8NQT_8hayabusa10detections7configsNtB7_18PivotKeywordOptionNtNtCseAiZU62iyN8_12clap_builder6derive14FromArgMatches27update_from_arg_matches_muts5_0Bb_
FNDA:0,_RNvXs1g_NtNtCsk6AfKij8NQT_8hayabusa10detections7configsNtB6_15CsvOutputOptionNtNtCseAiZU62iyN8_12clap_builder6derive14FromArgMatches27update_from_arg_matches_mut
FNDA:0,_RNCNvMs_NtNtCsk6AfKij8NQT_8hayabusa10detections7configsNtB6_12StoredStatic18create_static_datasc_0Ba_
FNDA:0,_RNCNvXsN_NtNtCsk6AfKij8NQT_8hayabusa10detections7configsNtB7_17LevelTuningOptionNtNtCseAiZU62iyN8_12clap_builder6derive14FromArgMatches27update_from_arg_matches_mut0Bb_
FNDA:16,_RNvNtNtCsk6AfKij8NQT_8hayabusa10detections7configs22extract_output_options
FNDA:0,_RNCNvXsR_NtNtCsk6AfKij8NQT_8hayabusa10detections7configsNtB7_16EidMetricsOptionNtNtCseAiZU62iyN8_12clap_builder6derive14FromArgMatches27update_from_arg_matches_muts5_0Bb_
FNDA:0,_RNCNvXsZ_NtNtCsk6AfKij8NQT_8hayabusa10detections7configsNtB7_18LogonSummaryOptionNtNtCseAiZU62iyN8_12clap_builder6derive14FromArgMatches27update_from_arg_matches_muts1_0Bb_
FNDA:0,_RNCNvXs13_NtNtCsk6AfKij8NQT_8hayabusa10detections7configsNtB8_12OutputOptionNtNtCseAiZU62iyN8_12clap_builder6derive14FromArgMatches20from_arg_matches_mutsj_0Bc_
FNDA:0,_RNvXs1o_NtNtCsk6AfKij8NQT_8hayabusa10detections7configsNtB6_21ComputerMetricsOptionNtNtCseAiZU62iyN8_12clap_builder6derive14FromArgMatches20from_arg_matches_mut
FNDA:0,_RNvXs1A_NtNtCsk6AfKij8NQT_8hayabusa10detections7configsNtB6_15TargetEventTimeNtNtCsjwgglklCTGv_4core3fmt5Debug3fmt
FNDA:120,_RNvXsy_NtNtCsk6AfKij8NQT_8hayabusa10detections7configsNtB5_18DetectCommonOptionNtNtCseAiZU62iyN8_12clap_builder6derive4Args12augment_args
FNDA:35,_RNvXs2_NtNtCsk6AfKij8NQT_8hayabusa10detections7configsNtB5_9TargetIdsNtNtCsjwgglklCTGv_4core7default7Default7default
FNDA:0,_RNCNvXs13_NtNtCsk6AfKij8NQT_8hayabusa10detections7configsNtB8_12OutputOptionNtNtCseAiZU62iyN8_12clap_builder6derive14FromArgMatches20from_arg_matches_muts5_0Bc_
FNDA:0,_RNCNvXsV_NtNtCsk6AfKij8NQT_8hayabusa10detections7configsNtB7_18PivotKeywordOptionNtNtCseAiZU62iyN8_12clap_builder6derive14FromArgMatches20from_arg_matches_muts6_0Bb_
FNDA:0,_RNCNvXs13_NtNtCsk6AfKij8NQT_8hayabusa10detections7configsNtB8_12OutputOptionNtNtCseAiZU62iyN8_12clap_builder6derive14FromArgMatches20from_arg_matches_mutsh_0Bc_
FNDA:0,_RNCNvMs_NtNtCsk6AfKij8NQT_8hayabusa10detections7configsNtB6_12StoredStatic18create_static_datas1_0Ba_
FNDA:16,_RNvNtNtCsk6AfKij8NQT_8hayabusa10detections7configs22extract_search_options
FNDA:0,_RNCNvXsx_NtNtCsk6AfKij8NQT_8hayabusa10detections7configsNtB7_18DetectCommonOptionNtNtCseAiZU62iyN8_12clap_builder6derive14FromArgMatches20from_arg_matches_muts_0Bb_
FNDA:0,_RNvXsD_NtNtCsk6AfKij8NQT_8hayabusa10detections7configsNtB5_20DefaultProfileOptionNtNtCsjwgglklCTGv_4core5clone5Clone5cloneB9_
FNDA:0,_RNvXsN_NtNtCsk6AfKij8NQT_8hayabusa10detections7configsNtB5_17LevelTuningOptionNtNtCseAiZU62iyN8_12clap_builder6derive14FromArgMatches23update_from_arg_matches
FNDA:0,_RNCNvXsV_NtNtCsk6AfKij8NQT_8hayabusa10detections7configsNtB7_18PivotKeywordOptionNtNtCseAiZU62iyN8_12clap_builder6derive14FromArgMatches20from_arg_matches_muts4_0Bb_
FNDA:0,_RNvXsx_NtNtCsk6AfKij8NQT_8hayabusa10detections7configsNtB5_18DetectCommonOptionNtNtCseAiZU62iyN8_12clap_builder6derive14FromArgMatches20from_arg_matches_mut
FNDA:0,_RNCNvXs13_NtNtCsk6AfKij8NQT_8hayabusa10detections7configsNtB8_12OutputOptionNtNtCseAiZU62iyN8_12clap_builder6derive14FromArgMatches27update_from_arg_matches_muts5_0Bc_
FNDA:0,_RNCNvXs13_NtNtCsk6AfKij8NQT_8hayabusa10detections7configsNtB8_12OutputOptionNtNtCseAiZU62iyN8_12clap_builder6derive14FromArgMatches20from_arg_matches_muts9_0Bc_
FNDA:0,_RNCNvXs13_NtNtCsk6AfKij8NQT_8hayabusa10detections7configsNtB8_12OutputOptionNtNtCseAiZU62iyN8_12clap_builder6derive14FromArgMatches27update_from_arg_matches_muts7_0Bc_
FNDA:0,_RNCNvXsZ_NtNtCsk6AfKij8NQT_8hayabusa10detections7configsNtB7_18LogonSummaryOptionNtNtCseAiZU62iyN8_12clap_builder6derive14FromArgMatches20from_arg_matches_muts2_0Bb_
FNDA:0,_RNCNvXsF_NtNtCsk6AfKij8NQT_8hayabusa10detections7configsNtB7_12SearchOptionNtNtCseAiZU62iyN8_12clap_builder6derive14FromArgMatches27update_from_arg_matches_muts1_0Bb_
FNDA:0,_RNCNvXs18_NtNtCsk6AfKij8NQT_8hayabusa10detections7configsNtB8_13CommonOptionsNtNtCseAiZU62iyN8_12clap_builder6derive14FromArgMatches27update_from_arg_matches_muts_0Bc_
FNDA:46,_RNvXs1e_NtNtCsk6AfKij8NQT_8hayabusa10detections7configsNtB6_11InputOptionNtNtCsjwgglklCTGv_4core5clone5Clone5cloneBa_
FNDA:0,_RNvXs1g_NtNtCsk6AfKij8NQT_8hayabusa10detections7configsNtB6_15CsvOutputOptionNtNtCseAiZU62iyN8_12clap_builder6derive14FromArgMatches23update_from_arg_matches
FNDA:0,_RNCNvXs13_NtNtCsk6AfKij8NQT_8hayabusa10detections7configsNtB8_12OutputOptionNtNtCseAiZU62iyN8_12clap_builder6derive14FromArgMatches20from_arg_matches_muts7_0Bc_
FNDA:0,_RNCNvXsx_NtNtCsk6AfKij8NQT_8hayabusa10detections7configsNtB7_18DetectCommonOptionNtNtCseAiZU62iyN8_12clap_builder6derive14FromArgMatches20from_arg_matches_mut0Bb_
FNDA:0,_RNCNvXs1g_NtNtCsk6AfKij8NQT_8hayabusa10detections7configsNtB8_15CsvOutputOptionNtNtCseAiZU62iyN8_12clap_builder6derive14FromArgMatches27update_from_arg_matches_mut0Bc_
FNDA:0,_RNCNvXsx_NtNtCsk6AfKij8NQT_8hayabusa10detections7configsNtB7_18DetectCommonOptionNtNtCseAiZU62iyN8_12clap_builder6derive14FromArgMatches27update_from_arg_matches_muts1_0Bb_
FNDA:0,_RNvXs1o_NtNtCsk6AfKij8NQT_8hayabusa10detections7configsNtB6_21ComputerMetricsOptionNtNtCseAiZU62iyN8_12clap_builder6derive14FromArgMatches16from_arg_matches
FNDA:0,_RNCNvXs1o_NtNtCsk6AfKij8NQT_8hayabusa10detections7configsNtB8_21ComputerMetricsOptionNtNtCseAiZU62iyN8_12clap_builder6derive14FromArgMatches20from_arg_matches_muts1_0Bc_
FNDA:0,_RNCNvXs13_NtNtCsk6AfKij8NQT_8hayabusa10detections7configsNtB8_12OutputOptionNtNtCseAiZU62iyN8_12clap_builder6derive14FromArgMatches20from_arg_matches_muts2_0Bc_
FNDA:0,_RNCNvMs_NtNtCsk6AfKij8NQT_8hayabusa10detections7configsNtB6_12StoredStatic18create_static_datas0_0Ba_
FNDA:0,_RNvXs13_NtNtCsk6AfKij8NQT_8hayabusa10detections7configsNtB6_12OutputOptionNtNtCseAiZU62iyN8_12clap_builder6derive14FromArgMatches16from_arg_matches
FNDA:0,_RNvXs1t_NtNtCsk6AfKij8NQT_8hayabusa10detections7configsNtB6_6ConfigNtNtCseAiZU62iyN8_12clap_builder6derive14CommandFactory18command_for_update
FNDA:0,_RNvXsK_NtNtCsk6AfKij8NQT_8hayabusa10detections7configsNtB5_12UpdateOptionNtNtCseAiZU62iyN8_12clap_builder6derive4Args8group_id
FNDA:0,_RNvXsN_NtNtCsk6AfKij8NQT_8hayabusa10detections7configsNtB5_17LevelTuningOptionNtNtCseAiZU62iyN8_12clap_builder6derive14FromArgMatches20from_arg_matches_mut
FNDA:0,_RNCNvXsF_NtNtCsk6AfKij8NQT_8hayabusa10detections7configsNtB7_12SearchOptionNtNtCseAiZU62iyN8_12clap_builder6derive14FromArgMatches20from_arg_matches_muts1_0Bb_
FNDA:0,_RNvXsO_NtNtCsk6AfKij8NQT_8hayabusa10detections7configsNtB5_17LevelTuningOptionNtNtCseAiZU62iyN8_12clap_builder6derive4Args8group_id
FNDA:0,_RNCNvXsF_NtNtCsk6AfKij8NQT_8hayabusa10detections7configsNtB7_12SearchOptionNtNtCseAiZU62iyN8_12clap_builder6derive14FromArgMatches27update_from_arg_matches_muts3_0Bb_
FNDA:0,_RNCNvXsx_NtNtCsk6AfKij8NQT_8hayabusa10detections7configsNtB7_18DetectCommonOptionNtNtCseAiZU62iyN8_12clap_builder6derive14FromArgMatches20from_arg_matches_muts0_0Bb_
FNDA:0,_RNCNvXs13_NtNtCsk6AfKij8NQT_8hayabusa10detections7configsNtB8_12OutputOptionNtNtCseAiZU62iyN8_12clap_builder6derive14FromArgMatches20from_arg_matches_mutsd_0Bc_
FNDA:0,_RNCNvXsF_NtNtCsk6AfKij8NQT_8hayabusa10detections7configsNtB7_12SearchOptionNtNtCseAiZU62iyN8_12clap_builder6derive14FromArgMatches20from_arg_matches_mutse_0Bb_
FNDA:0,_RNCNvXs13_NtNtCsk6AfKij8NQT_8hayabusa10detections7configsNtB8_12OutputOptionNtNtCseAiZU62iyN8_12clap_builder6derive14FromArgMatches27update_from_arg_matches_mutsm_0Bc_
FNDA:0,_RNvXsB_NtNtCsk6AfKij8NQT_8hayabusa10detections7configsNtB5_20DefaultProfileOptionNtNtCseAiZU62iyN8_12clap_builder6derive14FromArgMatches20from_arg_matches_mut
FNDA:0,_RNvXs1c_NtNtCsk6AfKij8NQT_8hayabusa10detections7configsNtB6_11InputOptionNtNtCseAiZU62iyN8_12clap_builder6derive14FromArgMatches20from_arg_matches_mut
FNDA:2,_RNvMsa_NtNtCsk6AfKij8NQT_8hayabusa10detections7configsNtB5_15EventInfoConfig12get_event_id
FNDA:0,_RNCNvXsF_NtNtCsk6AfKij8NQT_8hayabusa10detections7configsNtB7_12SearchOptionNtNtCseAiZU62iyN8_12clap_builder6derive14FromArgMatches20from_arg_matches_muts5_0Bb_
FNDA:0,_RNCNvXs1o_NtNtCsk6AfKij8NQT_8hayabusa10detections7configsNtB8_21ComputerMetricsOptionNtNtCseAiZU62iyN8_12clap_builder6derive14FromArgMatches20from_arg_matches_muts0_0Bc_
FNDA:0,_RNCNvXsF_NtNtCsk6AfKij8NQT_8hayabusa10detections7configsNtB7_12SearchOptionNtNtCseAiZU62iyN8_12clap_builder6derive14FromArgMatches27update_from_arg_matches_muts8_0Bb_
FNDA:0,_RNCNvXsV_NtNtCsk6AfKij8NQT_8hayabusa10detections7configsNtB7_18PivotKeywordOptionNtNtCseAiZU62iyN8_12clap_builder6derive14FromArgMatches20from_arg_matches_muts0_0Bb_
FNDA:0,_RNCNvXsZ_NtNtCsk6AfKij8NQT_8hayabusa10detections7configsNtB7_18LogonSummaryOptionNtNtCseAiZU62iyN8_12clap_builder6derive14FromArgMatches27update_from_arg_matches_muts_0Bb_
FNDA:0,_RNCNvXsR_NtNtCsk6AfKij8NQT_8hayabusa10detections7configsNtB7_16EidMetricsOptionNtNtCseAiZU62iyN8_12clap_builder6derive14FromArgMatches20from_arg_matches_muts_0Bb_
FNDA:10,_RNvMs4_NtNtCsk6AfKij8NQT_8hayabusa10detections7configsNtB5_15TargetEventTime16is_parse_success
FNDA:0,_RNCNvXsV_NtNtCsk6AfKij8NQT_8hayabusa10detections7configsNtB7_18PivotKeywordOptionNtNtCseAiZU62iyN8_12clap_builder6derive14FromArgMatches27update_from_arg_matches_mut0Bb_
FNDA:0,_RNvXsB_NtNtCsk6AfKij8NQT_8hayabusa10detections7configsNtB5_20DefaultProfileOptionNtNtCseAiZU62iyN8_12clap_builder6derive14FromArgMatches16from_arg_matches
FNDA:0,_RNvXs7_NtNtCsk6AfKij8NQT_8hayabusa10detections7configsNtB5_9EventInfoNtNtCsjwgglklCTGv_4core7default7Default7default
FNDA:16,_RNvMsa_NtNtCsk6AfKij8NQT_8hayabusa10detections7configsNtB5_15EventInfoConfig3new
FNDA:0,_RNCNvXs13_NtNtCsk6AfKij8NQT_8hayabusa10detections7configsNtB8_12OutputOptionNtNtCseAiZU62iyN8_12clap_builder6derive14FromArgMatches27update_from_arg_matches_mut0Bc_
FNDA:25,_RNvXs15_NtNtCsk6AfKij8NQT_8hayabusa10detections7configsNtB6_12OutputOptionNtNtCsjwgglklCTGv_4core5clone5Clone5cloneBa_
FNDA:0,_RNvXs1c_NtNtCsk6AfKij8NQT_8hayabusa10detections7configsNtB6_11InputOptionNtNtCseAiZU62iyN8_12clap_builder6derive14FromArgMatches16from_arg_matches
FNDA:0,_RNCNvMs4_NtNtCsk6AfKij8NQT_8hayabusa10detections7configsNtB7_15TargetEventTime3new0Bb_
FNDA:0,_RNvXs1u_NtNtCsk6AfKij8NQT_8hayabusa10detections7configsNtB6_6ConfigNtNtCseAiZU62iyN8_12clap_builder6derive14FromArgMatches16from_arg_matches
FNDA:0,_RNvXsK_NtNtCsk6AfKij8NQT_8hayabusa10detections7configsNtB5_12UpdateOptionNtNtCseAiZU62iyN8_12clap_builder6derive4Args23augment_args_for_update
FNDA:13,_RNvMs4_NtNtCsk6AfKij8NQT_8hayabusa10detections7configsNtB5_15TargetEventTime3set
FNDA:310,_RNvMs5_NtNtCsk6AfKij8NQT_8hayabusa10detections7configsNtB5_19EventKeyAliasConfig19get_event_key_split
FNDA:0,_RNCNvXsV_NtNtCsk6AfKij8NQT_8hayabusa10detections7configsNtB7_18PivotKeywordOptionNtNtCseAiZU62iyN8_12clap_builder6derive14FromArgMatches27update_from_arg_matches_muts3_0Bb_
FNDA:0,_RNvXsC_NtNtCsk6AfKij8NQT_8hayabusa10detections7configsNtB5_20DefaultProfileOptionNtNtCseAiZU62iyN8_12clap_builder6derive4Args8group_id
FNDA:0,_RNvXs1c_NtNtCsk6AfKij8NQT_8hayabusa10detections7configsNtB6_11InputOptionNtNtCseAiZU62iyN8_12clap_builder6derive14FromArgMatches27update_from_arg_matches_mut
FNDA:0,_RNCNvXsZ_NtNtCsk6AfKij8NQT_8hayabusa10detections7configsNtB7_18LogonSummaryOptionNtNtCseAiZU62iyN8_12clap_builder6derive14FromArgMatches27update_from_arg_matches_muts2_0Bb_
FNDA:0,_RNCNvXs13_NtNtCsk6AfKij8NQT_8hayabusa10detections7configsNtB8_12OutputOptionNtNtCseAiZU62iyN8_12clap_builder6derive14FromArgMatches27update_from_arg_matches_muts2_0Bc_
FNDA:0,_RNCNvMs_NtNtCsk6AfKij8NQT_8hayabusa10detections7configsNtB6_12StoredStatic18create_static_datas3_0Ba_
FNDA:0,_RNCNvMs_NtNtCsk6AfKij8NQT_8hayabusa10detections7configsNtB6_12StoredStatic18create_static_datasb_0Ba_
FNDA:0,_RNvXsJ_NtNtCsk6AfKij8NQT_8hayabusa10detections7configsNtB5_12UpdateOptionNtNtCseAiZU62iyN8_12clap_builder6derive14FromArgMatches27update_from_arg_matches_mut
FNDA:0,_RNCNvXsR_NtNtCsk6AfKij8NQT_8hayabusa10detections7configsNtB7_16EidMetricsOptionNtNtCseAiZU62iyN8_12clap_builder6derive14FromArgMatches27update_from_arg_matches_muts4_0Bb_
FNDA:0,_RNCNvXsZ_NtNtCsk6AfKij8NQT_8hayabusa10detections7configsNtB7_18LogonSummaryOptionNtNtCseAiZU62iyN8_12clap_builder6derive14FromArgMatches27update_from_arg_matches_muts0_0Bb_
FNDA:0,_RNvXsN_NtNtCsk6AfKij8NQT_8hayabusa10detections7configsNtB5_17LevelTuningOptionNtNtCseAiZU62iyN8_12clap_builder6derive14FromArgMatches27update_from_arg_matches_mut
FNDA:0,_RNCNCNvMs4_NtNtCsk6AfKij8NQT_8hayabusa10detections7configsNtB9_15TargetEventTime3news_0s_0Bd_
FNDA:0,_RNCNvXs1o_NtNtCsk6AfKij8NQT_8hayabusa10detections7configsNtB8_21ComputerMetricsOptionNtNtCseAiZU62iyN8_12clap_builder6derive14FromArgMatches20from_arg_matches_muts_0Bc_
FNDA:0,_RNvXs1u_NtNtCsk6AfKij8NQT_8hayabusa10detections7configsNtB6_6ConfigNtNtCseAiZU62iyN8_12clap_builder6derive14FromArgMatches27update_from_arg_matches_mut
FNDA:0,_RNCNvXsF_NtNtCsk6AfKij8NQT_8hayabusa10detections7configsNtB7_12SearchOptionNtNtCseAiZU62iyN8_12clap_builder6derive14FromArgMatches27update_from_arg_matches_muts4_0Bb_
FNDA:0,_RNvXs12_NtNtCsk6AfKij8NQT_8hayabusa10detections7configsNtB6_18LogonSummaryOptionNtNtCsjwgglklCTGv_4core3fmt5Debug3fmt
FNDA:0,_RNCNvXs13_NtNtCsk6AfKij8NQT_8hayabusa10detections7configsNtB8_12OutputOptionNtNtCseAiZU62iyN8_12clap_builder6derive14FromArgMatches20from_arg_matches_mutsa_0Bc_
FNDA:0,_RNCNvXsx_NtNtCsk6AfKij8NQT_8hayabusa10detections7configsNtB7_18DetectCommonOptionNtNtCseAiZU62iyN8_12clap_builder6derive14FromArgMatches20from_arg_matches_muts1_0Bb_
FNDA:0,_RNCNvXsF_NtNtCsk6AfKij8NQT_8hayabusa10detections7configsNtB7_12SearchOptionNtNtCseAiZU62iyN8_12clap_builder6derive14FromArgMatches27update_from_arg_matches_muts2_0Bb_
FNDA:0,_RNCNvXs1o_NtNtCsk6AfKij8NQT_8hayabusa10detections7configsNtB8_21ComputerMetricsOptionNtNtCseAiZU62iyN8_12clap_builder6derive14FromArgMatches20from_arg_matches_muts3_0Bc_
FNDA:0,_RNvXs13_NtNtCsk6AfKij8NQT_8hayabusa10detections7configsNtB6_12OutputOptionNtNtCseAiZU62iyN8_12clap_builder6derive14FromArgMatches23update_from_arg_matches
FNDA:0,_RNCNvXs18_NtNtCsk6AfKij8NQT_8hayabusa10detections7configsNtB8_13CommonOptionsNtNtCseAiZU62iyN8_12clap_builder6derive14FromArgMatches27update_from_arg_matches_mut0Bc_
FNDA:0,_RNCNvXsZ_NtNtCsk6AfKij8NQT_8hayabusa10detections7configsNtB7_18LogonSummaryOptionNtNtCseAiZU62iyN8_12clap_builder6derive14FromArgMatches20from_arg_matches_muts0_0Bb_
FNDA:24,_RNvXs10_NtNtCsk6AfKij8NQT_8hayabusa10detections7configsNtB6_18LogonSummaryOptionNtNtCseAiZU62iyN8_12clap_builder6derive4Args12augment_args
FNDA:0,_RNCNvXs1c_NtNtCsk6AfKij8NQT_8hayabusa10detections7configsNtB8_11InputOptionNtNtCseAiZU62iyN8_12clap_builder6derive14FromArgMatches20from_arg_matches_mut0Bc_
FNDA:0,_RNvXs14_NtNtCsk6AfKij8NQT_8hayabusa10detections7configsNtB6_12OutputOptionNtNtCseAiZU62iyN8_12clap_builder6derive4Args8group_id
FNDA:0,_RNCNvXs13_NtNtCsk6AfKij8NQT_8hayabusa10detections7configsNtB8_12OutputOptionNtNtCseAiZU62iyN8_12clap_builder6derive14FromArgMatches27update_from_arg_matches_muts6_0Bc_
FNDA:0,_RNCNvXsR_NtNtCsk6AfKij8NQT_8hayabusa10detections7configsNtB7_16EidMetricsOptionNtNtCseAiZU62iyN8_12clap_builder6derive14FromArgMatches20from_arg_matches_muts2_0Bb_
FNDA:0,_RNCNvXsF_NtNtCsk6AfKij8NQT_8hayabusa10detections7configsNtB7_12SearchOptionNtNtCseAiZU62iyN8_12clap_builder6derive14FromArgMatches20from_arg_matches_mutsf_0Bb_
FNDA:0,_RNvXs1k_NtNtCsk6AfKij8NQT_8hayabusa10detections7configsNtB6_16JSONOutputOptionNtNtCseAiZU62iyN8_12clap_builder6derive14FromArgMatches16from_arg_matches
FNDA:16,_RNvMs5_NtNtCsk6AfKij8NQT_8hayabusa10detections7configsNtB5_19EventKeyAliasConfig3new
FNDA:32,_RNvXsv_NtNtCsk6AfKij8NQT_8hayabusa10detections7configsNtB5_6ActionNtNtCsjwgglklCTGv_4core5clone5Clone5cloneB9_
FNDA:0,_RNCNvXsF_NtNtCsk6AfKij8NQT_8hayabusa10detections7configsNtB7_12SearchOptionNtNtCseAiZU62iyN8_12clap_builder6derive14FromArgMatches27update_from_arg_matches_muts6_0Bb_
FNDA:0,_RNCNvXsV_NtNtCsk6AfKij8NQT_8hayabusa10detections7configsNtB7_18PivotKeywordOptionNtNtCseAiZU62iyN8_12clap_builder6derive14FromArgMatches27update_from_arg_matches_muts_0Bb_
FNDA:0,_RNCNvXsx_NtNtCsk6AfKij8NQT_8hayabusa10detections7configsNtB7_18DetectCommonOptionNtNtCseAiZU62iyN8_12clap_builder6derive14FromArgMatches20from_arg_matches_muts3_0Bb_
FNDA:0,_RNCNvXsF_NtNtCsk6AfKij8NQT_8hayabusa10detections7configsNtB7_12SearchOptionNtNtCseAiZU62iyN8_12clap_builder6derive14FromArgMatches20from_arg_matches_mutsd_0Bb_
FNDA:0,_RNCNvXsZ_NtNtCsk6AfKij8NQT_8hayabusa10detections7configsNtB7_18LogonSummaryOptionNtNtCseAiZU62iyN8_12clap_builder6derive14FromArgMatches20from_arg_matches_muts5_0Bb_
FNDA:0,_RNCNvXs13_NtNtCsk6AfKij8NQT_8hayabusa10detections7configsNtB8_12OutputOptionNtNtCseAiZU62iyN8_12clap_builder6derive14FromArgMatches20from_arg_matches_muts0_0Bc_
FNDA:10,_RNvMs0_NtNtCsk6AfKij8NQT_8hayabusa10detections7configsNtB5_6Action15get_action_name
FNDA:35,_RNvMs3_NtNtCsk6AfKij8NQT_8hayabusa10detections7configsNtB5_9TargetIds3new
FNDA:0,_RNCNvXs13_NtNtCsk6AfKij8NQT_8hayabusa10detections7configsNtB8_12OutputOptionNtNtCseAiZU62iyN8_12clap_builder6derive14FromArgMatches27update_from_arg_matches_mutsl_0Bc_
FNDA:0,_RNvXs19_NtNtCsk6AfKij8NQT_8hayabusa10detections7configsNtB6_13CommonOptionsNtNtCseAiZU62iyN8_12clap_builder6derive4Args23augment_args_for_update
FNDA:0,_RNvXs1d_NtNtCsk6AfKij8NQT_8hayabusa10detections7configsNtB6_11InputOptionNtNtCseAiZU62iyN8_12clap_builder6derive4Args8group_id
FNDA:16,_RNvNtNtCsk6AfKij8NQT_8hayabusa10detections7configs19load_eventkey_alias
FNDA:0,_RNvXs1j_NtNtCsk6AfKij8NQT_8hayabusa10detections7configsNtB6_15CsvOutputOptionNtNtCsjwgglklCTGv_4core3fmt5Debug3fmt
FNDA:0,_RNCNvXs13_NtNtCsk6AfKij8NQT_8hayabusa10detections7configsNtB8_12OutputOptionNtNtCseAiZU62iyN8_12clap_builder6derive14FromArgMatches20from_arg_matches_mutsb_0Bc_
FNDA:0,_RNCNvMs_NtNtCsk6AfKij8NQT_8hayabusa10detections7configsNtB6_12StoredStatic18create_static_datas5_0Ba_
FNDA:0,_RNvXsH_NtNtCsk6AfKij8NQT_8hayabusa10detections7configsNtB5_12SearchOptionNtNtCsjwgglklCTGv_4core5clone5Clone5cloneB9_
FNDA:0,_RNCNvXsV_NtNtCsk6AfKij8NQT_8hayabusa10detections7configsNtB7_18PivotKeywordOptionNtNtCseAiZU62iyN8_12clap_builder6derive14FromArgMatches27update_from_arg_matches_muts1_0Bb_
FNDA:0,_RNCNvXs1o_NtNtCsk6AfKij8NQT_8hayabusa10detections7configsNtB8_21ComputerMetricsOptionNtNtCseAiZU62iyN8_12clap_builder6derive14FromArgMatches27update_from_arg_matches_muts2_0Bc_
FNDA:0,_RNCNvXs1u_NtNtCsk6AfKij8NQT_8hayabusa10detections7configsNtB8_6ConfigNtNtCseAiZU62iyN8_12clap_builder6derive14FromArgMatches20from_arg_matches_mut0Bc_
FNDA:0,_RNvXs1C_NtNtCsk6AfKij8NQT_8hayabusa10detections7configsNtB6_19EventKeyAliasConfigNtNtCsjwgglklCTGv_4core3fmt5Debug3fmt
FNDA:13,_RNvMs4_NtNtCsk6AfKij8NQT_8hayabusa10detections7configsNtB5_15TargetEventTime3new
FNDA:0,_RNCNvXsF_NtNtCsk6AfKij8NQT_8hayabusa10detections7configsNtB7_12SearchOptionNtNtCseAiZU62iyN8_12clap_builder6derive14FromArgMatches27update_from_arg_matches_mut0Bb_
FNDA:0,_RNvXsA_NtNtCsk6AfKij8NQT_8hayabusa10detections7configsNtB5_18DetectCommonOptionNtNtCsjwgglklCTGv_4core3fmt5Debug3fmt
FNDA:0,_RNvXs6_NtNtCsk6AfKij8NQT_8hayabusa10detections7configsNtB5_19EventKeyAliasConfigNtNtCsjwgglklCTGv_4core7default7Default7default
FNDA:0,_RNvXsG_NtNtCsk6AfKij8NQT_8hayabusa10detections7configsNtB5_12SearchOptionNtNtCseAiZU62iyN8_12clap_builder6derive4Args8group_id
FNDA:0,_RNCNvXsV_NtNtCsk6AfKij8NQT_8hayabusa10detections7configsNtB7_18PivotKeywordOptionNtNtCseAiZU62iyN8_12clap_builder6derive14FromArgMatches20from_arg_matches_mut0Bb_
FNDA:0,_RNvXsV_NtNtCsk6AfKij8NQT_8hayabusa10detections7configsNtB5_18PivotKeywordOptionNtNtCseAiZU62iyN8_12clap_builder6derive14FromArgMatches23update_from_arg_matches
FNDA:3840,_RNCNvNtNtCsk6AfKij8NQT_8hayabusa10detections7configs19load_eventkey_alias0B7_
FNDA:0,_RNCNvXsF_NtNtCsk6AfKij8NQT_8hayabusa10detections7configsNtB7_12SearchOptionNtNtCseAiZU62iyN8_12clap_builder6derive14FromArgMatches27update_from_arg_matches_muts7_0Bb_
FNDA:0,_RNCNvXs13_NtNtCsk6AfKij8NQT_8hayabusa10detections7configsNtB8_12OutputOptionNtNtCseAiZU62iyN8_12clap_builder6derive14FromArgMatches27update_from_arg_matches_muts1_0Bc_
FNDA:24,_RNvXsS_NtNtCsk6AfKij8NQT_8hayabusa10detections7configsNtB5_16EidMetricsOptionNtNtCseAiZU62iyN8_12clap_builder6derive4Args12augment_args
FNDA:0,_RNCNvXsR_NtNtCsk6AfKij8NQT_8hayabusa10detections7configsNtB7_16EidMetricsOptionNtNtCseAiZU62iyN8_12clap_builder6derive14FromArgMatches20from_arg_matches_mut0Bb_
FNDA:0,_RNCNvXs13_NtNtCsk6AfKij8NQT_8hayabusa10detections7configsNtB8_12OutputOptionNtNtCseAiZU62iyN8_12clap_builder6derive14FromArgMatches20from_arg_matches_muts1_0Bc_
FNDA:0,_RNCNvXs13_NtNtCsk6AfKij8NQT_8hayabusa10detections7configsNtB8_12OutputOptionNtNtCseAiZU62iyN8_12clap_builder6derive14FromArgMatches27update_from_arg_matches_mutso_0Bc_
FNDA:0,_RNvXs1k_NtNtCsk6AfKij8NQT_8hayabusa10detections7configsNtB6_16JSONOutputOptionNtNtCseAiZU62iyN8_12clap_builder6derive14FromArgMatches27update_from_arg_matches_mut
FNDA:0,_RNvXs1r_NtNtCsk6AfKij8NQT_8hayabusa10detections7configsNtB6_21ComputerMetricsOptionNtNtCsjwgglklCTGv_4core3fmt5Debug3fmt
FNDA:0,_RNvXs1v_NtNtCsk6AfKij8NQT_8hayabusa10detections7configsNtB6_6ConfigNtNtCseAiZU62iyN8_12clap_builder6derive4Args8group_id
FNDA:0,_RNCNvXs13_NtNtCsk6AfKij8NQT_8hayabusa10detections7configsNtB8_12OutputOptionNtNtCseAiZU62iyN8_12clap_builder6derive14FromArgMatches27update_from_arg_matches_mutsh_0Bc_
FNDA:0,_RNCNvXsF_NtNtCsk6AfKij8NQT_8hayabusa10detections7configsNtB7_12SearchOptionNtNtCseAiZU62iyN8_12clap_builder6derive14FromArgMatches20from_arg_matches_muts9_0Bb_
FNDA:0,_RNCNvXsR_NtNtCsk6AfKij8NQT_8hayabusa10detections7configsNtB7_16EidMetricsOptionNtNtCseAiZU62iyN8_12clap_builder6derive14FromArgMatches27update_from_arg_matches_muts3_0Bb_
FNDA:0,_RNCNvXsZ_NtNtCsk6AfKij8NQT_8hayabusa10detections7configsNtB7_18LogonSummaryOptionNtNtCseAiZU62iyN8_12clap_builder6derive14FromArgMatches20from_arg_matches_muts1_0Bb_
FNDA:0,_RNCNvXsZ_NtNtCsk6AfKij8NQT_8hayabusa10detections7configsNtB7_18LogonSummaryOptionNtNtCseAiZU62iyN8_12clap_builder6derive14FromArgMatches27update_from_arg_matches_muts3_0Bb_
FNDA:0,_RNCNvXsF_NtNtCsk6AfKij8NQT_8hayabusa10detections7configsNtB7_12SearchOptionNtNtCseAiZU62iyN8_12clap_builder6derive14FromArgMatches27update_from_arg_matches_mutsc_0Bb_
FNDA:0,_RNvXsS_NtNtCsk6AfKij8NQT_8hayabusa10detections7configsNtB5_16EidMetricsOptionNtNtCseAiZU62iyN8_12clap_builder6derive4Args8group_id
FNDA:0,_RNCNvXs13_NtNtCsk6AfKij8NQT_8hayabusa10detections7configsNtB8_12OutputOptionNtNtCseAiZU62iyN8_12clap_builder6derive14FromArgMatches27update_from_arg_matches_muts3_0Bc_
FNDA:0,_RNCNvXsx_NtNtCsk6AfKij8NQT_8hayabusa10detections7configsNtB7_18DetectCommonOptionNtNtCseAiZU62iyN8_12clap_builder6derive14FromArgMatches27update_from_arg_matches_muts_0Bb_
FNDA:0,_RNCNvXsV_NtNtCsk6AfKij8NQT_8hayabusa10detections7configsNtB7_18PivotKeywordOptionNtNtCseAiZU62iyN8_12clap_builder6derive14FromArgMatches27update_from_arg_matches_muts2_0Bb_
FNDA:0,_RNCNvXsJ_NtNtCsk6AfKij8NQT_8hayabusa10detections7configsNtB7_12UpdateOptionNtNtCseAiZU62iyN8_12clap_builder6derive14FromArgMatches20from_arg_matches_mut0Bb_
FNDA:6,_RNCNvMs_NtNtCsk6AfKij8NQT_8hayabusa10detections7configsNtB6_12StoredStatic18create_static_data0Ba_
FNDA:0,_RNCNvXsN_NtNtCsk6AfKij8NQT_8hayabusa10detections7configsNtB7_17LevelTuningOptionNtNtCseAiZU62iyN8_12clap_builder6derive14FromArgMatches20from_arg_matches_mut0Bb_
FNDA:0,_RNCNvXsJ_NtNtCsk6AfKij8NQT_8hayabusa10detections7configsNtB7_12UpdateOptionNtNtCseAiZU62iyN8_12clap_builder6derive14FromArgMatches27update_from_arg_matches_mut0Bb_
FNDA:0,_RNvXsy_NtNtCsk6AfKij8NQT_8hayabusa10detections7configsNtB5_18DetectCommonOptionNtNtCseAiZU62iyN8_12clap_builder6derive4Args8group_id
FNDA:12112,_RNCNCNvNtNtCsk6AfKij8NQT_8hayabusa10detections7configs19load_eventkey_alias00B9_
FNDA:0,_RNvXst_NtNtCsk6AfKij8NQT_8hayabusa10detections7configsNtB5_6ActionNtNtCseAiZU62iyN8_12clap_builder6derive14FromArgMatches23update_from_arg_matches
FNDA:0,_RNCNvXsF_NtNtCsk6AfKij8NQT_8hayabusa10detections7configsNtB7_12SearchOptionNtNtCseAiZU62iyN8_12clap_builder6derive14FromArgMatches20from_arg_matches_muts_0Bb_
FNDA:0,_RNCNvXsF_NtNtCsk6AfKij8NQT_8hayabusa10detections7configsNtB7_12SearchOptionNtNtCseAiZU62iyN8_12clap_builder6derive14FromArgMatches27update_from_arg_matches_mutse_0Bb_
FNDA:0,_RNCNvXs13_NtNtCsk6AfKij8NQT_8hayabusa10detections7configsNtB8_12OutputOptionNtNtCseAiZU62iyN8_12clap_builder6derive14FromArgMatches20from_arg_matches_mutsm_0Bc_
FNDA:0,_RNvXsZ_NtNtCsk6AfKij8NQT_8hayabusa10detections7configsNtB5_18LogonSummaryOptionNtNtCseAiZU62iyN8_12clap_builder6derive14FromArgMatches27update_from_arg_matches_mut
FNDA:0,_RNCNvXsV_NtNtCsk6AfKij8NQT_8hayabusa10detections7configsNtB7_18PivotKeywordOptionNtNtCseAiZU62iyN8_12clap_builder6derive14FromArgMatches20from_arg_matches_muts3_0Bb_
FNDA:0,_RNvXsx_NtNtCsk6AfKij8NQT_8hayabusa10detections7configsNtB5_18DetectCommonOptionNtNtCseAiZU62iyN8_12clap_builder6derive14FromArgMatches16from_arg_matches
FNDA:40,_RNvXs1a_NtNtCsk6AfKij8NQT_8hayabusa10detections7configsNtB6_13CommonOptionsNtNtCsjwgglklCTGv_4core5clone5Clone5cloneBa_
FNDA:0,_RNvXsF_NtNtCsk6AfKij8NQT_8hayabusa10detections7configsNtB5_12SearchOptionNtNtCseAiZU62iyN8_12clap_builder6derive14FromArgMatches27update_from_arg_matches_mut
FNDA:0,_RNvXs1h_NtNtCsk6AfKij8NQT_8hayabusa10detections7configsNtB6_15CsvOutputOptionNtNtCseAiZU62iyN8_12clap_builder6derive4Args8group_id
FNDA:24,_RNvXs1h_NtNtCsk6AfKij8NQT_8hayabusa10detections7configsNtB6_15CsvOutputOptionNtNtCseAiZU62iyN8_12clap_builder6derive4Args12augment_args
FNDA:0,_RNvXsr_NtNtCsk6AfKij8NQT_8hayabusa10detections7configsNtB5_12StoredStaticNtNtCsjwgglklCTGv_4core3fmt5Debug3fmt
FNDA:0,_RNvXst_NtNtCsk6AfKij8NQT_8hayabusa10detections7configsNtB5_6ActionNtNtCseAiZU62iyN8_12clap_builder6derive14FromArgMatches20from_arg_matches_mut
FNDA:0,_RNCNvMs_NtNtCsk6AfKij8NQT_8hayabusa10detections7configsNtB6_12StoredStatic18create_static_datasf_0Ba_
FNDA:16,_RNvNtNtCsk6AfKij8NQT_8hayabusa10detections7configs15load_target_ids
FNDA:0,_RNCNvXsV_NtNtCsk6AfKij8NQT_8hayabusa10detections7configsNtB7_18PivotKeywordOptionNtNtCseAiZU62iyN8_12clap_builder6derive14FromArgMatches20from_arg_matches_muts5_0Bb_
FNDA:0,_RNCNvXsZ_NtNtCsk6AfKij8NQT_8hayabusa10detections7configsNtB7_18LogonSummaryOptionNtNtCseAiZU62iyN8_12clap_builder6derive14FromArgMatches27update_from_arg_matches_muts4_0Bb_
FNDA:0,_RNCNvMs_NtNtCsk6AfKij8NQT_8hayabusa10detections7configsNtB6_12StoredStatic18create_static_datas6_0Ba_
FNDA:0,_RNvXsR_NtNtCsk6AfKij8NQT_8hayabusa10detections7configsNtB5_16EidMetricsOptionNtNtCseAiZU62iyN8_12clap_builder6derive14FromArgMatches20from_arg_matches_mut
FNDA:0,_RNCNvXsR_NtNtCsk6AfKij8NQT_8hayabusa10detections7configsNtB7_16EidMetricsOptionNtNtCseAiZU62iyN8_12clap_builder6derive14FromArgMatches27update_from_arg_matches_muts_0Bb_
FNDA:0,_RNvXsI_NtNtCsk6AfKij8NQT_8hayabusa10detections7configsNtB5_12SearchOptionNtNtCsjwgglklCTGv_4core3fmt5Debug3fmt
FNDA:0,_RNCNvXs13_NtNtCsk6AfKij8NQT_8hayabusa10detections7configsNtB8_12OutputOptionNtNtCseAiZU62iyN8_12clap_builder6derive14FromArgMatches20from_arg_matches_mutsc_0Bc_
FNDA:0,_RNvXsF_NtNtCsk6AfKij8NQT_8hayabusa10detections7configsNtB5_12SearchOptionNtNtCseAiZU62iyN8_12clap_builder6derive14FromArgMatches23update_from_arg_matches
FNDA:16,_RNvMs_NtNtCsk6AfKij8NQT_8hayabusa10detections7configsNtB4_12StoredStatic19get_default_details
FNDA:0,_RNvXsy_NtNtCsk6AfKij8NQT_8hayabusa10detections7configsNtB5_18DetectCommonOptionNtNtCseAiZU62iyN8_12clap_builder6derive4Args23augment_args_for_update
FNDA:0,_RNvXs1k_NtNtCsk6AfKij8NQT_8hayabusa10detections7configsNtB6_16JSONOutputOptionNtNtCseAiZU62iyN8_12clap_builder6derive14FromArgMatches20from_arg_matches_mut
FNDA:0,_RNCNCNvMs4_NtNtCsk6AfKij8NQT_8hayabusa10detections7configsNtB9_15TargetEventTime3new00Bd_
FNDA:0,_RNCNvXs1k_NtNtCsk6AfKij8NQT_8hayabusa10detections7configsNtB8_16JSONOutputOptionNtNtCseAiZU62iyN8_12clap_builder6derive14FromArgMatches20from_arg_matches_mut0Bc_
FNDA:0,_RNvXsN_NtNtCsk6AfKij8NQT_8hayabusa10detections7configsNtB5_17LevelTuningOptionNtNtCseAiZU62iyN8_12clap_builder6derive14FromArgMatches16from_arg_matches
FNDA:0,_RNCNvXsF_NtNtCsk6AfKij8NQT_8hayabusa10detections7configsNtB7_12SearchOptionNtNtCseAiZU62iyN8_12clap_builder6derive14FromArgMatches20from_arg_matches_muts0_0Bb_
FNDA:0,_RNvXsZ_NtNtCsk6AfKij8NQT_8hayabusa10detections7configsNtB5_18LogonSummaryOptionNtNtCseAiZU62iyN8_12clap_builder6derive14FromArgMatches23update_from_arg_matches
FNDA:0,_RNCNvXsF_NtNtCsk6AfKij8NQT_8hayabusa10detections7configsNtB7_12SearchOptionNtNtCseAiZU62iyN8_12clap_builder6derive14FromArgMatches20from_arg_matches_mutsc_0Bb_
FNDA:0,_RNvXsR_NtNtCsk6AfKij8NQT_8hayabusa10detections7configsNtB5_16EidMetricsOptionNtNtCseAiZU62iyN8_12clap_builder6derive14FromArgMatches16from_arg_matches
FNDA:0,_RNCNvXsZ_NtNtCsk6AfKij8NQT_8hayabusa10detections7configsNtB7_18LogonSummaryOptionNtNtCseAiZU62iyN8_12clap_builder6derive14FromArgMatches20from_arg_matches_muts4_0Bb_
FNDA:0,_RNCNvXs1c_NtNtCsk6AfKij8NQT_8hayabusa10detections7configsNtB8_11InputOptionNtNtCseAiZU62iyN8_12clap_builder6derive14FromArgMatches27update_from_arg_matches_mut0Bc_
FNDA:0,_RNvXs1o_NtNtCsk6AfKij8NQT_8hayabusa10detections7configsNtB6_21ComputerMetricsOptionNtNtCseAiZU62iyN8_12clap_builder6derive14FromArgMatches27update_from_arg_matches_mut
FNDA:0,_RNvXs1x_NtNtCsk6AfKij8NQT_8hayabusa10detections7configsNtB6_6ConfigNtNtCsjwgglklCTGv_4core3fmt5Debug3fmt
FNDA:8096,_RNvXs1F_NtNtCsk6AfKij8NQT_8hayabusa10detections7configsNtB6_9EventInfoNtNtCsjwgglklCTGv_4core5clone5Clone5cloneBa_
FNDA:0,_RNCNvXs13_NtNtCsk6AfKij8NQT_8hayabusa10detections7configsNtB8_12OutputOptionNtNtCseAiZU62iyN8_12clap_builder6derive14FromArgMatches20from_arg_matches_mutsi_0Bc_
FNDA:528,_RNCNvMs_NtNtCsk6AfKij8NQT_8hayabusa10detections7configsNtB6_12StoredStatic18create_static_datas9_0Ba_
FNDA:0,_RNCNvXsF_NtNtCsk6AfKij8NQT_8hayabusa10detections7configsNtB7_12SearchOptionNtNtCseAiZU62iyN8_12clap_builder6derive14FromArgMatches27update_from_arg_matches_mutsa_0Bb_
FNDA:0,_RNvXsV_NtNtCsk6AfKij8NQT_8hayabusa10detections7configsNtB5_18PivotKeywordOptionNtNtCseAiZU62iyN8_12clap_builder6derive14FromArgMatches16from_arg_matches
FNDA:0,_RNCNvXs13_NtNtCsk6AfKij8NQT_8hayabusa10detections7configsNtB8_12OutputOptionNtNtCseAiZU62iyN8_12clap_builder6derive14FromArgMatches27update_from_arg_matches_mutsd_0Bc_
FNDA:0,_RNvXsO_NtNtCsk6AfKij8NQT_8hayabusa10detections7configsNtB5_17LevelTuningOptionNtNtCseAiZU62iyN8_12clap_builder6derive4Args23augment_args_for_update
FNDA:0,_RNCNCNvMs4_NtNtCsk6AfKij8NQT_8hayabusa10detections7configsNtB9_15TargetEventTime3news_0s3_0Bd_
FNDA:24,_RNvXsW_NtNtCsk6AfKij8NQT_8hayabusa10detections7configsNtB5_18PivotKeywordOptionNtNtCseAiZU62iyN8_12clap_builder6derive4Args12augment_args
FNDA:0,_RNCNvXs1o_NtNtCsk6AfKij8NQT_8hayabusa10detections7configsNtB8_21ComputerMetricsOptionNtNtCseAiZU62iyN8_12clap_builder6derive14FromArgMatches27update_from_arg_matches_mut0Bc_
FNDA:0,_RNCNvXs1u_NtNtCsk6AfKij8NQT_8hayabusa10detections7configsNtB8_6ConfigNtNtCseAiZU62iyN8_12clap_builder6derive14FromArgMatches27update_from_arg_matches_mut0Bc_
FNDA:0,_RNCNvXs1o_NtNtCsk6AfKij8NQT_8hayabusa10detections7configsNtB8_21ComputerMetricsOptionNtNtCseAiZU62iyN8_12clap_builder6derive14FromArgMatches27update_from_arg_matches_muts1_0Bc_
FNDA:0,_RNCNvXs13_NtNtCsk6AfKij8NQT_8hayabusa10detections7configsNtB8_12OutputOptionNtNtCseAiZU62iyN8_12clap_builder6derive14FromArgMatches27update_from_arg_matches_muts0_0Bc_
FNDA:0,_RNvXsF_NtNtCsk6AfKij8NQT_8hayabusa10detections7configsNtB5_12SearchOptionNtNtCseAiZU62iyN8_12clap_builder6derive14FromArgMatches20from_arg_matches_mut
FNDA:0,_RNCNvXsx_NtNtCsk6AfKij8NQT_8hayabusa10detections7configsNtB7_18DetectCommonOptionNtNtCseAiZU62iyN8_12clap_builder6derive14FromArgMatches27update_from_arg_matches_muts2_0Bb_
FNDA:0,_RNvXsx_NtNtCsk6AfKij8NQT_8hayabusa10detections7configsNtB5_18DetectCommonOptionNtNtCseAiZU62iyN8_12clap_builder6derive14FromArgMatches23update_from_arg_matches
FNDA:0,_RNCNvXs13_NtNtCsk6AfKij8NQT_8hayabusa10detections7configsNtB8_12OutputOptionNtNtCseAiZU62iyN8_12clap_builder6derive14FromArgMatches27update_from_arg_matches_mutsf_0Bc_
FNDA:28,_RNvMs0_NtNtCsk6AfKij8NQT_8hayabusa10detections7configsNtB5_6Action8to_usize
FNDA:0,_RNCNvXsF_NtNtCsk6AfKij8NQT_8hayabusa10detections7configsNtB7_12SearchOptionNtNtCseAiZU62iyN8_12clap_builder6derive14FromArgMatches20from_arg_matches_muts7_0Bb_
FNDA:0,_RNCNvXs13_NtNtCsk6AfKij8NQT_8hayabusa10detections7configsNtB8_12OutputOptionNtNtCseAiZU62iyN8_12clap_builder6derive14FromArgMatches20from_arg_matches_muts6_0Bc_
FNDA:48,_RNvXs14_NtNtCsk6AfKij8NQT_8hayabusa10detections7configsNtB6_12OutputOptionNtNtCseAiZU62iyN8_12clap_builder6derive4Args12augment_args
FNDA:0,_RNCNvXsV_NtNtCsk6AfKij8NQT_8hayabusa10detections7configsNtB7_18PivotKeywordOptionNtNtCseAiZU62iyN8_12clap_builder6derive14FromArgMatches20from_arg_matches_muts2_0Bb_
FNDA:0,_RNvXs1f_NtNtCsk6AfKij8NQT_8hayabusa10detections7configsNtB6_11InputOptionNtNtCsjwgglklCTGv_4core3fmt5Debug3fmt
FNDA:0,_RNCNvXsR_NtNtCsk6AfKij8NQT_8hayabusa10detections7configsNtB7_16EidMetricsOptionNtNtCseAiZU62iyN8_12clap_builder6derive14FromArgMatches20from_arg_matches_muts0_0Bb_
FNDA:0,_RNvXs9_NtNtCsk6AfKij8NQT_8hayabusa10detections7configsNtB5_15EventInfoConfigNtNtCsjwgglklCTGv_4core7default7Default7default
FNDA:1,_RNvNtNtCsk6AfKij8NQT_8hayabusa10detections7configs31create_control_chat_replace_map
FNDA:0,_RNvXNtNtCsk6AfKij8NQT_8hayabusa10detections7configsNtB2_12ConfigReaderNtNtCsjwgglklCTGv_4core7default7Default7default
FNDA:0,_RNvXsF_NtNtCsk6AfKij8NQT_8hayabusa10detections7configsNtB5_12SearchOptionNtNtCseAiZU62iyN8_12clap_builder6derive14FromArgMatches16from_arg_matches
FNDA:0,_RNCNvXsF_NtNtCsk6AfKij8NQT_8hayabusa10detections7configsNtB7_12SearchOptionNtNtCseAiZU62iyN8_12clap_builder6derive14FromArgMatches27update_from_arg_matches_mutsb_0Bb_
FNDA:0,_RNCNvXsR_NtNtCsk6AfKij8NQT_8hayabusa10detections7configsNtB7_16EidMetricsOptionNtNtCseAiZU62iyN8_12clap_builder6derive14FromArgMatches27update_from_arg_matches_muts2_0Bb_
FNDA:0,_RNvXs1c_NtNtCsk6AfKij8NQT_8hayabusa10detections7configsNtB6_11InputOptionNtNtCseAiZU62iyN8_12clap_builder6derive14FromArgMatches23update_from_arg_matches
FNDA:168,_RNvXs1d_NtNtCsk6AfKij8NQT_8hayabusa10detections7configsNtB6_11InputOptionNtNtCseAiZU62iyN8_12clap_builder6derive4Args12augment_args
FNDA:0,_RNCNvXsZ_NtNtCsk6AfKij8NQT_8hayabusa10detections7configsNtB7_18LogonSummaryOptionNtNtCseAiZU62iyN8_12clap_builder6derive14FromArgMatches20from_arg_matches_mut0Bb_
FNDA:0,_RNCNvXsZ_NtNtCsk6AfKij8NQT_8hayabusa10detections7configsNtB7_18LogonSummaryOptionNtNtCseAiZU62iyN8_12clap_builder6derive14FromArgMatches27update_from_arg_matches_muts5_0Bb_
FNDA:0,_RNvXsB_NtNtCsk6AfKij8NQT_8hayabusa10detections7configsNtB5_20DefaultProfileOptionNtNtCseAiZU62iyN8_12clap_builder6derive14FromArgMatches27update_from_arg_matches_mut
FNDA:0,_RNvXsC_NtNtCsk6AfKij8NQT_8hayabusa10detections7configsNtB5_20DefaultProfileOptionNtNtCseAiZU62iyN8_12clap_builder6derive4Args23augment_args_for_update
FNDA:0,_RNvXs1o_NtNtCsk6AfKij8NQT_8hayabusa10detections7configsNtB6_21ComputerMetricsOptionNtNtCseAiZU62iyN8_12clap_builder6derive14FromArgMatches23update_from_arg_matches
FNDA:0,_RNCNvMs_NtNtCsk6AfKij8NQT_8hayabusa10detections7configsNtB6_12StoredStatic18create_static_datase_0Ba_
FNDA:0,_RNvXs1u_NtNtCsk6AfKij8NQT_8hayabusa10detections7configsNtB6_6ConfigNtNtCseAiZU62iyN8_12clap_builder6derive14FromArgMatches23update_from_arg_matches
FNDA:24,_RNvXs1p_NtNtCsk6AfKij8NQT_8hayabusa10detections7configsNtB6_21ComputerMetricsOptionNtNtCseAiZU62iyN8_12clap_builder6derive4Args12augment_args
FNDA:0,_RNCNvXs13_NtNtCsk6AfKij8NQT_8hayabusa10detections7configsNtB8_12OutputOptionNtNtCseAiZU62iyN8_12clap_builder6derive14FromArgMatches20from_arg_matches_mutsl_0Bc_
FNDA:0,_RNCNvXsx_NtNtCsk6AfKij8NQT_8hayabusa10detections7configsNtB7_18DetectCommonOptionNtNtCseAiZU62iyN8_12clap_builder6derive14FromArgMatches27update_from_arg_matches_muts3_0Bb_
FNDA:2,_RNCNvMs_NtNtCsk6AfKij8NQT_8hayabusa10detections7configsNtB6_12StoredStatic18create_static_datas_0Ba_
FNDA:0,_RNCNvXsF_NtNtCsk6AfKij8NQT_8hayabusa10detections7configsNtB7_12SearchOptionNtNtCseAiZU62iyN8_12clap_builder6derive14FromArgMatches27update_from_arg_matches_mutsd_0Bb_
FNDA:24,_RNvXsK_NtNtCsk6AfKij8NQT_8hayabusa10detections7configsNtB5_12UpdateOptionNtNtCseAiZU62iyN8_12clap_builder6derive4Args12augment_args
FNDA:0,_RNvXsB_NtNtCsk6AfKij8NQT_8hayabusa10detections7configsNtB5_20DefaultProfileOptionNtNtCseAiZU62iyN8_12clap_builder6derive14FromArgMatches23update_from_arg_matches
FNDA:0,_RNCNvXsF_NtNtCsk6AfKij8NQT_8hayabusa10detections7configsNtB7_12SearchOptionNtNtCseAiZU62iyN8_12clap_builder6derive14FromArgMatches20from_arg_matches_muts8_0Bb_
FNDA:16,_RNvNtNtCsk6AfKij8NQT_8hayabusa10detections7configs19load_eventcode_info
FNDA:24,_RNvXsO_NtNtCsk6AfKij8NQT_8hayabusa10detections7configsNtB5_17LevelTuningOptionNtNtCseAiZU62iyN8_12clap_builder6derive4Args12augment_args
FNDA:0,_RNCNvNtNtCsk6AfKij8NQT_8hayabusa10detections7configs15load_target_ids0B7_
FNDA:0,_RNCNvXsV_NtNtCsk6AfKij8NQT_8hayabusa10detections7configsNtB7_18PivotKeywordOptionNtNtCseAiZU62iyN8_12clap_builder6derive14FromArgMatches27update_from_arg_matches_muts6_0Bb_
FNDA:5,_RNvXs11_NtNtCsk6AfKij8NQT_8hayabusa10detections7configsNtB6_18LogonSummaryOptionNtNtCsjwgglklCTGv_4core5clone5Clone5cloneBa_
FNDA:0,_RNCNvMs_NtNtCsk6AfKij8NQT_8hayabusa10detections7configsNtB6_12StoredStatic18create_static_datas4_0Ba_
FNDA:0,_RNCNvXsF_NtNtCsk6AfKij8NQT_8hayabusa10detections7configsNtB7_12SearchOptionNtNtCseAiZU62iyN8_12clap_builder6derive14FromArgMatches20from_arg_matches_muts3_0Bb_
FNDA:0,_RNCNvXs13_NtNtCsk6AfKij8NQT_8hayabusa10detections7configsNtB8_12OutputOptionNtNtCseAiZU62iyN8_12clap_builder6derive14FromArgMatches27update_from_arg_matches_mutsb_0Bc_
FNDA:5,_RNvXsT_NtNtCsk6AfKij8NQT_8hayabusa10detections7configsNtB5_16EidMetricsOptionNtNtCsjwgglklCTGv_4core5clone5Clone5cloneB9_
FNDA:0,_RNvXs1n_NtNtCsk6AfKij8NQT_8hayabusa10detections7configsNtB6_16JSONOutputOptionNtNtCsjwgglklCTGv_4core3fmt5Debug3fmt
FNDA:0,_RNvXsM_NtNtCsk6AfKij8NQT_8hayabusa10detections7configsNtB5_12UpdateOptionNtNtCsjwgglklCTGv_4core3fmt5Debug3fmt
FNDA:0,_RNCNCNvMs4_NtNtCsk6AfKij8NQT_8hayabusa10detections7configsNtB9_15TargetEventTime3news_00Bd_
FNDA:0,_RNCNvXs1o_NtNtCsk6AfKij8NQT_8hayabusa10detections7configsNtB8_21ComputerMetricsOptionNtNtCseAiZU62iyN8_12clap_builder6derive14FromArgMatches27update_from_arg_matches_muts0_0Bc_
FNDA:0,_RNvXs16_NtNtCsk6AfKij8NQT_8hayabusa10detections7configsNtB6_12OutputOptionNtNtCsjwgglklCTGv_4core3fmt5Debug3fmt
FNDA:24,_RNvXs1v_NtNtCsk6AfKij8NQT_8hayabusa10detections7configsNtB6_6ConfigNtNtCseAiZU62iyN8_12clap_builder6derive4Args12augment_args
FNDA:0,_RNvXs1y_NtNtCsk6AfKij8NQT_8hayabusa10detections7configsNtB6_9TargetIdsNtNtCsjwgglklCTGv_4core3fmt5Debug3fmt
FNDA:0,_RNvXs14_NtNtCsk6AfKij8NQT_8hayabusa10detections7configsNtB6_12OutputOptionNtNtCseAiZU62iyN8_12clap_builder6derive4Args23augment_args_for_update
FNDA:0,_RNvXsY_NtNtCsk6AfKij8NQT_8hayabusa10detections7configsNtB5_18PivotKeywordOptionNtNtCsjwgglklCTGv_4core3fmt5Debug3fmt
FNDA:10,_RNvNtNtCsk6AfKij8NQT_8hayabusa10detections7configs21get_target_extensions
FNDA:0,_RNvXs1b_NtNtCsk6AfKij8NQT_8hayabusa10detections7configsNtB6_13CommonOptionsNtNtCsjwgglklCTGv_4core3fmt5Debug3fmt
FNDA:0,_RNCNvXs13_NtNtCsk6AfKij8NQT_8hayabusa10detections7configsNtB8_12OutputOptionNtNtCseAiZU62iyN8_12clap_builder6derive14FromArgMatches20from_arg_matches_mutsg_0Bc_
FNDA:0,_RNvXs1d_NtNtCsk6AfKij8NQT_8hayabusa10detections7configsNtB6_11InputOptionNtNtCseAiZU62iyN8_12clap_builder6derive4Args23augment_args_for_update
FNDA:0,_RNCNvXs13_NtNtCsk6AfKij8NQT_8hayabusa10detections7configsNtB8_12OutputOptionNtNtCseAiZU62iyN8_12clap_builder6derive14FromArgMatches27update_from_arg_matches_muts_0Bc_
FNDA:0,_RNCNvXs1o_NtNtCsk6AfKij8NQT_8hayabusa10detections7configsNtB8_21ComputerMetricsOptionNtNtCseAiZU62iyN8_12clap_builder6derive14FromArgMatches20from_arg_matches_mut0Bc_
FNDA:0,_RNvXs1k_NtNtCsk6AfKij8NQT_8hayabusa10detections7configsNtB6_16JSONOutputOptionNtNtCseAiZU62iyN8_12clap_builder6derive14FromArgMatches23update_from_arg_matches
FNDA:0,_RNCNvXsF_NtNtCsk6AfKij8NQT_8hayabusa10detections7configsNtB7_12SearchOptionNtNtCseAiZU62iyN8_12clap_builder6derive14FromArgMatches27update_from_arg_matches_muts9_0Bb_
FNDA:0,_RNCNvXs13_NtNtCsk6AfKij8NQT_8hayabusa10detections7configsNtB8_12OutputOptionNtNtCseAiZU62iyN8_12clap_builder6derive14FromArgMatches27update_from_arg_matches_mutsc_0Bc_
FNDA:24,_RNvXsC_NtNtCsk6AfKij8NQT_8hayabusa10detections7configsNtB5_20DefaultProfileOptionNtNtCseAiZU62iyN8_12clap_builder6derive4Args12augment_args
FNDA:0,_RNCNvXsF_NtNtCsk6AfKij8NQT_8hayabusa10detections7configsNtB7_12SearchOptionNtNtCseAiZU62iyN8_12clap_builder6derive14FromArgMatches20from_arg_matches_muts4_0Bb_
FNDA:0,_RNCNvXsR_NtNtCsk6AfKij8NQT_8hayabusa10detections7configsNtB7_16EidMetricsOptionNtNtCseAiZU62iyN8_12clap_builder6derive14FromArgMatches27update_from_arg_matches_mut0Bb_
FNDA:0,_RNCNvXsF_NtNtCsk6AfKij8NQT_8hayabusa10detections7configsNtB7_12SearchOptionNtNtCseAiZU62iyN8_12clap_builder6derive14FromArgMatches20from_arg_matches_mutsg_0Bb_
FNDA:16,_RNvMs_NtNtCsk6AfKij8NQT_8hayabusa10detections7configsNtB4_12StoredStatic18create_static_data
FNDA:0,_RNCNvXsZ_NtNtCsk6AfKij8NQT_8hayabusa10detections7configsNtB7_18LogonSummaryOptionNtNtCseAiZU62iyN8_12clap_builder6derive14FromArgMatches27update_from_arg_matches_mut0Bb_
FNDA:0,_RNvXs1B_NtNtCsk6AfKij8NQT_8hayabusa10detections7configsNtB6_15TargetEventTimeNtNtCsjwgglklCTGv_4core5clone5Clone5cloneBa_
FNDA:0,_RNvXs1H_NtNtCsk6AfKij8NQT_8hayabusa10detections7configsNtB6_15EventInfoConfigNtNtCsjwgglklCTGv_4core5clone5Clone5cloneBa_
FNDA:0,_RNvXss_NtNtCsk6AfKij8NQT_8hayabusa10detections7configsNtB5_12StoredStaticNtNtCsjwgglklCTGv_4core5clone5Clone5cloneB9_
FNDA:0,_RNvXs1z_NtNtCsk6AfKij8NQT_8hayabusa10detections7configsNtB6_9TargetIdsNtNtCsjwgglklCTGv_4core5clone5Clone5cloneBa_
FNDA:0,_RNvXs1D_NtNtCsk6AfKij8NQT_8hayabusa10detections7configsNtB6_19EventKeyAliasConfigNtNtCsjwgglklCTGv_4core5clone5Clone5cloneBa_
FNF:242
FNH:107
DA:47,0
DA:48,0
DA:49,0
DA:52,21
DA:91,439
DA:92,439
DA:93,439
DA:94,404
DA:95,8
DA:96,8
DA:98,5
DA:99,5
DA:100,1
DA:101,1
DA:102,3
DA:103,12
DA:105,439
DA:106,404
DA:107,8
DA:108,5
DA:109,5
DA:110,5
DA:111,1
DA:112,0
DA:113,0
DA:114,4
DA:115,1
DA:116,3
DA:117,3
DA:118,3
DA:119,3
DA:120,3
DA:122,439
DA:123,439
DA:124,404
DA:125,8
DA:126,5
DA:127,5
DA:128,1
DA:129,1
DA:130,3
DA:131,12
DA:133,439
DA:134,404
DA:135,8
DA:136,5
DA:137,5
DA:138,1
DA:139,1
DA:140,3
DA:141,12
DA:143,439
DA:144,404
DA:145,8
DA:146,5
DA:147,5
DA:148,1
DA:149,3
DA:150,13
DA:152,439
DA:153,404
DA:154,404
DA:155,404
DA:156,8
DA:157,8
DA:158,8
DA:159,1
DA:160,1
DA:161,1
DA:162,26
DA:164,439
DA:165,404
DA:166,404
DA:167,0
DA:168,0
DA:169,0
DA:170,0
DA:171,0
DA:172,0
DA:173,0
DA:174,0
DA:176,8
DA:177,8
DA:178,0
DA:179,0
DA:180,0
DA:181,0
DA:182,0
DA:183,0
DA:184,0
DA:185,0
DA:187,1
DA:188,1
DA:189,0
DA:190,0
DA:191,0
DA:193,26
DA:195,439
DA:196,0
DA:197,0
DA:198,439
DA:200,439
DA:201,404
DA:202,404
DA:203,404
DA:204,404
DA:205,404
DA:206,404
DA:207,404
DA:208,404
DA:209,8
DA:210,8
DA:211,8
DA:212,8
DA:213,8
DA:214,8
DA:215,8
DA:216,8
DA:217,27
DA:219,439
DA:220,0
DA:221,0
DA:222,439
DA:223,439
DA:224,2
DA:225,2
DA:226,2
DA:227,2
DA:228,2
DA:229,2
DA:230,2
DA:231,2
DA:232,2
DA:233,2
DA:234,2
DA:235,2
DA:236,2
DA:237,2
DA:238,2
DA:239,2
DA:240,2
DA:241,2
DA:242,2
DA:243,0
DA:244,0
DA:245,0
DA:246,0
DA:247,0
DA:248,2
DA:249,2
DA:250,2
DA:252,2
DA:254,0
DA:255,0
DA:257,2
DA:258,2
DA:259,2
DA:260,2
DA:261,2
DA:262,2
DA:263,2
DA:264,2
DA:265,2
DA:266,2
DA:267,6
DA:268,4
DA:269,4
DA:270,4
DA:271,4
DA:272,4
DA:273,4
DA:274,4
DA:275,4
DA:276,4
DA:277,4
DA:278,4
DA:280,2
DA:281,437
DA:282,439
DA:283,404
DA:284,8
DA:285,5
DA:286,1
DA:287,5
DA:288,1
DA:289,3
DA:290,12
DA:292,439
DA:293,439
DA:294,439
DA:295,0
DA:296,0
DA:297,0
DA:298,0
DA:299,0
DA:300,0
DA:301,439
DA:302,439
DA:303,439
DA:304,439
DA:305,439
DA:306,439
DA:307,404
DA:308,1
DA:309,34
DA:311,439
DA:312,404
DA:313,8
DA:314,27
DA:316,439
DA:317,0
DA:318,0
DA:319,0
DA:320,0
DA:321,0
DA:322,0
DA:323,0
DA:324,0
DA:325,0
DA:326,0
DA:327,0
DA:328,0
DA:329,0
DA:331,439
DA:333,439
DA:335,404
DA:336,404
DA:337,404
DA:338,404
DA:339,404
DA:340,404
DA:341,404
DA:342,404
DA:343,404
DA:344,8
DA:345,8
DA:346,8
DA:347,8
DA:348,8
DA:349,8
DA:350,8
DA:351,8
DA:352,8
DA:353,5
DA:354,5
DA:355,5
DA:356,5
DA:357,5
DA:358,5
DA:359,5
DA:360,5
DA:361,1
DA:362,1
DA:363,1
DA:364,1
DA:365,1
DA:366,1
DA:367,1
DA:368,1
DA:369,5
DA:370,5
DA:371,5
DA:372,5
DA:373,5
DA:374,5
DA:375,5
DA:376,5
DA:377,16
DA:379,439
DA:381,404
DA:382,404
DA:383,404
DA:384,404
DA:385,404
DA:386,404
DA:387,404
DA:388,404
DA:389,404
DA:390,8
DA:391,8
DA:392,8
DA:393,8
DA:394,8
DA:395,8
DA:396,8
DA:397,8
DA:398,8
DA:399,5
DA:400,5
DA:401,5
DA:402,5
DA:403,5
DA:404,5
DA:405,5
DA:406,5
DA:407,1
DA:408,1
DA:409,1
DA:410,1
DA:411,1
DA:412,1
DA:413,1
DA:414,1
DA:415,5
DA:416,5
DA:417,5
DA:418,5
DA:419,5
DA:420,5
DA:421,5
DA:422,5
DA:423,16
DA:425,439
DA:426,404
DA:427,404
DA:428,404
DA:429,404
DA:430,404
DA:431,404
DA:432,404
DA:433,404
DA:434,8
DA:435,8
DA:436,8
DA:437,8
DA:438,8
DA:439,8
DA:440,8
DA:441,8
DA:442,1
DA:443,1
DA:444,1
DA:445,1
DA:446,1
DA:447,1
DA:448,1
DA:449,26
DA:451,439
DA:452,404
DA:453,404
DA:454,404
DA:455,404
DA:456,404
DA:457,404
DA:458,404
DA:459,404
DA:460,8
DA:461,8
DA:462,8
DA:463,8
DA:464,8
DA:465,8
DA:466,8
DA:467,8
DA:468,1
DA:469,1
DA:470,1
DA:471,1
DA:472,1
DA:473,1
DA:474,1
DA:475,26
DA:477,439
DA:478,404
DA:479,8
DA:480,27
DA:482,439
DA:483,0
DA:485,439
DA:486,439
DA:487,439
DA:488,0
DA:489,0
DA:490,0
DA:491,0
DA:492,0
DA:493,0
DA:494,439
DA:495,439
DA:496,439
DA:497,439
DA:499,439
DA:500,404
DA:501,8
DA:502,5
DA:503,5
DA:504,1
DA:505,1
DA:506,15
DA:508,439
DA:509,404
DA:510,8
DA:511,8
DA:513,5
DA:514,5
DA:515,1
DA:516,1
DA:517,3
DA:518,12
DA:521,439
DA:522,439
DA:523,439
DA:524,439
DA:525,439
DA:526,439
DA:527,0
DA:528,0
DA:529,0
DA:530,0
DA:531,0
DA:532,0
DA:533,439
DA:534,439
DA:535,439
DA:536,439
DA:537,439
DA:538,439
DA:539,439
DA:540,439
DA:541,14487
DA:542,439
DA:543,14487
DA:544,439
DA:545,439
DA:546,439
DA:547,0
DA:548,0
DA:549,0
DA:550,0
DA:551,0
DA:552,0
DA:553,439
DA:554,439
DA:555,439
DA:556,439
DA:557,439
DA:558,439
DA:559,439
DA:560,439
DA:561,0
DA:562,0
DA:563,0
DA:564,0
DA:565,0
DA:566,0
DA:567,439
DA:568,439
DA:569,439
DA:570,439
DA:571,439
DA:572,439
DA:573,439
DA:574,0
DA:575,0
DA:576,0
DA:577,0
DA:578,0
DA:579,0
DA:580,439
DA:581,439
DA:582,439
DA:583,439
DA:584,439
DA:585,439
DA:586,439
DA:587,439
DA:588,439
DA:589,439
DA:590,439
DA:591,439
DA:592,439
DA:593,439
DA:594,439
DA:595,439
DA:596,439
DA:597,439
DA:598,439
DA:599,0
DA:600,0
DA:601,0
DA:602,0
DA:603,0
DA:604,0
DA:605,439
DA:606,439
DA:607,439
DA:608,439
DA:609,439
DA:610,439
DA:611,439
DA:612,0
DA:613,0
DA:614,0
DA:615,0
DA:616,0
DA:617,0
DA:618,439
DA:619,439
DA:620,439
DA:621,439
DA:622,439
DA:623,439
DA:624,439
DA:625,439
DA:626,439
DA:627,439
DA:628,439
DA:629,439
DA:630,439
DA:631,439
DA:632,439
DA:633,439
DA:634,439
DA:635,439
DA:636,439
DA:637,439
DA:638,439
DA:639,439
DA:640,439
DA:641,439
DA:642,439
DA:643,439
DA:644,439
DA:645,439
DA:646,439
DA:647,439
DA:648,439
DA:649,439
DA:650,439
DA:651,439
DA:652,439
DA:653,439
DA:654,439
DA:655,439
DA:657,440
DA:658,440
DA:659,440
DA:660,0
DA:661,0
DA:662,0
DA:664,440
DA:665,440
DA:666,440
DA:667,440
DA:668,43465
DA:669,43465
DA:670,43465
DA:672,0
DA:673,0
DA:674,0
DA:677,43465
DA:678,43465
DA:679,43465
DA:681,0
DA:682,0
DA:683,0
DA:687,0
DA:688,0
DA:689,0
DA:692,43465
DA:693,43465
DA:695,0
DA:696,0
DA:697,0
DA:700,43465
DA:701,43465
DA:702,43465
DA:703,43465
DA:704,43465
DA:705,43465
DA:706,440
DA:707,440
DA:710,440
DA:715,439
DA:716,404
DA:717,8
DA:718,5
DA:719,5
DA:720,1
DA:721,13
DA:723,439
DA:726,457
DA:839,887
DA:840,881
DA:841,814
DA:842,19
DA:843,10
DA:844,10
DA:845,2
DA:846,8
DA:847,10
DA:848,0
DA:849,0
DA:850,0
DA:851,2
DA:852,6
DA:855,6
DA:857,887
DA:859,11
DA:860,10
DA:861,2
DA:862,2
DA:863,2
DA:864,2
DA:865,0
DA:866,0
DA:867,0
DA:868,0
DA:869,0
DA:870,0
DA:871,0
DA:872,2
DA:875,1
DA:877,11
DA:880,884
DA:884,0
DA:888,0
DA:902,0
DA:914,0
DA:918,0
DA:922,0
DA:926,0
DA:929,0
DA:939,24
DA:956,0
DA:977,0
DA:989,0
DA:999,0
DA:1012,0
DA:1026,0
DA:1038,0
DA:1042,0
DA:1046,0
DA:1050,0
DA:1054,0
DA:1058,0
DA:1062,0
DA:1066,0
DA:1070,0
DA:1074,0
DA:1078,0
DA:1082,0
DA:1086,0
DA:1089,24
DA:1104,0
DA:1107,24
DA:1122,0
DA:1125,24
DA:1142,0
DA:1146,0
DA:1150,0
DA:1154,0
DA:1158,0
DA:1162,0
DA:1166,0
DA:1170,0
DA:1173,24
DA:1188,0
DA:1192,0
DA:1196,0
DA:1209,0
DA:1224,0
DA:1236,0
DA:1240,0
DA:1244,0
DA:1251,0
DA:1254,24
DA:1271,0
DA:1275,0
DA:1279,0
DA:1283,0
DA:1287,0
DA:1291,0
DA:1295,0
DA:1299,0
DA:1311,856
DA:1326,0
DA:1330,0
DA:1334,0
DA:1338,0
DA:1342,0
DA:1346,0
DA:1358,0
DA:1373,0
DA:1385,0
DA:1389,0
DA:1393,0
DA:1397,0
DA:1401,0
DA:1408,0
DA:1412,0
DA:1416,0
DA:1420,0
DA:1424,0
DA:1428,0
DA:1432,0
DA:1436,0
DA:1448,0
DA:1456,0
DA:1460,0
DA:1464,0
DA:1473,0
DA:1477,0
DA:1480,911
DA:1484,0
DA:1488,0
DA:1491,897
DA:1503,0
DA:1507,0
DA:1514,412
DA:1521,0
DA:1539,24
DA:1550,0
DA:1563,24
DA:1577,0
DA:1581,0
DA:1595,0
DA:1607,0
DA:1611,0
DA:1615,0
DA:1618,460
DA:1631,0
DA:1635,12
DA:1636,12
DA:1637,12
DA:1638,12
DA:1640,0
DA:1642,12
DA:1643,12
DA:1644,12
DA:1645,12
DA:1646,12
DA:1647,12
DA:1648,12
DA:1649,12
DA:1650,12
DA:1653,42
DA:1659,881
DA:1660,881
DA:1661,881
DA:1665,881
DA:1666,881
DA:1667,881
DA:1668,881
DA:1669,881
DA:1671,12206
DA:1672,12206
DA:1673,12206
DA:1674,12206
DA:1675,0
DA:1676,0
DA:1677,12206
DA:1680,439
DA:1681,439
DA:1682,439
DA:1683,439
DA:1684,0
DA:1685,0
DA:1686,439
DA:1688,72435
DA:1689,72435
DA:1690,0
DA:1691,72435
DA:1692,72435
DA:1695,439
DA:1696,439
DA:1698,0
DA:1706,19
DA:1707,19
DA:1709,28
DA:1710,6
DA:1711,6
DA:1713,6
DA:1715,0
DA:1716,0
DA:1717,0
DA:1718,0
DA:1722,22
DA:1724,28
DA:1726,19
DA:1728,19
DA:1729,6
DA:1730,6
DA:1731,36
DA:1732,36
DA:1733,36
DA:1734,36
DA:1735,36
DA:1736,36
DA:1737,0
DA:1739,36
DA:1741,36
DA:1742,25
DA:1743,11
DA:1744,11
DA:1745,11
DA:1746,11
DA:1747,0
DA:1748,0
DA:1749,0
DA:1750,0
DA:1751,0
DA:1752,0
DA:1755,14
DA:1756,0
DA:1757,0
DA:1758,0
DA:1759,0
DA:1760,0
DA:1761,0
DA:1762,6
DA:1763,6
DA:1764,6
DA:1765,6
DA:1766,6
DA:1767,6
DA:1768,6
DA:1769,6
DA:1770,6
DA:1771,6
DA:1772,6
DA:1773,6
DA:1775,0
DA:1776,0
DA:1777,0
DA:1778,0
DA:1779,0
DA:1780,0
DA:1783,13
DA:1785,19
DA:1787,19
DA:1788,19
DA:1789,19
DA:1790,19
DA:1791,6
DA:1792,6
DA:1793,1
DA:1794,1
DA:1795,1
DA:1796,1
DA:1797,1
DA:1799,5
DA:1800,5
DA:1801,5
DA:1802,5
DA:1803,5
DA:1805,6
DA:1806,6
DA:1807,6
DA:1808,6
DA:1809,6
DA:1810,6
DA:1812,3
DA:1813,3
DA:1814,1
DA:1815,1
DA:1816,1
DA:1817,1
DA:1818,1
DA:1820,2
DA:1821,2
DA:1822,2
DA:1823,2
DA:1824,2
DA:1826,3
DA:1827,3
DA:1828,3
DA:1829,3
DA:1830,3
DA:1831,3
DA:1833,1
DA:1834,1
DA:1835,1
DA:1836,1
DA:1837,1
DA:1838,1
DA:1839,1
DA:1841,0
DA:1842,0
DA:1843,0
DA:1844,0
DA:1845,0
DA:1847,1
DA:1848,1
DA:1849,1
DA:1850,1
DA:1851,1
DA:1852,1
DA:1854,3
DA:1855,3
DA:1856,1
DA:1857,1
DA:1858,1
DA:1859,1
DA:1860,1
DA:1862,2
DA:1863,2
DA:1864,2
DA:1865,2
DA:1866,2
DA:1868,3
DA:1869,3
DA:1870,3
DA:1871,3
DA:1872,3
DA:1873,3
DA:1876,2
DA:1877,0
DA:1878,0
DA:1879,0
DA:1880,0
DA:1881,0
DA:1883,2
DA:1885,2
DA:1888,3
DA:1889,1
DA:1890,1
DA:1891,1
DA:1892,1
DA:1893,1
DA:1895,2
DA:1897,3
DA:1900,1
DA:1901,1
DA:1902,1
DA:1903,1
DA:1904,1
DA:1905,1
DA:1907,0
DA:1909,1
DA:1911,0
DA:1913,19
DA:1915,21
DA:1916,21
DA:1917,21
DA:1918,21
DA:1919,21
DA:1920,21
DA:1921,21
DA:1922,21
DA:1923,21
DA:1924,21
DA:1925,21
DA:1927,10
DA:1928,10
DA:1929,10
DA:1931,14
DA:1932,14
DA:1933,0
DA:1934,14
DA:1935,14
DA:1936,5
DA:1937,1
DA:1938,4
DA:1939,9
DA:1940,13
DA:1941,4
DA:1942,1
DA:1943,3
DA:1944,9
DA:1945,12
DA:1946,14
DA:1949,210
DA:1956,463
DA:1957,463
DA:1958,463
DA:1959,463
DA:1960,463
DA:1961,463
DA:1963,1171
DA:1964,1171
DA:1965,1171
DA:1967,889
DA:1968,889
DA:1969,889
DA:1973,0
DA:1974,0
DA:1975,0
DA:1978,463
DA:1979,463
DA:1980,463
DA:1981,463
DA:1982,463
DA:1983,463
DA:1984,0
DA:1985,0
DA:1986,463
DA:1987,463
DA:1988,111120
DA:1989,111120
DA:1990,0
DA:1991,111120
DA:1992,111120
DA:1993,111120
DA:1994,111120
DA:1995,111120
DA:1996,111120
DA:1997,0
DA:1998,111120
DA:1999,111120
DA:2000,111120
DA:2001,111120
DA:2002,111120
DA:2003,111120
DA:2004,111120
DA:2005,350491
DA:2006,111120
DA:2007,111120
DA:2008,463
DA:2009,463
DA:2010,463
DA:2013,7
DA:2014,7
DA:2015,7
DA:2016,0
DA:2017,7
DA:2019,56
DA:2020,56
DA:2021,56
DA:2022,56
DA:2023,0
DA:2024,56
DA:2026,0
DA:2028,56
DA:2029,56
DA:2030,56
DA:2031,56
DA:2032,56
DA:2033,56
DA:2034,56
DA:2035,56
DA:2036,56
DA:2037,56
DA:2038,56
DA:2039,56
DA:2040,56
DA:2041,56
DA:2042,56
DA:2043,56
DA:2044,56
DA:2045,56
DA:2046,7
DA:2049,12
DA:2050,12
DA:2051,12
DA:2052,10
DA:2053,10
DA:2054,2
DA:2055,2
DA:2056,12
DA:2057,12
DA:2060,500
DA:2061,500
DA:2062,500
DA:2063,500
DA:2065,439
DA:2066,439
DA:2067,1
DA:2068,1
DA:2069,1
DA:2070,1
DA:2071,1
DA:2072,1
DA:2073,1
DA:2074,1
DA:2075,1
DA:2076,1
DA:2077,1
DA:2078,1
DA:2079,1
DA:2080,1
DA:2081,1
DA:2082,1
DA:2083,1
DA:2084,1
DA:2085,1
DA:2086,1
DA:2087,1
DA:2088,1
DA:2089,1
DA:2090,1
DA:2091,1
DA:2092,1
DA:2093,435
DA:2095,439
DA:2098,439
DA:2099,439
DA:2100,404
DA:2101,8
DA:2102,1
DA:2103,1
DA:2104,1
DA:2105,1
DA:2106,1
DA:2107,1
DA:2108,1
DA:2109,1
DA:2110,1
DA:2111,1
DA:2112,1
DA:2113,1
DA:2114,1
DA:2115,1
DA:2116,1
DA:2117,1
DA:2118,1
DA:2119,1
DA:2120,1
DA:2121,1
DA:2122,1
DA:2123,1
DA:2124,1
DA:2125,1
DA:2126,1
DA:2127,1
DA:2128,1
DA:2129,1
DA:2130,1
DA:2131,1
DA:2132,1
DA:2133,1
DA:2134,1
DA:2135,1
DA:2136,1
DA:2137,1
DA:2138,1
DA:2139,5
DA:2140,5
DA:2141,5
DA:2142,5
DA:2143,5
DA:2144,5
DA:2145,5
DA:2146,5
DA:2147,5
DA:2148,5
DA:2149,5
DA:2150,5
DA:2151,5
DA:2152,5
DA:2153,5
DA:2154,5
DA:2155,5
DA:2156,5
DA:2157,5
DA:2158,5
DA:2159,5
DA:2160,5
DA:2161,5
DA:2162,5
DA:2163,5
DA:2164,5
DA:2165,5
DA:2166,5
DA:2167,5
DA:2168,5
DA:2169,5
DA:2170,5
DA:2171,5
DA:2172,5
DA:2173,5
DA:2174,5
DA:2175,5
DA:2176,5
DA:2177,5
DA:2178,5
DA:2179,5
DA:2180,5
DA:2181,5
DA:2182,5
DA:2183,5
DA:2184,5
DA:2185,5
DA:2186,5
DA:2187,5
DA:2188,5
DA:2189,5
DA:2190,5
DA:2191,5
DA:2192,5
DA:2193,5
DA:2194,5
DA:2195,5
DA:2196,5
DA:2197,5
DA:2198,5
DA:2199,5
DA:2200,5
DA:2201,5
DA:2202,5
DA:2203,5
DA:2204,5
DA:2205,5
DA:2206,5
DA:2207,5
DA:2208,5
DA:2209,5
DA:2210,5
DA:2211,5
DA:2212,5
DA:2213,3
DA:2214,3
DA:2215,3
DA:2216,3
DA:2217,3
DA:2218,3
DA:2219,3
DA:2220,3
DA:2221,3
DA:2222,3
DA:2223,3
DA:2224,3
DA:2225,3
DA:2226,3
DA:2227,3
DA:2228,3
DA:2229,3
DA:2230,3
DA:2231,3
DA:2232,3
DA:2233,3
DA:2234,3
DA:2235,3
DA:2236,3
DA:2237,3
DA:2238,3
DA:2239,3
DA:2240,3
DA:2241,3
DA:2242,3
DA:2243,3
DA:2244,3
DA:2245,3
DA:2246,3
DA:2247,3
DA:2248,3
DA:2249,3
DA:2250,3
DA:2251,3
DA:2252,3
DA:2253,3
DA:2254,3
DA:2255,3
DA:2256,3
DA:2257,3
DA:2258,3
DA:2259,1
DA:2260,1
DA:2261,1
DA:2262,1
DA:2263,1
DA:2264,1
DA:2265,1
DA:2266,1
DA:2267,1
DA:2268,1
DA:2269,1
DA:2270,1
DA:2271,1
DA:2272,1
DA:2273,1
DA:2274,1
DA:2275,1
DA:2276,1
DA:2277,1
DA:2278,1
DA:2279,1
DA:2280,1
DA:2281,1
DA:2282,1
DA:2283,1
DA:2284,1
DA:2285,1
DA:2286,1
DA:2287,1
DA:2288,1
DA:2289,1
DA:2290,1
DA:2291,1
DA:2292,1
DA:2293,1
DA:2294,1
DA:2295,1
DA:2296,1
DA:2297,1
DA:2298,1
DA:2299,1
DA:2300,1
DA:2301,1
DA:2302,1
DA:2303,1
DA:2304,1
DA:2305,0
DA:2306,0
DA:2307,0
DA:2308,0
DA:2309,0
DA:2310,0
DA:2311,0
DA:2312,0
DA:2313,0
DA:2314,0
DA:2315,0
DA:2316,0
DA:2317,0
DA:2318,0
DA:2319,0
DA:2320,0
DA:2321,0
DA:2322,0
DA:2323,0
DA:2324,0
DA:2325,0
DA:2326,0
DA:2327,0
DA:2328,0
DA:2329,0
DA:2330,0
DA:2331,0
DA:2332,0
DA:2333,0
DA:2334,0
DA:2335,0
DA:2336,0
DA:2337,0
DA:2338,0
DA:2339,0
DA:2340,0
DA:2341,0
DA:2342,0
DA:2343,0
DA:2344,0
DA:2345,0
DA:2346,0
DA:2347,0
DA:2348,0
DA:2349,0
DA:2350,0
DA:2351,0
DA:2352,0
DA:2353,0
DA:2354,0
DA:2355,0
DA:2356,0
DA:2357,4
DA:2358,4
DA:2359,4
DA:2360,4
DA:2361,4
DA:2362,4
DA:2363,4
DA:2364,4
DA:2365,4
DA:2366,4
DA:2367,4
DA:2368,4
DA:2369,4
DA:2370,4
DA:2371,4
DA:2372,4
DA:2373,4
DA:2374,4
DA:2375,4
DA:2376,4
DA:2377,4
DA:2378,4
DA:2379,4
DA:2380,4
DA:2381,4
DA:2382,4
DA:2383,4
DA:2384,4
DA:2385,4
DA:2386,4
DA:2387,4
DA:2388,4
DA:2389,4
DA:2390,4
DA:2391,4
DA:2392,4
DA:2393,4
DA:2394,4
DA:2395,4
DA:2396,4
DA:2397,4
DA:2398,4
DA:2399,4
DA:2400,4
DA:2401,4
DA:2402,4
DA:2403,4
DA:2404,4
DA:2405,4
DA:2406,4
DA:2407,4
DA:2408,4
DA:2409,5
DA:2411,439
DA:2413,232739
DA:2419,0
DA:2420,0
DA:2421,0
DA:2425,439
DA:2426,439
DA:2427,439
DA:2428,439
DA:2430,21
DA:2436,0
DA:2437,0
DA:2438,0
DA:2442,439
DA:2443,439
DA:2444,439
DA:2445,439
DA:2446,439
DA:2447,4
DA:2448,4
DA:2449,4
DA:2450,4
DA:2453,439
DA:2454,439
DA:2455,439
DA:2456,439
DA:2457,439
DA:2458,0
DA:2459,0
DA:2460,439
DA:2461,439
DA:2462,439
DA:2463,222134
DA:2464,222134
DA:2465,0
DA:2466,222134
DA:2467,222134
DA:2468,222134
DA:2469,222134
DA:2470,222134
DA:2471,222134
DA:2472,222134
DA:2473,222134
DA:2474,222134
DA:2475,222134
DA:2476,222134
DA:2477,222134
DA:2478,222134
DA:2479,222134
DA:2480,439
DA:2481,439
DA:2483,3
DA:2484,3
DA:2485,3
DA:2486,96
DA:2487,93
DA:2488,93
DA:2489,93
DA:2490,93
DA:2491,93
DA:2492,93
DA:2493,93
DA:2494,93
DA:2495,3
DA:2496,3
DA:2532,1
DA:2533,1
DA:2534,1
DA:2535,1
DA:2536,1
DA:2537,1
DA:2538,1
DA:2539,1
DA:2540,1
DA:2542,1
DA:2543,1
DA:2544,1
DA:2545,1
DA:2547,1
DA:2548,1
DA:2549,1
DA:2550,1
DA:2551,1
DA:2553,1
DA:2554,1
DA:2555,1
DA:2557,1
DA:2558,1
DA:2559,1
DA:2560,1
DA:2561,1
DA:2562,1
DA:2563,1
DA:2564,3
DA:2565,3
DA:2567,1
DA:2569,1
DA:2570,1
DA:2571,1
DA:2572,1
DA:2573,1
DA:2574,1
DA:2575,1
DA:2577,1
DA:2579,1
DA:2580,1
DA:2581,1
DA:2582,32
DA:2583,32
DA:2584,32
DA:2585,32
DA:2586,32
DA:2587,32
DA:2588,32
DA:2589,32
DA:2590,32
DA:2591,1
DA:2592,1
DA:2593,1
DA:2594,1
DA:2596,1
DA:2597,1
DA:2598,1
DA:2599,1
DA:2600,1
DA:2601,1
DA:2602,1
DA:2603,1
DA:2604,1
DA:2605,1
DA:2606,1
DA:2607,1
DA:2608,1
DA:2609,1
DA:2610,1
DA:2611,1
DA:2612,1
DA:2613,1
DA:2614,1
DA:2615,1
DA:2616,1
DA:2617,1
DA:2618,1
DA:2619,1
DA:2620,1
DA:2621,1
DA:2622,1
DA:2623,1
DA:2624,1
DA:2625,1
DA:2626,1
DA:2627,1
DA:2628,1
DA:2629,1
DA:2630,1
DA:2631,1
DA:2632,1
DA:2633,1
DA:2634,1
DA:2635,1
DA:2636,1
DA:2637,1
DA:2638,1
DA:2639,1
DA:2640,1
DA:2641,1
DA:2642,1
DA:2643,1
DA:2644,1
DA:2645,1
DA:2646,1
DA:2647,1
DA:2648,1
DA:2649,1
DA:2650,1
DA:2651,1
DA:2652,1
DA:2653,1
DA:2654,1
DA:2655,1
DA:2656,1
DA:2657,1
DA:2658,1
DA:2659,1
DA:2660,1
DA:2661,1
DA:2662,1
DA:2663,1
DA:2664,1
DA:2665,1
DA:2667,1
DA:2668,1
DA:2669,1
DA:2670,1
DA:2671,1
DA:2672,1
DA:2673,1
DA:2674,1
DA:2675,1
DA:2676,1
DA:2677,1
DA:2678,1
DA:2679,1
DA:2680,1
DA:2681,1
DA:2682,1
DA:2683,1
DA:2684,1
DA:2685,1
DA:2686,1
DA:2687,1
DA:2688,1
DA:2689,1
DA:2690,1
DA:2691,1
DA:2692,1
DA:2693,1
DA:2694,1
DA:2695,1
DA:2696,1
DA:2697,1
DA:2698,1
DA:2699,1
DA:2700,1
DA:2701,1
DA:2702,1
DA:2703,1
DA:2704,1
DA:2705,1
DA:2706,1
DA:2707,1
DA:2708,1
DA:2709,1
DA:2710,1
DA:2711,1
DA:2712,1
DA:2713,1
DA:2714,1
DA:2715,1
DA:2716,1
DA:2717,1
DA:2718,1
DA:2719,1
DA:2720,1
DA:2721,1
DA:2722,1
DA:2723,1
DA:2724,1
DA:2725,1
DA:2726,1
DA:2727,1
DA:2728,1
DA:2729,1
DA:2730,1
DA:2731,1
DA:2732,1
DA:2733,1
DA:2734,1
DA:2735,1
DA:2736,1
DA:2738,1
DA:2739,1
DA:2740,1
DA:2741,1
DA:2742,1
DA:2743,1
DA:2744,1
DA:2745,1
DA:2746,1
DA:2747,1
DA:2748,1
DA:2749,1
DA:2750,1
DA:2751,1
DA:2752,1
DA:2753,1
DA:2754,1
DA:2755,1
DA:2756,1
DA:2757,1
DA:2758,1
DA:2759,1
DA:2760,1
DA:2761,1
DA:2762,1
DA:2763,1
DA:2764,1
DA:2765,1
DA:2766,1
DA:2767,1
DA:2768,1
DA:2769,1
DA:2770,1
DA:2771,1
DA:2772,1
DA:2773,1
DA:2774,1
DA:2775,1
DA:2776,1
DA:2777,1
DA:2778,1
DA:2779,1
DA:2780,1
DA:2781,1
DA:2782,1
DA:2784,1
DA:2785,1
DA:2786,1
DA:2787,1
DA:2788,1
DA:2789,1
DA:2790,1
DA:2791,1
DA:2792,1
DA:2793,1
DA:2794,1
DA:2795,1
DA:2796,1
DA:2797,1
DA:2798,1
DA:2799,1
DA:2800,1
DA:2801,1
DA:2802,1
DA:2803,1
DA:2804,1
DA:2805,1
DA:2806,1
DA:2807,1
DA:2808,1
DA:2809,1
DA:2810,1
DA:2811,1
DA:2812,1
DA:2813,1
DA:2814,1
DA:2815,1
DA:2816,1
DA:2817,1
DA:2818,1
DA:2819,1
DA:2820,1
DA:2821,1
DA:2822,1
DA:2823,1
DA:2824,1
DA:2825,1
DA:2827,1
DA:2828,1
DA:2829,1
DA:2830,1
DA:2831,1
DA:2832,1
DA:2833,1
DA:2834,1
DA:2835,1
DA:2836,1
DA:2837,1
DA:2838,1
DA:2839,1
DA:2840,1
DA:2841,1
DA:2842,1
DA:2843,1
DA:2844,1
DA:2845,1
DA:2846,1
DA:2847,1
DA:2848,1
DA:2849,1
DA:2850,1
DA:2851,1
DA:2852,1
DA:2853,1
DA:2854,1
DA:2855,1
DA:2856,1
DA:2857,1
DA:2858,1
DA:2859,1
DA:2860,1
DA:2861,1
DA:2862,1
DA:2863,1
DA:2864,1
DA:2865,1
DA:2866,1
DA:2867,1
DA:2868,1
DA:2869,1
DA:2870,1
DA:2871,1
DA:2873,1
DA:2874,1
DA:2875,1
DA:2876,1
DA:2877,1
DA:2878,1
DA:2879,1
DA:2880,1
DA:2881,1
DA:2882,1
DA:2883,1
DA:2884,1
DA:2885,1
DA:2886,1
DA:2887,1
DA:2888,1
DA:2889,1
DA:2890,1
DA:2891,1
DA:2892,1
DA:2893,1
DA:2894,1
DA:2895,1
DA:2896,1
DA:2897,1
DA:2898,1
DA:2899,1
DA:2900,1
DA:2901,1
DA:2902,1
DA:2903,1
DA:2904,1
DA:2905,1
DA:2906,1
DA:2907,1
DA:2908,1
DA:2909,1
DA:2910,1
DA:2911,1
DA:2912,1
DA:2913,1
DA:2914,1
DA:2915,1
DA:2916,1
DA:2917,1
DA:2918,1
DA:2919,1
DA:2920,1
DA:2922,1
BRF:0
BRH:0
LF:1927
LH:1527
end_of_record
SF:C:\Users\nexts\opensource\hayabusa\src\detections\detection.rs
FN:1019,_RNvMs_NtNtCsh5cigu73tlT_8hayabusa10detections9detectionNtB4_9Detection20print_rule_load_info
FN:622,_RNCNvMs_NtNtCsh5cigu73tlT_8hayabusa10detections9detectionNtB6_9Detection14insert_messagesd_0Ba_
FN:420,_RNCNvMs_NtNtCsh5cigu73tlT_8hayabusa10detections9detectionNtB6_9Detection14insert_messages4_0Ba_
FN:116,_RNCNCNCNvMs_NtNtCsh5cigu73tlT_8hayabusa10detections9detectionNtBa_9Detection16parse_rule_files000Be_
FN:498,_RNCNvMs_NtNtCsh5cigu73tlT_8hayabusa10detections9detectionNtB6_9Detection14insert_messages5_0Ba_
FN:1027,_RNCNvMs_NtNtCsh5cigu73tlT_8hayabusa10detections9detectionNtB6_9Detection20print_rule_load_info0Ba_
FN:641,_RNCNvMs_NtNtCsh5cigu73tlT_8hayabusa10detections9detectionNtB6_9Detection14insert_messagese_0Ba_
FN:1078,_RNCNvMs_NtNtCsh5cigu73tlT_8hayabusa10detections9detectionNtB6_9Detection20print_rule_load_infos2_0Ba_
FN:1081,_RNCNvMs_NtNtCsh5cigu73tlT_8hayabusa10detections9detectionNtB6_9Detection20print_rule_load_infos4_0Ba_
FN:1077,_RNCNvMs_NtNtCsh5cigu73tlT_8hayabusa10detections9detectionNtB6_9Detection20print_rule_load_infos1_0Ba_
FN:935,_RNvMs_NtNtCsh5cigu73tlT_8hayabusa10detections9detectionNtB4_9Detection12get_tag_info
FN:943,_RNCNvMs_NtNtCsh5cigu73tlT_8hayabusa10detections9detectionNtB6_9Detection12get_tag_info0Ba_
FN:1080,_RNCNvMs_NtNtCsh5cigu73tlT_8hayabusa10detections9detectionNtB6_9Detection20print_rule_load_infos3_0Ba_
FN:141,_RNCNvMs_NtNtCsh5cigu73tlT_8hayabusa10detections9detectionNtB6_9Detection16parse_rule_filess_0Ba_
FN:1071,_RNCNvMs_NtNtCsh5cigu73tlT_8hayabusa10detections9detectionNtB6_9Detection20print_rule_load_infos0_0Ba_
FN:645,_RNCNvMs_NtNtCsh5cigu73tlT_8hayabusa10detections9detectionNtB6_9Detection14insert_messagesg_0Ba_
FN:650,_RNCNvMs_NtNtCsh5cigu73tlT_8hayabusa10detections9detectionNtB6_9Detection14insert_messagesh_0Ba_
FN:54,_RNvMNtNtCsh5cigu73tlT_8hayabusa10detections9detectionNtB2_14EvtxRecordInfo9get_value
FN:389,_RNCNvMs_NtNtCsh5cigu73tlT_8hayabusa10detections9detectionNtB6_9Detection14insert_messages1_0Ba_
FN:395,_RNCNvMs_NtNtCsh5cigu73tlT_8hayabusa10detections9detectionNtB6_9Detection14insert_messages2_0Ba_
FN:380,_RNCNvMs_NtNtCsh5cigu73tlT_8hayabusa10detections9detectionNtB6_9Detection14insert_messages0_0Ba_
FN:601,_RNCNvMs_NtNtCsh5cigu73tlT_8hayabusa10detections9detectionNtB6_9Detection14insert_messagesc_0Ba_
FN:644,_RNCNvMs_NtNtCsh5cigu73tlT_8hayabusa10detections9detectionNtB6_9Detection14insert_messagesf_0Ba_
FN:1112,_RNCNvMs_NtNtCsh5cigu73tlT_8hayabusa10detections9detectionNtB6_9Detection20print_rule_load_infos5_0Ba_
FN:1030,_RNCNvMs_NtNtCsh5cigu73tlT_8hayabusa10detections9detectionNtB6_9Detection20print_rule_load_infos_0Ba_
FN:236,_RNvMs_NtNtCsh5cigu73tlT_8hayabusa10detections9detectionNtB4_9Detection14insert_message
FN:1113,_RNCNvMs_NtNtCsh5cigu73tlT_8hayabusa10detections9detectionNtB6_9Detection20print_rule_load_infos6_0Ba_
FN:74,_RNvMs_NtNtCsh5cigu73tlT_8hayabusa10detections9detectionNtB4_9Detection16parse_rule_files
FN:126,_RNCNCNCNvMs_NtNtCsh5cigu73tlT_8hayabusa10detections9detectionNtBa_9Detection16parse_rule_files00s_0Be_
FN:548,_RNCNvMs_NtNtCsh5cigu73tlT_8hayabusa10detections9detectionNtB6_9Detection14insert_messages7_0Ba_
FN:1144,_RNvMs_NtNtCsh5cigu73tlT_8hayabusa10detections9detectionNtB4_9Detection14get_alias_data
FN:528,_RNCNvMs_NtNtCsh5cigu73tlT_8hayabusa10detections9detectionNtB6_9Detection14insert_messages6_0Ba_
FN:955,_RNCNvMs_NtNtCsh5cigu73tlT_8hayabusa10detections9detectionNtB6_9Detection12get_tag_infos_0Ba_
FN:566,_RNCNvMs_NtNtCsh5cigu73tlT_8hayabusa10detections9detectionNtB6_9Detection14insert_messages8_0Ba_
FN:966,_RNvMs_NtNtCsh5cigu73tlT_8hayabusa10detections9detectionNtB4_9Detection19create_count_output
FN:243,_RNCNvMs_NtNtCsh5cigu73tlT_8hayabusa10detections9detectionNtB6_9Detection14insert_message0Ba_
FN:111,_RNCNCNvMs_NtNtCsh5cigu73tlT_8hayabusa10detections9detectionNtB8_9Detection16parse_rule_files00Bc_
FN:263,_RNCNvMs_NtNtCsh5cigu73tlT_8hayabusa10detections9detectionNtB6_9Detection14insert_messages_0Ba_
FN:104,_RNCNvMs_NtNtCsh5cigu73tlT_8hayabusa10detections9detectionNtB6_9Detection16parse_rule_files0Ba_
FN:405,_RNCNvMs_NtNtCsh5cigu73tlT_8hayabusa10detections9detectionNtB6_9Detection14insert_messages3_0Ba_
FN:570,_RNCNvMs_NtNtCsh5cigu73tlT_8hayabusa10detections9detectionNtB6_9Detection14insert_messagesa_0Ba_
FN:575,_RNCNvMs_NtNtCsh5cigu73tlT_8hayabusa10detections9detectionNtB6_9Detection14insert_messagesb_0Ba_
FN:569,_RNCNvMs_NtNtCsh5cigu73tlT_8hayabusa10detections9detectionNtB6_9Detection14insert_messages9_0Ba_
FN:1861,_RNCNvNtNtNtCsh5cigu73tlT_8hayabusa10detections9detection5tests40test_insert_message_multiline_ruleauthor0B9_
FN:1995,_RNCNvNtNtNtCsh5cigu73tlT_8hayabusa10detections9detection5testss_40test_insert_message_multiline_ruleauthor0B9_
FN:1454,_RNvNtNtNtCsh5cigu73tlT_8hayabusa10detections9detection5testss_30test_insert_message_with_geoip
FN:1308,_RNvNtNtNtCsh5cigu73tlT_8hayabusa10detections9detection5testss_42test_output_aggregation_output_no_filed_by
FN:1198,_RNvNtNtNtCsh5cigu73tlT_8hayabusa10detections9detection5tests26create_dummy_stored_static
FN:1393,_RNCNvNtNtNtCsh5cigu73tlT_8hayabusa10detections9detection5tests44test_output_aggregation_output_with_field_by0B9_
FN:1265,_RNvNtNtNtCsh5cigu73tlT_8hayabusa10detections9detection5testss_21test_parse_rule_files
FN:1587,_RNCNvNtNtNtCsh5cigu73tlT_8hayabusa10detections9detection5tests39test_filtered_insert_message_with_geoip0B9_
FN:1453,_RNCNvNtNtNtCsh5cigu73tlT_8hayabusa10detections9detection5tests30test_insert_message_with_geoip0B9_
FN:1280,_RNvNtNtNtCsh5cigu73tlT_8hayabusa10detections9detection5testss_42test_output_aggregation_output_with_output
FN:1422,_RNCNvNtNtNtCsh5cigu73tlT_8hayabusa10detections9detection5tests38test_output_aggregation_output_with_by0B9_
FN:1423,_RNvNtNtNtCsh5cigu73tlT_8hayabusa10detections9detection5testss_38test_output_aggregation_output_with_by
FN:1364,_RNvNtNtNtCsh5cigu73tlT_8hayabusa10detections9detection5testss_41test_output_aggregation_output_with_field
FN:1279,_RNCNvNtNtNtCsh5cigu73tlT_8hayabusa10detections9detection5tests42test_output_aggregation_output_with_output0B9_
FN:1394,_RNvNtNtNtCsh5cigu73tlT_8hayabusa10detections9detection5testss_44test_output_aggregation_output_with_field_by
FN:1363,_RNCNvNtNtNtCsh5cigu73tlT_8hayabusa10detections9detection5tests41test_output_aggregation_output_with_field0B9_
FN:1334,_RNCNvNtNtNtCsh5cigu73tlT_8hayabusa10detections9detection5tests45test_output_aggregation_output_with_timeframe0B9_
FN:1862,_RNvNtNtNtCsh5cigu73tlT_8hayabusa10detections9detection5testss_40test_insert_message_multiline_ruleauthor
FN:1307,_RNCNvNtNtNtCsh5cigu73tlT_8hayabusa10detections9detection5tests42test_output_aggregation_output_no_filed_by0B9_
FN:1588,_RNvNtNtNtCsh5cigu73tlT_8hayabusa10detections9detection5testss_39test_filtered_insert_message_with_geoip
FN:1719,_RNvNtNtNtCsh5cigu73tlT_8hayabusa10detections9detection5testss_36test_insert_message_extra_field_info
FN:1264,_RNCNvNtNtNtCsh5cigu73tlT_8hayabusa10detections9detection5tests21test_parse_rule_files0B9_
FN:1718,_RNCNvNtNtNtCsh5cigu73tlT_8hayabusa10detections9detection5tests36test_insert_message_extra_field_info0B9_
FN:1335,_RNvNtNtNtCsh5cigu73tlT_8hayabusa10detections9detection5testss_45test_output_aggregation_output_with_timeframe
FN:167,_RNCNCNvMs_NtNtCsh5cigu73tlT_8hayabusa10detections9detectionNtB8_9Detection13execute_rules00Bc_
FN:205,_RNvMs_NtNtCsh5cigu73tlT_8hayabusa10detections9detectionNtB4_9Detection12execute_rule
FN:803,_RNCNvMs_NtNtCsh5cigu73tlT_8hayabusa10detections9detectionNtB6_9Detection18insert_agg_messages0_0Ba_
FN:69,_RNvMs_NtNtCsh5cigu73tlT_8hayabusa10detections9detectionNtB4_9Detection5start
FN:65,_RNvMs_NtNtCsh5cigu73tlT_8hayabusa10detections9detectionNtB4_9Detection3new
FN:790,_RNCNvMs_NtNtCsh5cigu73tlT_8hayabusa10detections9detectionNtB6_9Detection18insert_agg_message0Ba_
FN:813,_RNCNvMs_NtNtCsh5cigu73tlT_8hayabusa10detections9detectionNtB6_9Detection18insert_agg_messages1_0Ba_
FN:161,_RNvMs_NtNtCsh5cigu73tlT_8hayabusa10detections9detectionNtB4_9Detection13execute_rules
FN:161,_RNCNvMs_NtNtCsh5cigu73tlT_8hayabusa10detections9detectionNtB6_9Detection13execute_rules0Ba_
FN:188,_RNvMs_NtNtCsh5cigu73tlT_8hayabusa10detections9detectionNtB4_9Detection22add_aggcondition_msges
FN:44,_RNvXs0_NtNtCsh5cigu73tlT_8hayabusa10detections9detectionNtB5_14EvtxRecordInfoNtNtCsjwgglklCTGv_4core5clone5Clone5cloneB9_
FN:59,_RNvXs2_NtNtCsh5cigu73tlT_8hayabusa10detections9detectionNtB5_9DetectionNtNtCsjwgglklCTGv_4core3fmt5Debug3fmt
FN:192,_RNvMs_NtNtCsh5cigu73tlT_8hayabusa10detections9detectionNtB4_9Detection20add_aggcondition_msg
FN:716,_RNvMs_NtNtCsh5cigu73tlT_8hayabusa10detections9detectionNtB4_9Detection18insert_agg_message
FN:193,_RNCNvMs_NtNtCsh5cigu73tlT_8hayabusa10detections9detectionNtB6_9Detection20add_aggcondition_msg0Ba_
FN:828,_RNCNvMs_NtNtCsh5cigu73tlT_8hayabusa10detections9detectionNtB6_9Detection18insert_agg_messages2_0Ba_
FN:169,_RNCNCNCNvMs_NtNtCsh5cigu73tlT_8hayabusa10detections9detectionNtBa_9Detection13execute_rules000Be_
FN:797,_RNCNvMs_NtNtCsh5cigu73tlT_8hayabusa10detections9detectionNtB6_9Detection18insert_agg_messages_0Ba_
FN:44,_RNvXs1_NtNtCsh5cigu73tlT_8hayabusa10detections9detectionNtB5_14EvtxRecordInfoNtNtCsjwgglklCTGv_4core3fmt5Debug3fmt
FN:380,_RNCNvMs_NtNtCsk6AfKij8NQT_8hayabusa10detections9detectionNtB6_9Detection14insert_messages0_0Ba_
FN:59,_RNvXs2_NtNtCsk6AfKij8NQT_8hayabusa10detections9detectionNtB5_9DetectionNtNtCsjwgglklCTGv_4core3fmt5Debug3fmt
FN:405,_RNCNvMs_NtNtCsk6AfKij8NQT_8hayabusa10detections9detectionNtB6_9Detection14insert_messages3_0Ba_
FN:54,_RNvMNtNtCsk6AfKij8NQT_8hayabusa10detections9detectionNtB2_14EvtxRecordInfo9get_value
FN:935,_RNvMs_NtNtCsk6AfKij8NQT_8hayabusa10detections9detectionNtB4_9Detection12get_tag_info
FN:193,_RNCNvMs_NtNtCsk6AfKij8NQT_8hayabusa10detections9detectionNtB6_9Detection20add_aggcondition_msg0Ba_
FN:420,_RNCNvMs_NtNtCsk6AfKij8NQT_8hayabusa10detections9detectionNtB6_9Detection14insert_messages4_0Ba_
FN:828,_RNCNvMs_NtNtCsk6AfKij8NQT_8hayabusa10detections9detectionNtB6_9Detection18insert_agg_messages2_0Ba_
FN:645,_RNCNvMs_NtNtCsk6AfKij8NQT_8hayabusa10detections9detectionNtB6_9Detection14insert_messagesg_0Ba_
FN:1027,_RNCNvMs_NtNtCsk6AfKij8NQT_8hayabusa10detections9detectionNtB6_9Detection20print_rule_load_info0Ba_
FN:104,_RNCNvMs_NtNtCsk6AfKij8NQT_8hayabusa10detections9detectionNtB6_9Detection16parse_rule_files0Ba_
FN:192,_RNvMs_NtNtCsk6AfKij8NQT_8hayabusa10detections9detectionNtB4_9Detection20add_aggcondition_msg
FN:188,_RNvMs_NtNtCsk6AfKij8NQT_8hayabusa10detections9detectionNtB4_9Detection22add_aggcondition_msges
FN:528,_RNCNvMs_NtNtCsk6AfKij8NQT_8hayabusa10detections9detectionNtB6_9Detection14insert_messages6_0Ba_
FN:1080,_RNCNvMs_NtNtCsk6AfKij8NQT_8hayabusa10detections9detectionNtB6_9Detection20print_rule_load_infos3_0Ba_
FN:395,_RNCNvMs_NtNtCsk6AfKij8NQT_8hayabusa10detections9detectionNtB6_9Detection14insert_messages2_0Ba_
FN:790,_RNCNvMs_NtNtCsk6AfKij8NQT_8hayabusa10detections9detectionNtB6_9Detection18insert_agg_message0Ba_
FN:169,_RNCNCNCNvMs_NtNtCsk6AfKij8NQT_8hayabusa10detections9detectionNtBa_9Detection13execute_rules000Be_
FN:641,_RNCNvMs_NtNtCsk6AfKij8NQT_8hayabusa10detections9detectionNtB6_9Detection14insert_messagese_0Ba_
FN:1081,_RNCNvMs_NtNtCsk6AfKij8NQT_8hayabusa10detections9detectionNtB6_9Detection20print_rule_load_infos4_0Ba_
FN:601,_RNCNvMs_NtNtCsk6AfKij8NQT_8hayabusa10detections9detectionNtB6_9Detection14insert_messagesc_0Ba_
FN:548,_RNCNvMs_NtNtCsk6AfKij8NQT_8hayabusa10detections9detectionNtB6_9Detection14insert_messages7_0Ba_
FN:570,_RNCNvMs_NtNtCsk6AfKij8NQT_8hayabusa10detections9detectionNtB6_9Detection14insert_messagesa_0Ba_
FN:566,_RNCNvMs_NtNtCsk6AfKij8NQT_8hayabusa10detections9detectionNtB6_9Detection14insert_messages8_0Ba_
FN:813,_RNCNvMs_NtNtCsk6AfKij8NQT_8hayabusa10detections9detectionNtB6_9Detection18insert_agg_messages1_0Ba_
FN:622,_RNCNvMs_NtNtCsk6AfKij8NQT_8hayabusa10detections9detectionNtB6_9Detection14insert_messagesd_0Ba_
FN:74,_RNvMs_NtNtCsk6AfKij8NQT_8hayabusa10detections9detectionNtB4_9Detection16parse_rule_files
FN:797,_RNCNvMs_NtNtCsk6AfKij8NQT_8hayabusa10detections9detectionNtB6_9Detection18insert_agg_messages_0Ba_
FN:1019,_RNvMs_NtNtCsk6AfKij8NQT_8hayabusa10detections9detectionNtB4_9Detection20print_rule_load_info
FN:69,_RNvMs_NtNtCsk6AfKij8NQT_8hayabusa10detections9detectionNtB4_9Detection5start
FN:389,_RNCNvMs_NtNtCsk6AfKij8NQT_8hayabusa10detections9detectionNtB6_9Detection14insert_messages1_0Ba_
FN:1144,_RNvMs_NtNtCsk6AfKij8NQT_8hayabusa10detections9detectionNtB4_9Detection14get_alias_data
FN:716,_RNvMs_NtNtCsk6AfKij8NQT_8hayabusa10detections9detectionNtB4_9Detection18insert_agg_message
FN:263,_RNCNvMs_NtNtCsk6AfKij8NQT_8hayabusa10detections9detectionNtB6_9Detection14insert_messages_0Ba_
FN:1113,_RNCNvMs_NtNtCsk6AfKij8NQT_8hayabusa10detections9detectionNtB6_9Detection20print_rule_load_infos6_0Ba_
FN:111,_RNCNCNvMs_NtNtCsk6AfKij8NQT_8hayabusa10detections9detectionNtB8_9Detection16parse_rule_files00Bc_
FN:167,_RNCNCNvMs_NtNtCsk6AfKij8NQT_8hayabusa10detections9detectionNtB8_9Detection13execute_rules00Bc_
FN:955,_RNCNvMs_NtNtCsk6AfKij8NQT_8hayabusa10detections9detectionNtB6_9Detection12get_tag_infos_0Ba_
FN:116,_RNCNCNCNvMs_NtNtCsk6AfKij8NQT_8hayabusa10detections9detectionNtBa_9Detection16parse_rule_files000Be_
FN:569,_RNCNvMs_NtNtCsk6AfKij8NQT_8hayabusa10detections9detectionNtB6_9Detection14insert_messages9_0Ba_
FN:1071,_RNCNvMs_NtNtCsk6AfKij8NQT_8hayabusa10detections9detectionNtB6_9Detection20print_rule_load_infos0_0Ba_
FN:236,_RNvMs_NtNtCsk6AfKij8NQT_8hayabusa10detections9detectionNtB4_9Detection14insert_message
FN:966,_RNvMs_NtNtCsk6AfKij8NQT_8hayabusa10detections9detectionNtB4_9Detection19create_count_output
FN:44,_RNvXs1_NtNtCsk6AfKij8NQT_8hayabusa10detections9detectionNtB5_14EvtxRecordInfoNtNtCsjwgglklCTGv_4core3fmt5Debug3fmt
FN:161,_RNCNvMs_NtNtCsk6AfKij8NQT_8hayabusa10detections9detectionNtB6_9Detection13execute_rules0Ba_
FN:205,_RNvMs_NtNtCsk6AfKij8NQT_8hayabusa10detections9detectionNtB4_9Detection12execute_rule
FN:575,_RNCNvMs_NtNtCsk6AfKij8NQT_8hayabusa10detections9detectionNtB6_9Detection14insert_messagesb_0Ba_
FN:1112,_RNCNvMs_NtNtCsk6AfKij8NQT_8hayabusa10detections9detectionNtB6_9Detection20print_rule_load_infos5_0Ba_
FN:1077,_RNCNvMs_NtNtCsk6AfKij8NQT_8hayabusa10detections9detectionNtB6_9Detection20print_rule_load_infos1_0Ba_
FN:644,_RNCNvMs_NtNtCsk6AfKij8NQT_8hayabusa10detections9detectionNtB6_9Detection14insert_messagesf_0Ba_
FN:1078,_RNCNvMs_NtNtCsk6AfKij8NQT_8hayabusa10detections9detectionNtB6_9Detection20print_rule_load_infos2_0Ba_
FN:943,_RNCNvMs_NtNtCsk6AfKij8NQT_8hayabusa10detections9detectionNtB6_9Detection12get_tag_info0Ba_
FN:65,_RNvMs_NtNtCsk6AfKij8NQT_8hayabusa10detections9detectionNtB4_9Detection3new
FN:141,_RNCNvMs_NtNtCsk6AfKij8NQT_8hayabusa10detections9detectionNtB6_9Detection16parse_rule_filess_0Ba_
FN:243,_RNCNvMs_NtNtCsk6AfKij8NQT_8hayabusa10detections9detectionNtB6_9Detection14insert_message0Ba_
FN:803,_RNCNvMs_NtNtCsk6AfKij8NQT_8hayabusa10detections9detectionNtB6_9Detection18insert_agg_messages0_0Ba_
FN:161,_RNvMs_NtNtCsk6AfKij8NQT_8hayabusa10detections9detectionNtB4_9Detection13execute_rules
FN:126,_RNCNCNCNvMs_NtNtCsk6AfKij8NQT_8hayabusa10detections9detectionNtBa_9Detection16parse_rule_files00s_0Be_
FN:498,_RNCNvMs_NtNtCsk6AfKij8NQT_8hayabusa10detections9detectionNtB6_9Detection14insert_messages5_0Ba_
FN:650,_RNCNvMs_NtNtCsk6AfKij8NQT_8hayabusa10detections9detectionNtB6_9Detection14insert_messagesh_0Ba_
FN:1030,_RNCNvMs_NtNtCsk6AfKij8NQT_8hayabusa10detections9detectionNtB6_9Detection20print_rule_load_infos_0Ba_
FN:44,_RNvXs0_NtNtCsk6AfKij8NQT_8hayabusa10detections9detectionNtB5_14EvtxRecordInfoNtNtCsjwgglklCTGv_4core5clone5Clone5cloneB9_
FNDA:1,_RNvMs_NtNtCsh5cigu73tlT_8hayabusa10detections9detectionNtB4_9Detection20print_rule_load_info
FNDA:6,_RNCNvMs_NtNtCsh5cigu73tlT_8hayabusa10detections9detectionNtB6_9Detection14insert_messagesd_0Ba_
FNDA:4,_RNCNvMs_NtNtCsh5cigu73tlT_8hayabusa10detections9detectionNtB6_9Detection14insert_messages4_0Ba_
FNDA:0,_RNCNCNCNvMs_NtNtCsh5cigu73tlT_8hayabusa10detections9detectionNtBa_9Detection16parse_rule_files000Be_
FNDA:0,_RNCNvMs_NtNtCsh5cigu73tlT_8hayabusa10detections9detectionNtB6_9Detection14insert_messages5_0Ba_
FNDA:1,_RNCNvMs_NtNtCsh5cigu73tlT_8hayabusa10detections9detectionNtB6_9Detection20print_rule_load_info0Ba_
FNDA:3,_RNCNvMs_NtNtCsh5cigu73tlT_8hayabusa10detections9detectionNtB6_9Detection14insert_messagese_0Ba_
FNDA:1,_RNCNvMs_NtNtCsh5cigu73tlT_8hayabusa10detections9detectionNtB6_9Detection20print_rule_load_infos2_0Ba_
FNDA:3,_RNCNvMs_NtNtCsh5cigu73tlT_8hayabusa10detections9detectionNtB6_9Detection20print_rule_load_infos4_0Ba_
FNDA:3,_RNCNvMs_NtNtCsh5cigu73tlT_8hayabusa10detections9detectionNtB6_9Detection20print_rule_load_infos1_0Ba_
FNDA:4,_RNvMs_NtNtCsh5cigu73tlT_8hayabusa10detections9detectionNtB4_9Detection12get_tag_info
FNDA:0,_RNCNvMs_NtNtCsh5cigu73tlT_8hayabusa10detections9detectionNtB6_9Detection12get_tag_info0Ba_
FNDA:3,_RNCNvMs_NtNtCsh5cigu73tlT_8hayabusa10detections9detectionNtB6_9Detection20print_rule_load_infos3_0Ba_
FNDA:5,_RNCNvMs_NtNtCsh5cigu73tlT_8hayabusa10detections9detectionNtB6_9Detection16parse_rule_filess_0Ba_
FNDA:4,_RNCNvMs_NtNtCsh5cigu73tlT_8hayabusa10detections9detectionNtB6_9Detection20print_rule_load_infos0_0Ba_
FNDA:1,_RNCNvMs_NtNtCsh5cigu73tlT_8hayabusa10detections9detectionNtB6_9Detection14insert_messagesg_0Ba_
FNDA:1,_RNCNvMs_NtNtCsh5cigu73tlT_8hayabusa10detections9detectionNtB6_9Detection14insert_messagesh_0Ba_
FNDA:393,_RNvMNtNtCsh5cigu73tlT_8hayabusa10detections9detectionNtB2_14EvtxRecordInfo9get_value
FNDA:0,_RNCNvMs_NtNtCsh5cigu73tlT_8hayabusa10detections9detectionNtB6_9Detection14insert_messages1_0Ba_
FNDA:0,_RNCNvMs_NtNtCsh5cigu73tlT_8hayabusa10detections9detectionNtB6_9Detection14insert_messages2_0Ba_
FNDA:0,_RNCNvMs_NtNtCsh5cigu73tlT_8hayabusa10detections9detectionNtB6_9Detection14insert_messages0_0Ba_
FNDA:15,_RNCNvMs_NtNtCsh5cigu73tlT_8hayabusa10detections9detectionNtB6_9Detection14insert_messagesc_0Ba_
FNDA:1,_RNCNvMs_NtNtCsh5cigu73tlT_8hayabusa10detections9detectionNtB6_9Detection14insert_messagesf_0Ba_
FNDA:0,_RNCNvMs_NtNtCsh5cigu73tlT_8hayabusa10detections9detectionNtB6_9Detection20print_rule_load_infos5_0Ba_
FNDA:2,_RNCNvMs_NtNtCsh5cigu73tlT_8hayabusa10detections9detectionNtB6_9Detection20print_rule_load_infos_0Ba_
FNDA:4,_RNvMs_NtNtCsh5cigu73tlT_8hayabusa10detections9detectionNtB4_9Detection14insert_message
FNDA:1,_RNCNvMs_NtNtCsh5cigu73tlT_8hayabusa10detections9detectionNtB6_9Detection20print_rule_load_infos6_0Ba_
FNDA:1,_RNvMs_NtNtCsh5cigu73tlT_8hayabusa10detections9detectionNtB4_9Detection16parse_rule_files
FNDA:0,_RNCNCNCNvMs_NtNtCsh5cigu73tlT_8hayabusa10detections9detectionNtBa_9Detection16parse_rule_files00s_0Be_
FNDA:2,_RNCNvMs_NtNtCsh5cigu73tlT_8hayabusa10detections9detectionNtB6_9Detection14insert_messages7_0Ba_
FNDA:2,_RNvMs_NtNtCsh5cigu73tlT_8hayabusa10detections9detectionNtB4_9Detection14get_alias_data
FNDA:15,_RNCNvMs_NtNtCsh5cigu73tlT_8hayabusa10detections9detectionNtB6_9Detection14insert_messages6_0Ba_
FNDA:0,_RNCNvMs_NtNtCsh5cigu73tlT_8hayabusa10detections9detectionNtB6_9Detection12get_tag_infos_0Ba_
FNDA:3,_RNCNvMs_NtNtCsh5cigu73tlT_8hayabusa10detections9detectionNtB6_9Detection14insert_messages8_0Ba_
FNDA:6,_RNvMs_NtNtCsh5cigu73tlT_8hayabusa10detections9detectionNtB4_9Detection19create_count_output
FNDA:24,_RNCNvMs_NtNtCsh5cigu73tlT_8hayabusa10detections9detectionNtB6_9Detection14insert_message0Ba_
FNDA:0,_RNCNCNvMs_NtNtCsh5cigu73tlT_8hayabusa10detections9detectionNtB8_9Detection16parse_rule_files00Bc_
FNDA:0,_RNCNvMs_NtNtCsh5cigu73tlT_8hayabusa10detections9detectionNtB6_9Detection14insert_messages_0Ba_
FNDA:5,_RNCNvMs_NtNtCsh5cigu73tlT_8hayabusa10detections9detectionNtB6_9Detection16parse_rule_files0Ba_
FNDA:0,_RNCNvMs_NtNtCsh5cigu73tlT_8hayabusa10detections9detectionNtB6_9Detection14insert_messages3_0Ba_
FNDA:1,_RNCNvMs_NtNtCsh5cigu73tlT_8hayabusa10detections9detectionNtB6_9Detection14insert_messagesa_0Ba_
FNDA:1,_RNCNvMs_NtNtCsh5cigu73tlT_8hayabusa10detections9detectionNtB6_9Detection14insert_messagesb_0Ba_
FNDA:1,_RNCNvMs_NtNtCsh5cigu73tlT_8hayabusa10detections9detectionNtB6_9Detection14insert_messages9_0Ba_
FNDA:1,_RNCNvNtNtNtCsh5cigu73tlT_8hayabusa10detections9detection5tests40test_insert_message_multiline_ruleauthor0B9_
FNDA:16,_RNCNvNtNtNtCsh5cigu73tlT_8hayabusa10detections9detection5testss_40test_insert_message_multiline_ruleauthor0B9_
FNDA:1,_RNvNtNtNtCsh5cigu73tlT_8hayabusa10detections9detection5testss_30test_insert_message_with_geoip
FNDA:1,_RNvNtNtNtCsh5cigu73tlT_8hayabusa10detections9detection5testss_42test_output_aggregation_output_no_filed_by
FNDA:9,_RNvNtNtNtCsh5cigu73tlT_8hayabusa10detections9detection5tests26create_dummy_stored_static
FNDA:1,_RNCNvNtNtNtCsh5cigu73tlT_8hayabusa10detections9detection5tests44test_output_aggregation_output_with_field_by0B9_
FNDA:1,_RNvNtNtNtCsh5cigu73tlT_8hayabusa10detections9detection5testss_21test_parse_rule_files
FNDA:1,_RNCNvNtNtNtCsh5cigu73tlT_8hayabusa10detections9detection5tests39test_filtered_insert_message_with_geoip0B9_
FNDA:1,_RNCNvNtNtNtCsh5cigu73tlT_8hayabusa10detections9detection5tests30test_insert_message_with_geoip0B9_
FNDA:1,_RNvNtNtNtCsh5cigu73tlT_8hayabusa10detections9detection5testss_42test_output_aggregation_output_with_output
FNDA:1,_RNCNvNtNtNtCsh5cigu73tlT_8hayabusa10detections9detection5tests38test_output_aggregation_output_with_by0B9_
FNDA:1,_RNvNtNtNtCsh5cigu73tlT_8hayabusa10detections9detection5testss_38test_output_aggregation_output_with_by
FNDA:1,_RNvNtNtNtCsh5cigu73tlT_8hayabusa10detections9detection5testss_41test_output_aggregation_output_with_field
FNDA:1,_RNCNvNtNtNtCsh5cigu73tlT_8hayabusa10detections9detection5tests42test_output_aggregation_output_with_output0B9_
FNDA:1,_RNvNtNtNtCsh5cigu73tlT_8hayabusa10detections9detection5testss_44test_output_aggregation_output_with_field_by
FNDA:1,_RNCNvNtNtNtCsh5cigu73tlT_8hayabusa10detections9detection5tests41test_output_aggregation_output_with_field0B9_
FNDA:1,_RNCNvNtNtNtCsh5cigu73tlT_8hayabusa10detections9detection5tests45test_output_aggregation_output_with_timeframe0B9_
FNDA:1,_RNvNtNtNtCsh5cigu73tlT_8hayabusa10detections9detection5testss_40test_insert_message_multiline_ruleauthor
FNDA:1,_RNCNvNtNtNtCsh5cigu73tlT_8hayabusa10detections9detection5tests42test_output_aggregation_output_no_filed_by0B9_
FNDA:1,_RNvNtNtNtCsh5cigu73tlT_8hayabusa10detections9detection5testss_39test_filtered_insert_message_with_geoip
FNDA:1,_RNvNtNtNtCsh5cigu73tlT_8hayabusa10detections9detection5testss_36test_insert_message_extra_field_info
FNDA:1,_RNCNvNtNtNtCsh5cigu73tlT_8hayabusa10detections9detection5tests21test_parse_rule_files0B9_
FNDA:1,_RNCNvNtNtNtCsh5cigu73tlT_8hayabusa10detections9detection5tests36test_insert_message_extra_field_info0B9_
FNDA:1,_RNvNtNtNtCsh5cigu73tlT_8hayabusa10detections9detection5testss_45test_output_aggregation_output_with_timeframe
FNDA:0,_RNCNCNvMs_NtNtCsh5cigu73tlT_8hayabusa10detections9detectionNtB8_9Detection13execute_rules00Bc_
FNDA:0,_RNvMs_NtNtCsh5cigu73tlT_8hayabusa10detections9detectionNtB4_9Detection12execute_rule
FNDA:0,_RNCNvMs_NtNtCsh5cigu73tlT_8hayabusa10detections9detectionNtB6_9Detection18insert_agg_messages0_0Ba_
FNDA:0,_RNvMs_NtNtCsh5cigu73tlT_8hayabusa10detections9detectionNtB4_9Detection5start
FNDA:0,_RNvMs_NtNtCsh5cigu73tlT_8hayabusa10detections9detectionNtB4_9Detection3new
FNDA:0,_RNCNvMs_NtNtCsh5cigu73tlT_8hayabusa10detections9detectionNtB6_9Detection18insert_agg_message0Ba_
FNDA:0,_RNCNvMs_NtNtCsh5cigu73tlT_8hayabusa10detections9detectionNtB6_9Detection18insert_agg_messages1_0Ba_
FNDA:0,_RNvMs_NtNtCsh5cigu73tlT_8hayabusa10detections9detectionNtB4_9Detection13execute_rules
FNDA:0,_RNCNvMs_NtNtCsh5cigu73tlT_8hayabusa10detections9detectionNtB6_9Detection13execute_rules0Ba_
FNDA:0,_RNvMs_NtNtCsh5cigu73tlT_8hayabusa10detections9detectionNtB4_9Detection22add_aggcondition_msges
FNDA:0,_RNvXs0_NtNtCsh5cigu73tlT_8hayabusa10detections9detectionNtB5_14EvtxRecordInfoNtNtCsjwgglklCTGv_4core5clone5Clone5cloneB9_
FNDA:0,_RNvXs2_NtNtCsh5cigu73tlT_8hayabusa10detections9detectionNtB5_9DetectionNtNtCsjwgglklCTGv_4core3fmt5Debug3fmt
FNDA:0,_RNvMs_NtNtCsh5cigu73tlT_8hayabusa10detections9detectionNtB4_9Detection20add_aggcondition_msg
FNDA:0,_RNvMs_NtNtCsh5cigu73tlT_8hayabusa10detections9detectionNtB4_9Detection18insert_agg_message
FNDA:0,_RNCNvMs_NtNtCsh5cigu73tlT_8hayabusa10detections9detectionNtB6_9Detection20add_aggcondition_msg0Ba_
FNDA:0,_RNCNvMs_NtNtCsh5cigu73tlT_8hayabusa10detections9detectionNtB6_9Detection18insert_agg_messages2_0Ba_
FNDA:0,_RNCNCNCNvMs_NtNtCsh5cigu73tlT_8hayabusa10detections9detectionNtBa_9Detection13execute_rules000Be_
FNDA:0,_RNCNvMs_NtNtCsh5cigu73tlT_8hayabusa10detections9detectionNtB6_9Detection18insert_agg_messages_0Ba_
FNDA:0,_RNvXs1_NtNtCsh5cigu73tlT_8hayabusa10detections9detectionNtB5_14EvtxRecordInfoNtNtCsjwgglklCTGv_4core3fmt5Debug3fmt
FNDA:0,_RNCNvMs_NtNtCsk6AfKij8NQT_8hayabusa10detections9detectionNtB6_9Detection14insert_messages0_0Ba_
FNDA:0,_RNvXs2_NtNtCsk6AfKij8NQT_8hayabusa10detections9detectionNtB5_9DetectionNtNtCsjwgglklCTGv_4core3fmt5Debug3fmt
FNDA:0,_RNCNvMs_NtNtCsk6AfKij8NQT_8hayabusa10detections9detectionNtB6_9Detection14insert_messages3_0Ba_
FNDA:7,_RNvMNtNtCsk6AfKij8NQT_8hayabusa10detections9detectionNtB2_14EvtxRecordInfo9get_value
FNDA:5,_RNvMs_NtNtCsk6AfKij8NQT_8hayabusa10detections9detectionNtB4_9Detection12get_tag_info
FNDA:2,_RNCNvMs_NtNtCsk6AfKij8NQT_8hayabusa10detections9detectionNtB6_9Detection20add_aggcondition_msg0Ba_
FNDA:0,_RNCNvMs_NtNtCsk6AfKij8NQT_8hayabusa10detections9detectionNtB6_9Detection14insert_messages4_0Ba_
FNDA:0,_RNCNvMs_NtNtCsk6AfKij8NQT_8hayabusa10detections9detectionNtB6_9Detection18insert_agg_messages2_0Ba_
FNDA:0,_RNCNvMs_NtNtCsk6AfKij8NQT_8hayabusa10detections9detectionNtB6_9Detection14insert_messagesg_0Ba_
FNDA:2,_RNCNvMs_NtNtCsk6AfKij8NQT_8hayabusa10detections9detectionNtB6_9Detection20print_rule_load_info0Ba_
FNDA:11525,_RNCNvMs_NtNtCsk6AfKij8NQT_8hayabusa10detections9detectionNtB6_9Detection16parse_rule_files0Ba_
FNDA:2,_RNvMs_NtNtCsk6AfKij8NQT_8hayabusa10detections9detectionNtB4_9Detection20add_aggcondition_msg
FNDA:2,_RNvMs_NtNtCsk6AfKij8NQT_8hayabusa10detections9detectionNtB4_9Detection22add_aggcondition_msges
FNDA:0,_RNCNvMs_NtNtCsk6AfKij8NQT_8hayabusa10detections9detectionNtB6_9Detection14insert_messages6_0Ba_
FNDA:6,_RNCNvMs_NtNtCsk6AfKij8NQT_8hayabusa10detections9detectionNtB6_9Detection20print_rule_load_infos3_0Ba_
FNDA:0,_RNCNvMs_NtNtCsk6AfKij8NQT_8hayabusa10detections9detectionNtB6_9Detection14insert_messages2_0Ba_
FNDA:0,_RNCNvMs_NtNtCsk6AfKij8NQT_8hayabusa10detections9detectionNtB6_9Detection18insert_agg_message0Ba_
FNDA:4,_RNCNCNCNvMs_NtNtCsk6AfKij8NQT_8hayabusa10detections9detectionNtBa_9Detection13execute_rules000Be_
FNDA:0,_RNCNvMs_NtNtCsk6AfKij8NQT_8hayabusa10detections9detectionNtB6_9Detection14insert_messagese_0Ba_
FNDA:6,_RNCNvMs_NtNtCsk6AfKij8NQT_8hayabusa10detections9detectionNtB6_9Detection20print_rule_load_infos4_0Ba_
FNDA:0,_RNCNvMs_NtNtCsk6AfKij8NQT_8hayabusa10detections9detectionNtB6_9Detection14insert_messagesc_0Ba_
FNDA:0,_RNCNvMs_NtNtCsk6AfKij8NQT_8hayabusa10detections9detectionNtB6_9Detection14insert_messages7_0Ba_
FNDA:0,_RNCNvMs_NtNtCsk6AfKij8NQT_8hayabusa10detections9detectionNtB6_9Detection14insert_messagesa_0Ba_
FNDA:0,_RNCNvMs_NtNtCsk6AfKij8NQT_8hayabusa10detections9detectionNtB6_9Detection14insert_messages8_0Ba_
FNDA:0,_RNCNvMs_NtNtCsk6AfKij8NQT_8hayabusa10detections9detectionNtB6_9Detection18insert_agg_messages1_0Ba_
FNDA:0,_RNCNvMs_NtNtCsk6AfKij8NQT_8hayabusa10detections9detectionNtB6_9Detection14insert_messagesd_0Ba_
FNDA:5,_RNvMs_NtNtCsk6AfKij8NQT_8hayabusa10detections9detectionNtB4_9Detection16parse_rule_files
FNDA:0,_RNCNvMs_NtNtCsk6AfKij8NQT_8hayabusa10detections9detectionNtB6_9Detection18insert_agg_messages_0Ba_
FNDA:2,_RNvMs_NtNtCsk6AfKij8NQT_8hayabusa10detections9detectionNtB4_9Detection20print_rule_load_info
FNDA:4,_RNvMs_NtNtCsk6AfKij8NQT_8hayabusa10detections9detectionNtB4_9Detection5start
FNDA:0,_RNCNvMs_NtNtCsk6AfKij8NQT_8hayabusa10detections9detectionNtB6_9Detection14insert_messages1_0Ba_
FNDA:0,_RNvMs_NtNtCsk6AfKij8NQT_8hayabusa10detections9detectionNtB4_9Detection14get_alias_data
FNDA:0,_RNvMs_NtNtCsk6AfKij8NQT_8hayabusa10detections9detectionNtB4_9Detection18insert_agg_message
FNDA:0,_RNCNvMs_NtNtCsk6AfKij8NQT_8hayabusa10detections9detectionNtB6_9Detection14insert_messages_0Ba_
FNDA:2,_RNCNvMs_NtNtCsk6AfKij8NQT_8hayabusa10detections9detectionNtB6_9Detection20print_rule_load_infos6_0Ba_
FNDA:0,_RNCNCNvMs_NtNtCsk6AfKij8NQT_8hayabusa10detections9detectionNtB8_9Detection16parse_rule_files00Bc_
FNDA:4,_RNCNCNvMs_NtNtCsk6AfKij8NQT_8hayabusa10detections9detectionNtB8_9Detection13execute_rules00Bc_
FNDA:0,_RNCNvMs_NtNtCsk6AfKij8NQT_8hayabusa10detections9detectionNtB6_9Detection12get_tag_infos_0Ba_
FNDA:0,_RNCNCNCNvMs_NtNtCsk6AfKij8NQT_8hayabusa10detections9detectionNtBa_9Detection16parse_rule_files000Be_
FNDA:0,_RNCNvMs_NtNtCsk6AfKij8NQT_8hayabusa10detections9detectionNtB6_9Detection14insert_messages9_0Ba_
FNDA:8,_RNCNvMs_NtNtCsk6AfKij8NQT_8hayabusa10detections9detectionNtB6_9Detection20print_rule_load_infos0_0Ba_
FNDA:5,_RNvMs_NtNtCsk6AfKij8NQT_8hayabusa10detections9detectionNtB4_9Detection14insert_message
FNDA:0,_RNvMs_NtNtCsk6AfKij8NQT_8hayabusa10detections9detectionNtB4_9Detection19create_count_output
FNDA:0,_RNvXs1_NtNtCsk6AfKij8NQT_8hayabusa10detections9detectionNtB5_14EvtxRecordInfoNtNtCsjwgglklCTGv_4core3fmt5Debug3fmt
FNDA:4,_RNCNvMs_NtNtCsk6AfKij8NQT_8hayabusa10detections9detectionNtB6_9Detection13execute_rules0Ba_
FNDA:4,_RNvMs_NtNtCsk6AfKij8NQT_8hayabusa10detections9detectionNtB4_9Detection12execute_rule
FNDA:0,_RNCNvMs_NtNtCsk6AfKij8NQT_8hayabusa10detections9detectionNtB6_9Detection14insert_messagesb_0Ba_
FNDA:0,_RNCNvMs_NtNtCsk6AfKij8NQT_8hayabusa10detections9detectionNtB6_9Detection20print_rule_load_infos5_0Ba_
FNDA:6,_RNCNvMs_NtNtCsk6AfKij8NQT_8hayabusa10detections9detectionNtB6_9Detection20print_rule_load_infos1_0Ba_
FNDA:0,_RNCNvMs_NtNtCsk6AfKij8NQT_8hayabusa10detections9detectionNtB6_9Detection14insert_messagesf_0Ba_
FNDA:2,_RNCNvMs_NtNtCsk6AfKij8NQT_8hayabusa10detections9detectionNtB6_9Detection20print_rule_load_infos2_0Ba_
FNDA:0,_RNCNvMs_NtNtCsk6AfKij8NQT_8hayabusa10detections9detectionNtB6_9Detection12get_tag_info0Ba_
FNDA:8,_RNvMs_NtNtCsk6AfKij8NQT_8hayabusa10detections9detectionNtB4_9Detection3new
FNDA:11525,_RNCNvMs_NtNtCsk6AfKij8NQT_8hayabusa10detections9detectionNtB6_9Detection16parse_rule_filess_0Ba_
FNDA:30,_RNCNvMs_NtNtCsk6AfKij8NQT_8hayabusa10detections9detectionNtB6_9Detection14insert_message0Ba_
FNDA:0,_RNCNvMs_NtNtCsk6AfKij8NQT_8hayabusa10detections9detectionNtB6_9Detection18insert_agg_messages0_0Ba_
FNDA:4,_RNvMs_NtNtCsk6AfKij8NQT_8hayabusa10detections9detectionNtB4_9Detection13execute_rules
FNDA:0,_RNCNCNCNvMs_NtNtCsk6AfKij8NQT_8hayabusa10detections9detectionNtBa_9Detection16parse_rule_files00s_0Be_
FNDA:0,_RNCNvMs_NtNtCsk6AfKij8NQT_8hayabusa10detections9detectionNtB6_9Detection14insert_messages5_0Ba_
FNDA:0,_RNCNvMs_NtNtCsk6AfKij8NQT_8hayabusa10detections9detectionNtB6_9Detection14insert_messagesh_0Ba_
FNDA:4,_RNCNvMs_NtNtCsk6AfKij8NQT_8hayabusa10detections9detectionNtB6_9Detection20print_rule_load_infos_0Ba_
FNDA:0,_RNvXs0_NtNtCsk6AfKij8NQT_8hayabusa10detections9detectionNtB5_14EvtxRecordInfoNtNtCsjwgglklCTGv_4core5clone5Clone5cloneB9_
FNF:86
FNH:65
DA:44,0
DA:54,400
DA:55,400
DA:56,400
DA:59,0
DA:65,8
DA:66,8
DA:67,8
DA:69,4
DA:70,4
DA:71,4
DA:74,6
DA:75,6
DA:76,6
DA:77,6
DA:78,6
DA:79,6
DA:80,6
DA:81,6
DA:82,6
DA:83,6
DA:84,6
DA:85,6
DA:86,6
DA:87,6
DA:88,6
DA:89,6
DA:90,6
DA:91,0
DA:92,0
DA:93,0
DA:94,0
DA:95,0
DA:96,0
DA:97,0
DA:98,0
DA:99,0
DA:100,0
DA:101,0
DA:102,6
DA:103,6
DA:104,11530
DA:105,11530
DA:106,11530
DA:107,11530
DA:108,0
DA:109,0
DA:110,0
DA:111,0
DA:112,0
DA:113,0
DA:114,0
DA:115,0
DA:116,0
DA:117,0
DA:118,0
DA:119,0
DA:120,0
DA:121,0
DA:122,0
DA:123,0
DA:124,0
DA:125,0
DA:126,0
DA:127,0
DA:128,0
DA:129,0
DA:130,0
DA:131,0
DA:132,0
DA:133,0
DA:134,0
DA:135,0
DA:136,11530
DA:138,6
DA:139,6
DA:140,6
DA:141,11530
DA:142,6
DA:143,6
DA:144,6
DA:145,5
DA:146,5
DA:147,4
DA:148,3
DA:149,3
DA:150,3
DA:151,3
DA:152,3
DA:153,3
DA:154,3
DA:155,3
DA:156,3
DA:157,6
DA:158,6
DA:161,4
DA:162,4
DA:163,4
DA:164,4
DA:165,4
DA:166,4
DA:167,4
DA:168,4
DA:169,4
DA:170,4
DA:171,4
DA:172,4
DA:173,4
DA:174,4
DA:175,8
DA:176,4
DA:177,4
DA:183,4
DA:184,4
DA:185,4
DA:186,4
DA:188,2
DA:189,2
DA:190,2
DA:192,2
DA:193,4
DA:194,2
DA:195,2
DA:196,0
DA:198,0
DA:199,0
DA:200,0
DA:202,2
DA:205,4
DA:206,4
DA:207,4
DA:208,4
DA:209,7
DA:210,7
DA:211,7
DA:212,7
DA:213,7
DA:214,7
DA:215,7
DA:216,7
DA:217,7
DA:218,2
DA:219,5
DA:220,5
DA:221,5
DA:222,0
DA:223,0
DA:224,5
DA:225,5
DA:226,5
DA:227,5
DA:228,5
DA:229,5
DA:232,4
DA:233,4
DA:236,9
DA:237,9
DA:238,9
DA:239,9
DA:240,9
DA:241,9
DA:242,9
DA:243,54
DA:245,9
DA:246,9
DA:247,9
DA:248,9
DA:249,9
DA:251,0
DA:253,9
DA:254,9
DA:255,9
DA:256,9
DA:257,9
DA:258,9
DA:259,9
DA:260,9
DA:261,9
DA:262,9
DA:263,9
DA:264,9
DA:265,0
DA:267,9
DA:270,9
DA:271,9
DA:272,9
DA:273,9
DA:274,9
DA:275,9
DA:276,9
DA:277,9
DA:278,9
DA:279,9
DA:280,9
DA:282,107
DA:283,107
DA:284,9
DA:285,9
DA:286,9
DA:287,9
DA:288,9
DA:289,9
DA:290,9
DA:291,9
DA:292,9
DA:293,9
DA:294,9
DA:295,9
DA:296,9
DA:297,9
DA:298,9
DA:299,9
DA:300,9
DA:301,9
DA:302,9
DA:303,9
DA:304,9
DA:305,9
DA:306,9
DA:307,9
DA:308,9
DA:309,9
DA:310,9
DA:311,9
DA:312,9
DA:313,9
DA:314,9
DA:315,9
DA:316,9
DA:317,9
DA:318,9
DA:319,9
DA:320,9
DA:321,9
DA:322,9
DA:323,9
DA:324,9
DA:325,9
DA:326,9
DA:328,9
DA:329,9
DA:330,9
DA:331,3
DA:333,6
DA:335,9
DA:337,9
DA:338,9
DA:339,9
DA:340,9
DA:341,9
DA:342,9
DA:343,9
DA:344,9
DA:345,9
DA:346,9
DA:347,9
DA:348,9
DA:349,9
DA:350,9
DA:351,9
DA:352,9
DA:353,9
DA:354,9
DA:355,0
DA:356,0
DA:357,0
DA:358,0
DA:359,0
DA:360,0
DA:361,0
DA:362,0
DA:363,0
DA:364,0
DA:365,0
DA:366,0
DA:367,0
DA:368,0
DA:369,0
DA:370,0
DA:371,0
DA:372,0
DA:373,0
DA:374,0
DA:375,0
DA:376,0
DA:377,0
DA:378,0
DA:379,0
DA:380,0
DA:381,0
DA:382,0
DA:383,0
DA:384,0
DA:385,0
DA:386,0
DA:387,0
DA:388,0
DA:389,0
DA:390,0
DA:391,0
DA:392,0
DA:393,0
DA:394,0
DA:395,0
DA:396,0
DA:397,0
DA:398,0
DA:399,0
DA:400,0
DA:401,0
DA:402,0
DA:403,0
DA:404,0
DA:405,0
DA:406,0
DA:407,0
DA:408,0
DA:409,0
DA:410,0
DA:411,0
DA:412,0
DA:413,0
DA:414,1
DA:415,1
DA:416,1
DA:417,1
DA:418,1
DA:419,1
DA:420,4
DA:421,1
DA:423,0
DA:425,1
DA:427,0
DA:428,0
DA:429,0
DA:430,0
DA:431,0
DA:432,0
DA:433,0
DA:434,0
DA:435,0
DA:436,0
DA:437,0
DA:438,0
DA:439,0
DA:440,0
DA:441,0
DA:442,0
DA:443,0
DA:444,0
DA:445,0
DA:446,0
DA:447,0
DA:448,0
DA:449,0
DA:450,0
DA:451,0
DA:452,0
DA:453,0
DA:454,0
DA:455,0
DA:456,0
DA:457,0
DA:458,0
DA:459,0
DA:460,0
DA:461,0
DA:462,0
DA:463,0
DA:464,0
DA:465,0
DA:466,0
DA:467,0
DA:468,0
DA:469,0
DA:470,0
DA:471,0
DA:472,0
DA:473,0
DA:474,0
DA:475,0
DA:476,0
DA:477,0
DA:478,0
DA:479,0
DA:480,0
DA:481,0
DA:482,0
DA:483,0
DA:484,0
DA:485,0
DA:486,0
DA:487,0
DA:488,0
DA:489,0
DA:490,0
DA:491,0
DA:492,0
DA:493,0
DA:495,0
DA:496,0
DA:497,0
DA:498,0
DA:499,0
DA:501,0
DA:503,0
DA:506,12
DA:507,8
DA:508,4
DA:509,4
DA:510,4
DA:511,4
DA:512,4
DA:513,4
DA:514,4
DA:515,4
DA:516,0
DA:517,4
DA:518,4
DA:519,4
DA:520,0
DA:521,4
DA:522,4
DA:523,4
DA:524,4
DA:525,15
DA:526,15
DA:527,15
DA:528,15
DA:529,1
DA:530,1
DA:531,1
DA:532,1
DA:533,15
DA:534,15
DA:535,15
DA:536,1
DA:537,14
DA:539,4
DA:540,3
DA:541,1
DA:542,1
DA:543,1
DA:544,1
DA:545,1
DA:546,1
DA:547,1
DA:548,2
DA:549,1
DA:550,1
DA:551,1
DA:552,1
DA:553,1
DA:554,1
DA:555,1
DA:556,1
DA:557,1
DA:558,1
DA:559,1
DA:560,1
DA:561,0
DA:562,1
DA:563,1
DA:564,1
DA:565,1
DA:566,3
DA:567,1
DA:568,1
DA:569,1
DA:570,1
DA:571,1
DA:572,1
DA:573,1
DA:574,1
DA:575,1
DA:578,12
DA:579,8
DA:580,4
DA:581,4
DA:582,4
DA:583,4
DA:584,4
DA:585,4
DA:586,4
DA:587,4
DA:588,0
DA:589,4
DA:590,4
DA:591,4
DA:592,0
DA:593,4
DA:594,4
DA:595,4
DA:596,4
DA:597,4
DA:598,15
DA:599,15
DA:600,15
DA:601,15
DA:602,1
DA:603,1
DA:604,1
DA:605,1
DA:606,15
DA:607,15
DA:608,15
DA:609,1
DA:610,14
DA:612,4
DA:613,3
DA:614,1
DA:615,1
DA:616,1
DA:617,1
DA:618,1
DA:619,1
DA:620,1
DA:621,1
DA:622,6
DA:623,1
DA:624,1
DA:625,1
DA:626,1
DA:627,1
DA:628,1
DA:629,1
DA:630,1
DA:631,1
DA:632,1
DA:633,1
DA:634,1
DA:635,1
DA:636,0
DA:637,1
DA:638,1
DA:639,1
DA:640,1
DA:641,3
DA:642,1
DA:643,1
DA:644,1
DA:645,1
DA:646,1
DA:647,1
DA:648,1
DA:649,1
DA:650,1
DA:652,0
DA:653,0
DA:654,0
DA:655,19
DA:659,9
DA:660,5
DA:661,4
DA:662,4
DA:663,4
DA:665,2
DA:666,2
DA:667,2
DA:670,9
DA:671,0
DA:673,9
DA:674,9
DA:675,9
DA:676,9
DA:678,9
DA:679,9
DA:680,9
DA:681,9
DA:682,9
DA:683,9
DA:684,9
DA:685,9
DA:686,9
DA:687,9
DA:688,9
DA:689,9
DA:690,9
DA:691,9
DA:692,9
DA:693,9
DA:694,9
DA:695,9
DA:696,9
DA:697,9
DA:698,9
DA:699,9
DA:700,9
DA:701,9
DA:702,9
DA:703,9
DA:704,9
DA:705,9
DA:706,9
DA:707,9
DA:708,9
DA:709,9
DA:710,9
DA:711,9
DA:712,9
DA:713,9
DA:716,0
DA:717,0
DA:718,0
DA:719,0
DA:720,0
DA:721,0
DA:722,0
DA:724,0
DA:725,0
DA:726,0
DA:727,0
DA:728,0
DA:729,0
DA:730,0
DA:731,0
DA:732,0
DA:733,0
DA:734,0
DA:735,0
DA:736,0
DA:737,0
DA:738,0
DA:739,0
DA:740,0
DA:741,0
DA:742,0
DA:743,0
DA:744,0
DA:745,0
DA:747,0
DA:748,0
DA:749,0
DA:750,0
DA:752,0
DA:754,0
DA:756,0
DA:757,0
DA:758,0
DA:759,0
DA:760,0
DA:761,0
DA:762,0
DA:763,0
DA:764,0
DA:765,0
DA:766,0
DA:767,0
DA:768,0
DA:769,0
DA:770,0
DA:771,0
DA:772,0
DA:773,0
DA:774,0
DA:775,0
DA:776,0
DA:777,0
DA:778,0
DA:779,0
DA:780,0
DA:781,0
DA:782,0
DA:783,0
DA:784,0
DA:785,0
DA:786,0
DA:787,0
DA:788,0
DA:789,0
DA:790,0
DA:791,0
DA:792,0
DA:793,0
DA:794,0
DA:795,0
DA:796,0
DA:797,0
DA:798,0
DA:799,0
DA:800,0
DA:801,0
DA:802,0
DA:803,0
DA:804,0
DA:805,0
DA:806,0
DA:807,0
DA:808,0
DA:809,0
DA:810,0
DA:811,0
DA:812,0
DA:813,0
DA:814,0
DA:815,0
DA:816,0
DA:817,0
DA:818,0
DA:819,0
DA:820,0
DA:821,0
DA:822,0
DA:823,0
DA:824,0
DA:825,0
DA:826,0
DA:827,0
DA:828,0
DA:829,0
DA:831,0
DA:833,0
DA:835,0
DA:836,0
DA:837,0
DA:838,0
DA:839,0
DA:840,0
DA:841,0
DA:842,0
DA:843,0
DA:844,0
DA:845,0
DA:846,0
DA:847,0
DA:848,0
DA:849,0
DA:850,0
DA:851,0
DA:852,0
DA:853,0
DA:854,0
DA:855,0
DA:856,0
DA:857,0
DA:858,0
DA:859,0
DA:860,0
DA:861,0
DA:862,0
DA:863,0
DA:864,0
DA:865,0
DA:866,0
DA:867,0
DA:868,0
DA:869,0
DA:870,0
DA:871,0
DA:872,0
DA:873,0
DA:874,0
DA:875,0
DA:876,0
DA:877,0
DA:878,0
DA:879,0
DA:880,0
DA:881,0
DA:883,0
DA:884,0
DA:885,0
DA:886,0
DA:887,0
DA:888,0
DA:891,0
DA:892,0
DA:893,0
DA:894,0
DA:895,0
DA:896,0
DA:898,0
DA:901,0
DA:902,0
DA:903,0
DA:904,0
DA:905,0
DA:906,0
DA:907,0
DA:908,0
DA:909,0
DA:910,0
DA:911,0
DA:912,0
DA:913,0
DA:914,0
DA:915,0
DA:916,0
DA:917,0
DA:918,0
DA:919,0
DA:920,0
DA:921,0
DA:922,0
DA:923,0
DA:924,0
DA:925,0
DA:926,0
DA:927,0
DA:928,0
DA:929,0
DA:930,0
DA:931,0
DA:932,0
DA:935,9
DA:936,9
DA:937,9
DA:938,9
DA:939,9
DA:940,9
DA:941,9
DA:942,9
DA:943,0
DA:944,0
DA:946,0
DA:948,9
DA:949,9
DA:950,0
DA:951,0
DA:952,0
DA:953,0
DA:954,0
DA:955,0
DA:956,0
DA:957,0
DA:958,0
DA:960,0
DA:961,0
DA:963,9
DA:966,6
DA:967,6
DA:968,6
DA:969,6
DA:970,6
DA:971,6
DA:972,6
DA:973,6
DA:974,6
DA:975,6
DA:976,6
DA:977,6
DA:978,6
DA:979,6
DA:980,6
DA:981,6
DA:982,6
DA:983,1
DA:984,5
DA:986,6
DA:987,6
DA:988,2
DA:989,2
DA:990,2
DA:991,2
DA:992,2
DA:993,2
DA:994,2
DA:995,4
DA:997,6
DA:998,2
DA:999,2
DA:1000,2
DA:1001,2
DA:1002,2
DA:1003,2
DA:1004,2
DA:1005,4
DA:1007,6
DA:1008,1
DA:1009,1
DA:1010,1
DA:1011,1
DA:1012,1
DA:1013,1
DA:1014,5
DA:1016,6
DA:1017,6
DA:1019,3
DA:1020,3
DA:1021,3
DA:1022,3
DA:1023,3
DA:1024,3
DA:1025,3
DA:1026,3
DA:1027,3
DA:1028,3
DA:1029,3
DA:1030,6
DA:1031,6
DA:1032,0
DA:1033,0
DA:1034,0
DA:1035,0
DA:1036,0
DA:1037,0
DA:1039,0
DA:1041,0
DA:1044,0
DA:1045,0
DA:1046,0
DA:1047,0
DA:1048,0
DA:1049,0
DA:1050,0
DA:1051,0
DA:1052,0
DA:1053,0
DA:1054,6
DA:1055,6
DA:1056,3
DA:1057,0
DA:1058,0
DA:1059,0
DA:1060,0
DA:1061,0
DA:1062,0
DA:1063,0
DA:1064,3
DA:1065,3
DA:1066,3
DA:1067,3
DA:1068,3
DA:1069,3
DA:1070,3
DA:1071,12
DA:1072,12
DA:1073,9
DA:1074,12
DA:1075,3
DA:1076,3
DA:1077,9
DA:1078,3
DA:1079,3
DA:1080,9
DA:1081,9
DA:1082,9
DA:1083,3
DA:1084,3
DA:1085,0
DA:1087,3
DA:1089,3
DA:1090,3
DA:1091,3
DA:1092,3
DA:1093,3
DA:1094,3
DA:1095,3
DA:1096,3
DA:1097,3
DA:1098,3
DA:1099,3
DA:1100,3
DA:1101,3
DA:1102,3
DA:1103,3
DA:1104,3
DA:1105,0
DA:1106,3
DA:1107,6
DA:1108,9
DA:1109,3
DA:1110,3
DA:1111,3
DA:1112,3
DA:1113,3
DA:1114,3
DA:1115,3
DA:1116,3
DA:1117,3
DA:1118,3
DA:1119,3
DA:1120,3
DA:1121,3
DA:1122,3
DA:1123,0
DA:1124,3
DA:1125,3
DA:1126,3
DA:1127,3
DA:1128,3
DA:1129,3
DA:1130,3
DA:1131,3
DA:1132,3
DA:1133,3
DA:1134,3
DA:1135,3
DA:1136,0
DA:1137,3
DA:1138,3
DA:1139,0
DA:1140,3
DA:1141,3
DA:1144,2
DA:1145,2
DA:1146,2
DA:1147,2
DA:1148,2
DA:1149,2
DA:1150,3
DA:1151,3
DA:1152,3
DA:1153,3
DA:1154,3
DA:1155,3
DA:1156,3
DA:1157,3
DA:1158,3
DA:1159,3
DA:1160,2
DA:1161,1
DA:1163,0
DA:1164,2
DA:1198,9
DA:1199,9
DA:1200,9
DA:1201,9
DA:1202,9
DA:1203,9
DA:1204,9
DA:1205,9
DA:1206,9
DA:1207,9
DA:1208,9
DA:1209,9
DA:1210,9
DA:1211,9
DA:1212,9
DA:1213,9
DA:1214,9
DA:1215,9
DA:1216,9
DA:1217,9
DA:1218,9
DA:1219,9
DA:1220,9
DA:1221,9
DA:1222,9
DA:1223,9
DA:1224,9
DA:1225,9
DA:1226,9
DA:1227,9
DA:1228,9
DA:1229,9
DA:1230,9
DA:1231,9
DA:1232,9
DA:1233,9
DA:1234,9
DA:1235,9
DA:1236,9
DA:1237,9
DA:1238,9
DA:1239,9
DA:1240,9
DA:1241,9
DA:1242,9
DA:1243,9
DA:1244,9
DA:1245,9
DA:1246,9
DA:1247,9
DA:1248,9
DA:1249,9
DA:1250,9
DA:1251,9
DA:1252,9
DA:1253,9
DA:1254,9
DA:1255,9
DA:1256,9
DA:1257,9
DA:1258,9
DA:1259,9
DA:1260,9
DA:1261,9
DA:1262,9
DA:1264,1
DA:1265,1
DA:1266,1
DA:1267,1
DA:1268,1
DA:1269,1
DA:1270,1
DA:1271,1
DA:1272,1
DA:1273,1
DA:1274,1
DA:1275,1
DA:1276,1
DA:1277,1
DA:1279,1
DA:1280,1
DA:1281,1
DA:1282,1
DA:1283,1
DA:1284,1
DA:1285,1
DA:1286,1
DA:1287,1
DA:1288,1
DA:1289,1
DA:1290,1
DA:1291,1
DA:1292,1
DA:1293,1
DA:1294,1
DA:1295,1
DA:1296,1
DA:1297,1
DA:1298,1
DA:1299,1
DA:1300,1
DA:1301,1
DA:1302,1
DA:1303,1
DA:1304,1
DA:1305,1
DA:1307,1
DA:1308,1
DA:1309,1
DA:1310,1
DA:1311,1
DA:1312,1
DA:1313,1
DA:1314,1
DA:1315,1
DA:1316,1
DA:1317,1
DA:1318,1
DA:1319,1
DA:1320,1
DA:1321,1
DA:1322,1
DA:1323,1
DA:1324,1
DA:1325,1
DA:1326,1
DA:1327,1
DA:1328,1
DA:1329,1
DA:1330,1
DA:1331,1
DA:1332,1
DA:1334,1
DA:1335,1
DA:1336,1
DA:1337,1
DA:1338,1
DA:1339,1
DA:1340,1
DA:1341,1
DA:1342,1
DA:1343,1
DA:1344,1
DA:1345,1
DA:1346,1
DA:1347,1
DA:1348,1
DA:1349,1
DA:1350,1
DA:1351,1
DA:1352,1
DA:1353,1
DA:1354,1
DA:1355,1
DA:1356,1
DA:1357,1
DA:1358,1
DA:1359,1
DA:1360,1
DA:1361,1
DA:1363,1
DA:1364,1
DA:1365,1
DA:1366,1
DA:1367,1
DA:1368,1
DA:1369,1
DA:1370,1
DA:1371,1
DA:1372,1
DA:1373,1
DA:1374,1
DA:1375,1
DA:1376,1
DA:1377,1
DA:1378,1
DA:1379,1
DA:1380,1
DA:1381,1
DA:1382,1
DA:1383,1
DA:1384,1
DA:1385,1
DA:1386,1
DA:1387,1
DA:1388,1
DA:1389,1
DA:1390,1
DA:1391,1
DA:1393,1
DA:1394,1
DA:1395,1
DA:1396,1
DA:1397,1
DA:1398,1
DA:1399,1
DA:1400,1
DA:1401,1
DA:1402,1
DA:1403,1
DA:1404,1
DA:1405,1
DA:1406,1
DA:1407,1
DA:1408,1
DA:1409,1
DA:1410,1
DA:1411,1
DA:1412,1
DA:1413,1
DA:1414,1
DA:1415,1
DA:1416,1
DA:1417,1
DA:1418,1
DA:1419,1
DA:1420,1
DA:1421,1
DA:1422,1
DA:1423,1
DA:1424,1
DA:1425,1
DA:1426,1
DA:1427,1
DA:1428,1
DA:1429,1
DA:1430,1
DA:1431,1
DA:1432,1
DA:1433,1
DA:1434,1
DA:1435,1
DA:1436,1
DA:1437,1
DA:1438,1
DA:1439,1
DA:1440,1
DA:1441,1
DA:1442,1
DA:1443,1
DA:1444,1
DA:1445,1
DA:1446,1
DA:1447,1
DA:1448,1
DA:1449,1
DA:1450,1
DA:1451,1
DA:1453,1
DA:1454,1
DA:1455,1
DA:1456,1
DA:1457,1
DA:1458,1
DA:1459,1
DA:1460,1
DA:1461,1
DA:1462,1
DA:1463,1
DA:1464,1
DA:1465,1
DA:1466,1
DA:1467,1
DA:1468,1
DA:1469,1
DA:1470,1
DA:1471,1
DA:1472,1
DA:1473,1
DA:1474,1
DA:1475,1
DA:1476,1
DA:1477,1
DA:1478,1
DA:1479,1
DA:1480,1
DA:1481,1
DA:1482,1
DA:1483,1
DA:1484,1
DA:1485,1
DA:1486,1
DA:1487,1
DA:1488,1
DA:1489,1
DA:1490,1
DA:1491,1
DA:1492,1
DA:1493,1
DA:1494,1
DA:1495,1
DA:1496,1
DA:1497,1
DA:1498,1
DA:1499,1
DA:1500,1
DA:1501,1
DA:1502,1
DA:1503,1
DA:1504,1
DA:1505,1
DA:1506,1
DA:1507,1
DA:1508,1
DA:1509,1
DA:1510,1
DA:1511,1
DA:1512,1
DA:1513,1
DA:1514,1
DA:1515,1
DA:1516,1
DA:1517,1
DA:1518,1
DA:1519,1
DA:1520,1
DA:1521,1
DA:1522,1
DA:1523,1
DA:1524,1
DA:1525,1
DA:1526,1
DA:1527,1
DA:1528,1
DA:1529,1
DA:1530,1
DA:1531,1
DA:1532,1
DA:1533,1
DA:1534,1
DA:1535,1
DA:1536,1
DA:1537,1
DA:1538,1
DA:1539,1
DA:1540,1
DA:1541,1
DA:1542,1
DA:1543,1
DA:1544,1
DA:1545,1
DA:1546,1
DA:1547,1
DA:1548,1
DA:1549,1
DA:1550,1
DA:1551,1
DA:1552,1
DA:1553,1
DA:1554,1
DA:1555,1
DA:1556,1
DA:1557,1
DA:1558,1
DA:1559,1
DA:1560,1
DA:1561,1
DA:1562,1
DA:1563,1
DA:1564,1
DA:1565,1
DA:1566,1
DA:1567,1
DA:1568,1
DA:1569,1
DA:1570,1
DA:1571,1
DA:1572,1
DA:1573,1
DA:1574,1
DA:1575,1
DA:1576,1
DA:1577,1
DA:1578,1
DA:1579,1
DA:1580,1
DA:1581,6
DA:1582,6
DA:1585,1
DA:1587,1
DA:1588,1
DA:1589,1
DA:1590,1
DA:1591,1
DA:1592,1
DA:1593,1
DA:1594,1
DA:1595,1
DA:1596,1
DA:1597,1
DA:1598,1
DA:1599,1
DA:1600,1
DA:1601,1
DA:1602,1
DA:1603,1
DA:1604,1
DA:1605,1
DA:1606,1
DA:1607,1
DA:1608,1
DA:1609,1
DA:1610,1
DA:1611,1
DA:1612,1
DA:1613,1
DA:1614,1
DA:1615,1
DA:1616,1
DA:1617,1
DA:1618,1
DA:1619,1
DA:1620,1
DA:1621,1
DA:1622,1
DA:1623,1
DA:1624,1
DA:1625,1
DA:1626,1
DA:1627,1
DA:1628,1
DA:1629,1
DA:1630,1
DA:1631,1
DA:1632,1
DA:1633,1
DA:1634,1
DA:1635,1
DA:1636,1
DA:1637,1
DA:1638,1
DA:1639,1
DA:1640,1
DA:1641,1
DA:1642,1
DA:1643,1
DA:1644,1
DA:1645,1
DA:1646,1
DA:1647,1
DA:1648,1
DA:1649,1
DA:1650,1
DA:1651,1
DA:1652,1
DA:1653,1
DA:1654,1
DA:1655,1
DA:1656,1
DA:1657,1
DA:1658,1
DA:1659,1
DA:1660,1
DA:1661,1
DA:1662,1
DA:1663,1
DA:1664,1
DA:1665,1
DA:1666,1
DA:1667,1
DA:1668,1
DA:1669,1
DA:1670,1
DA:1671,1
DA:1672,1
DA:1673,1
DA:1674,1
DA:1675,1
DA:1676,1
DA:1677,1
DA:1678,1
DA:1679,1
DA:1680,1
DA:1681,1
DA:1682,1
DA:1683,1
DA:1684,1
DA:1685,1
DA:1686,1
DA:1687,1
DA:1688,1
DA:1689,1
DA:1690,1
DA:1691,1
DA:1692,1
DA:1693,1
DA:1694,1
DA:1695,1
DA:1696,1
DA:1697,1
DA:1698,1
DA:1699,1
DA:1700,1
DA:1701,1
DA:1702,1
DA:1703,1
DA:1704,1
DA:1705,1
DA:1706,1
DA:1707,1
DA:1708,1
DA:1709,1
DA:1710,1
DA:1711,1
DA:1712,6
DA:1713,6
DA:1716,1
DA:1718,1
DA:1719,1
DA:1720,1
DA:1721,1
DA:1722,1
DA:1723,1
DA:1724,1
DA:1725,1
DA:1726,1
DA:1727,1
DA:1728,1
DA:1729,1
DA:1730,1
DA:1731,1
DA:1732,1
DA:1733,1
DA:1734,1
DA:1735,1
DA:1736,1
DA:1737,1
DA:1738,1
DA:1739,1
DA:1740,1
DA:1741,1
DA:1742,1
DA:1743,1
DA:1744,1
DA:1745,1
DA:1746,1
DA:1747,1
DA:1748,1
DA:1749,1
DA:1750,1
DA:1751,1
DA:1752,1
DA:1753,1
DA:1754,1
DA:1755,1
DA:1756,1
DA:1757,1
DA:1758,1
DA:1759,1
DA:1760,1
DA:1761,1
DA:1762,1
DA:1763,1
DA:1764,1
DA:1765,1
DA:1766,1
DA:1767,1
DA:1768,1
DA:1769,1
DA:1770,1
DA:1771,1
DA:1772,1
DA:1773,1
DA:1774,1
DA:1775,1
DA:1776,1
DA:1777,1
DA:1778,1
DA:1779,1
DA:1780,1
DA:1781,1
DA:1782,1
DA:1783,1
DA:1784,1
DA:1785,1
DA:1786,1
DA:1787,1
DA:1788,1
DA:1789,1
DA:1790,1
DA:1791,1
DA:1792,1
DA:1793,1
DA:1794,1
DA:1795,1
DA:1796,1
DA:1797,1
DA:1798,1
DA:1799,1
DA:1800,1
DA:1801,1
DA:1802,1
DA:1803,1
DA:1804,1
DA:1805,1
DA:1806,1
DA:1807,1
DA:1808,1
DA:1809,1
DA:1810,1
DA:1811,1
DA:1812,1
DA:1813,1
DA:1814,1
DA:1815,1
DA:1816,1
DA:1817,1
DA:1818,1
DA:1819,1
DA:1820,1
DA:1821,1
DA:1822,1
DA:1823,1
DA:1824,1
DA:1825,1
DA:1826,1
DA:1827,1
DA:1828,1
DA:1829,1
DA:1830,1
DA:1831,1
DA:1832,1
DA:1833,1
DA:1834,1
DA:1835,1
DA:1836,1
DA:1837,1
DA:1838,1
DA:1839,1
DA:1840,1
DA:1841,1
DA:1843,1
DA:1844,1
DA:1845,1
DA:1846,1
DA:1847,1
DA:1848,1
DA:1849,1
DA:1850,1
DA:1851,1
DA:1852,1
DA:1853,1
DA:1854,1
DA:1855,1
DA:1856,1
DA:1859,1
DA:1861,1
DA:1862,1
DA:1863,1
DA:1864,1
DA:1865,1
DA:1866,1
DA:1867,1
DA:1868,1
DA:1869,1
DA:1870,1
DA:1871,1
DA:1872,1
DA:1873,1
DA:1874,1
DA:1875,1
DA:1876,1
DA:1877,1
DA:1878,1
DA:1879,1
DA:1880,1
DA:1881,1
DA:1882,1
DA:1883,1
DA:1884,1
DA:1885,1
DA:1886,1
DA:1887,1
DA:1888,1
DA:1889,1
DA:1890,1
DA:1891,1
DA:1892,1
DA:1893,1
DA:1894,1
DA:1895,1
DA:1896,1
DA:1897,1
DA:1898,1
DA:1899,1
DA:1900,1
DA:1901,1
DA:1902,1
DA:1903,1
DA:1904,1
DA:1905,1
DA:1906,1
DA:1907,1
DA:1908,1
DA:1909,1
DA:1910,1
DA:1911,1
DA:1912,1
DA:1913,1
DA:1914,1
DA:1915,1
DA:1916,1
DA:1917,1
DA:1918,1
DA:1919,1
DA:1920,1
DA:1921,1
DA:1922,1
DA:1923,1
DA:1924,1
DA:1925,1
DA:1926,1
DA:1927,1
DA:1928,1
DA:1929,1
DA:1930,1
DA:1931,1
DA:1932,1
DA:1933,1
DA:1934,1
DA:1935,1
DA:1936,1
DA:1937,1
DA:1938,1
DA:1939,1
DA:1940,1
DA:1941,1
DA:1942,1
DA:1943,1
DA:1944,1
DA:1945,1
DA:1946,1
DA:1947,1
DA:1948,1
DA:1949,1
DA:1950,1
DA:1951,1
DA:1952,1
DA:1953,1
DA:1954,1
DA:1955,1
DA:1956,1
DA:1957,1
DA:1958,1
DA:1959,1
DA:1960,1
DA:1961,1
DA:1962,1
DA:1963,1
DA:1964,1
DA:1965,1
DA:1966,1
DA:1967,1
DA:1968,1
DA:1969,1
DA:1970,1
DA:1971,1
DA:1972,1
DA:1973,1
DA:1974,1
DA:1975,1
DA:1976,1
DA:1977,1
DA:1978,1
DA:1979,1
DA:1980,1
DA:1981,1
DA:1982,1
DA:1983,1
DA:1984,1
DA:1985,1
DA:1987,1
DA:1988,1
DA:1989,1
DA:1990,1
DA:1991,1
DA:1992,1
DA:1993,1
DA:1994,1
DA:1995,16
DA:1996,16
DA:1997,16
DA:1998,16
DA:1999,16
DA:2001,1
BRF:0
BRH:0
LF:1862
LH:1391
end_of_record
SF:C:\Users\nexts\opensource\hayabusa\src\detections\field_data_map.rs
FN:132,_RNCNvNtNtCsh5cigu73tlT_8hayabusa10detections14field_data_map15load_yaml_filess1_0B7_
FN:14,_RNvXs0_NtNtCsh5cigu73tlT_8hayabusa10detections14field_data_mapNtB5_18FieldDataConverterNtNtCsjwgglklCTGv_4core5clone5Clone5cloneB9_
FN:20,_RNvXs8_NtNtCsh5cigu73tlT_8hayabusa10detections14field_data_mapNtB5_15FieldDataMapKeyNtNtCsjwgglklCTGv_4core5clone5Clone5cloneB9_
FN:146,_RNvNtNtCsh5cigu73tlT_8hayabusa10detections14field_data_map21create_field_data_map
FN:20,_RNvXs1_NtNtCsh5cigu73tlT_8hayabusa10detections14field_data_mapNtB5_15FieldDataMapKeyNtNtCsjwgglklCTGv_4core3fmt5Debug3fmt
FN:130,_RNCNvNtNtCsh5cigu73tlT_8hayabusa10detections14field_data_map15load_yaml_filess_0B7_
FN:50,_RNCNvNtNtCsh5cigu73tlT_8hayabusa10detections14field_data_map20build_field_data_map0B7_
FN:45,_RNvNtNtCsh5cigu73tlT_8hayabusa10detections14field_data_map20build_field_data_map
FN:27,_RNvMNtNtCsh5cigu73tlT_8hayabusa10detections14field_data_mapNtB2_15FieldDataMapKey3new
FN:120,_RNvNtNtCsh5cigu73tlT_8hayabusa10detections14field_data_map15load_yaml_files
FN:96,_RNvNtNtCsh5cigu73tlT_8hayabusa10detections14field_data_map18convert_field_data
FN:129,_RNCNvNtNtCsh5cigu73tlT_8hayabusa10detections14field_data_map15load_yaml_files0B7_
FN:20,_RINvXs4_NtNtCsh5cigu73tlT_8hayabusa10detections14field_data_mapNtB6_15FieldDataMapKeyNtNtCsjwgglklCTGv_4core4hash4Hash4hashNtNtCs31qbJ4OwyK5_5ahash13fallback_hash7AHasherEBa_
FN:20,_RNvXs7_NtNtCsh5cigu73tlT_8hayabusa10detections14field_data_mapNtB5_15FieldDataMapKeyNtNtCsjwgglklCTGv_4core7default7Default7defaultB9_
FN:131,_RNCNvNtNtCsh5cigu73tlT_8hayabusa10detections14field_data_map15load_yaml_filess0_0B7_
FN:20,_RNvXs6_NtNtCsh5cigu73tlT_8hayabusa10detections14field_data_mapNtB5_15FieldDataMapKeyNtNtCsjwgglklCTGv_4core3cmp9PartialEq2eqB9_
FN:186,_RNCNvNtNtNtCsh5cigu73tlT_8hayabusa10detections14field_data_map5tests35test_convert_field_data_empty_data20B9_
FN:224,_RNCNvNtNtNtCsh5cigu73tlT_8hayabusa10detections14field_data_map5tests34test_build_field_data_map_invalid10B9_
FN:259,_RNCNvNtNtNtCsh5cigu73tlT_8hayabusa10detections14field_data_map5tests31test_build_field_data_map_valid0B9_
FN:180,_RNCNvNtNtNtCsh5cigu73tlT_8hayabusa10detections14field_data_map5tests35test_convert_field_data_empty_data10B9_
FN:215,_RNCNvNtNtNtCsh5cigu73tlT_8hayabusa10detections14field_data_map5tests34test_build_field_data_map_invalid00B9_
FN:260,_RNvNtNtNtCsh5cigu73tlT_8hayabusa10detections14field_data_map5testss_31test_build_field_data_map_valid
FN:294,_RNvNtNtNtCsh5cigu73tlT_8hayabusa10detections14field_data_map5testss_26test_create_field_data_map
FN:216,_RNvNtNtNtCsh5cigu73tlT_8hayabusa10detections14field_data_map5testss_34test_build_field_data_map_invalid0
FN:300,_RNvNtNtNtCsh5cigu73tlT_8hayabusa10detections14field_data_map5testss_43test_create_recordinfos_with_field_data_map
FN:225,_RNvNtNtNtCsh5cigu73tlT_8hayabusa10detections14field_data_map5testss_34test_build_field_data_map_invalid1
FN:175,_RNvNtNtNtCsh5cigu73tlT_8hayabusa10detections14field_data_map5testss_35test_load_yaml_files_not_exists_dir
FN:166,_RNvNtNtNtCsh5cigu73tlT_8hayabusa10detections14field_data_map5tests10build_yaml
FN:181,_RNvNtNtNtCsh5cigu73tlT_8hayabusa10detections14field_data_map5testss_35test_convert_field_data_empty_data1
FN:174,_RNCNvNtNtNtCsh5cigu73tlT_8hayabusa10detections14field_data_map5tests35test_load_yaml_files_not_exists_dir0B9_
FN:236,_RNvNtNtNtCsh5cigu73tlT_8hayabusa10detections14field_data_map5testss_34test_build_field_data_map_invalid2
FN:247,_RNCNvNtNtNtCsh5cigu73tlT_8hayabusa10detections14field_data_map5tests34test_build_field_data_map_invalid30B9_
FN:299,_RNCNvNtNtNtCsh5cigu73tlT_8hayabusa10detections14field_data_map5tests43test_create_recordinfos_with_field_data_map0B9_
FN:248,_RNvNtNtNtCsh5cigu73tlT_8hayabusa10detections14field_data_map5testss_34test_build_field_data_map_invalid3
FN:187,_RNvNtNtNtCsh5cigu73tlT_8hayabusa10detections14field_data_map5testss_35test_convert_field_data_empty_data2
FN:198,_RNCNvNtNtNtCsh5cigu73tlT_8hayabusa10detections14field_data_map5tests23test_convert_field_data0B9_
FN:235,_RNCNvNtNtNtCsh5cigu73tlT_8hayabusa10detections14field_data_map5tests34test_build_field_data_map_invalid20B9_
FN:293,_RNCNvNtNtNtCsh5cigu73tlT_8hayabusa10detections14field_data_map5tests26test_create_field_data_map0B9_
FN:199,_RNvNtNtNtCsh5cigu73tlT_8hayabusa10detections14field_data_map5testss_23test_convert_field_data
FN:14,_RNvXs_NtNtCsh5cigu73tlT_8hayabusa10detections14field_data_mapNtB4_18FieldDataConverterNtNtCsjwgglklCTGv_4core3fmt5Debug3fmt
FN:14,_RNvXs0_NtNtCsk6AfKij8NQT_8hayabusa10detections14field_data_mapNtB5_18FieldDataConverterNtNtCsjwgglklCTGv_4core5clone5Clone5cloneCs7Hls9FlRdLI_8hayabusa
FN:20,_RNvXs8_NtNtCsk6AfKij8NQT_8hayabusa10detections14field_data_mapNtB5_15FieldDataMapKeyNtNtCsjwgglklCTGv_4core5clone5Clone5cloneCs7Hls9FlRdLI_8hayabusa
FN:50,_RNCNvNtNtCsk6AfKij8NQT_8hayabusa10detections14field_data_map20build_field_data_map0B7_
FN:20,_RNvXs6_NtNtCsk6AfKij8NQT_8hayabusa10detections14field_data_mapNtB5_15FieldDataMapKeyNtNtCsjwgglklCTGv_4core3cmp9PartialEq2eqB9_
FN:132,_RNCNvNtNtCsk6AfKij8NQT_8hayabusa10detections14field_data_map15load_yaml_filess1_0B7_
FN:120,_RNvNtNtCsk6AfKij8NQT_8hayabusa10detections14field_data_map15load_yaml_files
FN:14,_RNvXs_NtNtCsk6AfKij8NQT_8hayabusa10detections14field_data_mapNtB4_18FieldDataConverterNtNtCsjwgglklCTGv_4core3fmt5Debug3fmt
FN:131,_RNCNvNtNtCsk6AfKij8NQT_8hayabusa10detections14field_data_map15load_yaml_filess0_0B7_
FN:129,_RNCNvNtNtCsk6AfKij8NQT_8hayabusa10detections14field_data_map15load_yaml_files0B7_
FN:45,_RNvNtNtCsk6AfKij8NQT_8hayabusa10detections14field_data_map20build_field_data_map
FN:27,_RNvMNtNtCsk6AfKij8NQT_8hayabusa10detections14field_data_mapNtB2_15FieldDataMapKey3new
FN:20,_RINvXs4_NtNtCsk6AfKij8NQT_8hayabusa10detections14field_data_mapNtB6_15FieldDataMapKeyNtNtCsjwgglklCTGv_4core4hash4Hash4hashNtNtCs31qbJ4OwyK5_5ahash13fallback_hash7AHasherEBa_
FN:96,_RNvNtNtCsk6AfKij8NQT_8hayabusa10detections14field_data_map18convert_field_data
FN:146,_RNvNtNtCsk6AfKij8NQT_8hayabusa10detections14field_data_map21create_field_data_map
FN:20,_RNvXs1_NtNtCsk6AfKij8NQT_8hayabusa10detections14field_data_mapNtB5_15FieldDataMapKeyNtNtCsjwgglklCTGv_4core3fmt5Debug3fmt
FN:20,_RNvXs7_NtNtCsk6AfKij8NQT_8hayabusa10detections14field_data_mapNtB5_15FieldDataMapKeyNtNtCsjwgglklCTGv_4core7default7Default7defaultB9_
FN:130,_RNCNvNtNtCsk6AfKij8NQT_8hayabusa10detections14field_data_map15load_yaml_filess_0B7_
FN:20,_RNvXs8_NtNtCsk6AfKij8NQT_8hayabusa10detections14field_data_mapNtB5_15FieldDataMapKeyNtNtCsjwgglklCTGv_4core5clone5Clone5cloneB9_
FN:14,_RNvXs0_NtNtCsk6AfKij8NQT_8hayabusa10detections14field_data_mapNtB5_18FieldDataConverterNtNtCsjwgglklCTGv_4core5clone5Clone5cloneB9_
FNDA:2538,_RNCNvNtNtCsh5cigu73tlT_8hayabusa10detections14field_data_map15load_yaml_filess1_0B7_
FNDA:57,_RNvXs0_NtNtCsh5cigu73tlT_8hayabusa10detections14field_data_mapNtB5_18FieldDataConverterNtNtCsjwgglklCTGv_4core5clone5Clone5cloneB9_
FNDA:21,_RNvXs8_NtNtCsh5cigu73tlT_8hayabusa10detections14field_data_mapNtB5_15FieldDataMapKeyNtNtCsjwgglklCTGv_4core5clone5Clone5cloneB9_
FNDA:424,_RNvNtNtCsh5cigu73tlT_8hayabusa10detections14field_data_map21create_field_data_map
FNDA:0,_RNvXs1_NtNtCsh5cigu73tlT_8hayabusa10detections14field_data_mapNtB5_15FieldDataMapKeyNtNtCsjwgglklCTGv_4core3fmt5Debug3fmt
FNDA:2760,_RNCNvNtNtCsh5cigu73tlT_8hayabusa10detections14field_data_map15load_yaml_filess_0B7_
FNDA:424,_RNCNvNtNtCsh5cigu73tlT_8hayabusa10detections14field_data_map20build_field_data_map0B7_
FNDA:2545,_RNvNtNtCsh5cigu73tlT_8hayabusa10detections14field_data_map20build_field_data_map
FNDA:2541,_RNvMNtNtCsh5cigu73tlT_8hayabusa10detections14field_data_mapNtB2_15FieldDataMapKey3new
FNDA:426,_RNvNtNtCsh5cigu73tlT_8hayabusa10detections14field_data_map15load_yaml_files
FNDA:25,_RNvNtNtCsh5cigu73tlT_8hayabusa10detections14field_data_map18convert_field_data
FNDA:2760,_RNCNvNtNtCsh5cigu73tlT_8hayabusa10detections14field_data_map15load_yaml_files0B7_
FNDA:2565,_RINvXs4_NtNtCsh5cigu73tlT_8hayabusa10detections14field_data_mapNtB6_15FieldDataMapKeyNtNtCsjwgglklCTGv_4core4hash4Hash4hashNtNtCs31qbJ4OwyK5_5ahash13fallback_hash7AHasherEBa_
FNDA:33,_RNvXs7_NtNtCsh5cigu73tlT_8hayabusa10detections14field_data_mapNtB5_15FieldDataMapKeyNtNtCsjwgglklCTGv_4core7default7Default7defaultB9_
FNDA:2538,_RNCNvNtNtCsh5cigu73tlT_8hayabusa10detections14field_data_map15load_yaml_filess0_0B7_
FNDA:13,_RNvXs6_NtNtCsh5cigu73tlT_8hayabusa10detections14field_data_mapNtB5_15FieldDataMapKeyNtNtCsjwgglklCTGv_4core3cmp9PartialEq2eqB9_
FNDA:1,_RNCNvNtNtNtCsh5cigu73tlT_8hayabusa10detections14field_data_map5tests35test_convert_field_data_empty_data20B9_
FNDA:1,_RNCNvNtNtNtCsh5cigu73tlT_8hayabusa10detections14field_data_map5tests34test_build_field_data_map_invalid10B9_
FNDA:1,_RNCNvNtNtNtCsh5cigu73tlT_8hayabusa10detections14field_data_map5tests31test_build_field_data_map_valid0B9_
FNDA:1,_RNCNvNtNtNtCsh5cigu73tlT_8hayabusa10detections14field_data_map5tests35test_convert_field_data_empty_data10B9_
FNDA:1,_RNCNvNtNtNtCsh5cigu73tlT_8hayabusa10detections14field_data_map5tests34test_build_field_data_map_invalid00B9_
FNDA:1,_RNvNtNtNtCsh5cigu73tlT_8hayabusa10detections14field_data_map5testss_31test_build_field_data_map_valid
FNDA:1,_RNvNtNtNtCsh5cigu73tlT_8hayabusa10detections14field_data_map5testss_26test_create_field_data_map
FNDA:1,_RNvNtNtNtCsh5cigu73tlT_8hayabusa10detections14field_data_map5testss_34test_build_field_data_map_invalid0
FNDA:1,_RNvNtNtNtCsh5cigu73tlT_8hayabusa10detections14field_data_map5testss_43test_create_recordinfos_with_field_data_map
FNDA:1,_RNvNtNtNtCsh5cigu73tlT_8hayabusa10detections14field_data_map5testss_34test_build_field_data_map_invalid1
FNDA:1,_RNvNtNtNtCsh5cigu73tlT_8hayabusa10detections14field_data_map5testss_35test_load_yaml_files_not_exists_dir
FNDA:7,_RNvNtNtNtCsh5cigu73tlT_8hayabusa10detections14field_data_map5tests10build_yaml
FNDA:1,_RNvNtNtNtCsh5cigu73tlT_8hayabusa10detections14field_data_map5testss_35test_convert_field_data_empty_data1
FNDA:1,_RNCNvNtNtNtCsh5cigu73tlT_8hayabusa10detections14field_data_map5tests35test_load_yaml_files_not_exists_dir0B9_
FNDA:1,_RNvNtNtNtCsh5cigu73tlT_8hayabusa10detections14field_data_map5testss_34test_build_field_data_map_invalid2
FNDA:1,_RNCNvNtNtNtCsh5cigu73tlT_8hayabusa10detections14field_data_map5tests34test_build_field_data_map_invalid30B9_
FNDA:1,_RNCNvNtNtNtCsh5cigu73tlT_8hayabusa10detections14field_data_map5tests43test_create_recordinfos_with_field_data_map0B9_
FNDA:1,_RNvNtNtNtCsh5cigu73tlT_8hayabusa10detections14field_data_map5testss_34test_build_field_data_map_invalid3
FNDA:1,_RNvNtNtNtCsh5cigu73tlT_8hayabusa10detections14field_data_map5testss_35test_convert_field_data_empty_data2
FNDA:1,_RNCNvNtNtNtCsh5cigu73tlT_8hayabusa10detections14field_data_map5tests23test_convert_field_data0B9_
FNDA:1,_RNCNvNtNtNtCsh5cigu73tlT_8hayabusa10detections14field_data_map5tests34test_build_field_data_map_invalid20B9_
FNDA:1,_RNCNvNtNtNtCsh5cigu73tlT_8hayabusa10detections14field_data_map5tests26test_create_field_data_map0B9_
FNDA:1,_RNvNtNtNtCsh5cigu73tlT_8hayabusa10detections14field_data_map5testss_23test_convert_field_data
FNDA:0,_RNvXs_NtNtCsh5cigu73tlT_8hayabusa10detections14field_data_mapNtB4_18FieldDataConverterNtNtCsjwgglklCTGv_4core3fmt5Debug3fmt
FNDA:342,_RNvXs0_NtNtCsk6AfKij8NQT_8hayabusa10detections14field_data_mapNtB5_18FieldDataConverterNtNtCsjwgglklCTGv_4core5clone5Clone5cloneCs7Hls9FlRdLI_8hayabusa
FNDA:108,_RNvXs8_NtNtCsk6AfKij8NQT_8hayabusa10detections14field_data_mapNtB5_15FieldDataMapKeyNtNtCsjwgglklCTGv_4core5clone5Clone5cloneCs7Hls9FlRdLI_8hayabusa
FNDA:16,_RNCNvNtNtCsk6AfKij8NQT_8hayabusa10detections14field_data_map20build_field_data_map0B7_
FNDA:0,_RNvXs6_NtNtCsk6AfKij8NQT_8hayabusa10detections14field_data_mapNtB5_15FieldDataMapKeyNtNtCsjwgglklCTGv_4core3cmp9PartialEq2eqB9_
FNDA:96,_RNCNvNtNtCsk6AfKij8NQT_8hayabusa10detections14field_data_map15load_yaml_filess1_0B7_
FNDA:16,_RNvNtNtCsk6AfKij8NQT_8hayabusa10detections14field_data_map15load_yaml_files
FNDA:0,_RNvXs_NtNtCsk6AfKij8NQT_8hayabusa10detections14field_data_mapNtB4_18FieldDataConverterNtNtCsjwgglklCTGv_4core3fmt5Debug3fmt
FNDA:96,_RNCNvNtNtCsk6AfKij8NQT_8hayabusa10detections14field_data_map15load_yaml_filess0_0B7_
FNDA:96,_RNCNvNtNtCsk6AfKij8NQT_8hayabusa10detections14field_data_map15load_yaml_files0B7_
FNDA:96,_RNvNtNtCsk6AfKij8NQT_8hayabusa10detections14field_data_map20build_field_data_map
FNDA:96,_RNvMNtNtCsk6AfKij8NQT_8hayabusa10detections14field_data_mapNtB2_15FieldDataMapKey3new
FNDA:310,_RINvXs4_NtNtCsk6AfKij8NQT_8hayabusa10detections14field_data_mapNtB6_15FieldDataMapKeyNtNtCsjwgglklCTGv_4core4hash4Hash4hashNtNtCs31qbJ4OwyK5_5ahash13fallback_hash7AHasherEBa_
FNDA:214,_RNvNtNtCsk6AfKij8NQT_8hayabusa10detections14field_data_map18convert_field_data
FNDA:16,_RNvNtNtCsk6AfKij8NQT_8hayabusa10detections14field_data_map21create_field_data_map
FNDA:0,_RNvXs1_NtNtCsk6AfKij8NQT_8hayabusa10detections14field_data_mapNtB5_15FieldDataMapKeyNtNtCsjwgglklCTGv_4core3fmt5Debug3fmt
FNDA:0,_RNvXs7_NtNtCsk6AfKij8NQT_8hayabusa10detections14field_data_mapNtB5_15FieldDataMapKeyNtNtCsjwgglklCTGv_4core7default7Default7defaultB9_
FNDA:96,_RNCNvNtNtCsk6AfKij8NQT_8hayabusa10detections14field_data_map15load_yaml_filess_0B7_
FNDA:0,_RNvXs8_NtNtCsk6AfKij8NQT_8hayabusa10detections14field_data_mapNtB5_15FieldDataMapKeyNtNtCsjwgglklCTGv_4core5clone5Clone5cloneB9_
FNDA:0,_RNvXs0_NtNtCsk6AfKij8NQT_8hayabusa10detections14field_data_mapNtB5_18FieldDataConverterNtNtCsjwgglklCTGv_4core5clone5Clone5cloneB9_
FNF:40
FNH:38
DA:14,399
DA:20,2875
DA:27,2637
DA:28,2637
DA:29,2637
DA:30,2637
DA:31,2637
DA:32,2637
DA:33,2637
DA:34,2637
DA:35,2637
DA:36,2637
DA:37,2637
DA:38,2637
DA:39,2637
DA:40,2637
DA:41,2637
DA:42,2637
DA:45,2641
DA:46,2641
DA:47,2641
DA:48,1317
DA:50,1324
DA:52,2641
DA:53,4
DA:54,2637
DA:55,2637
DA:56,2637
DA:57,6151
DA:58,6151
DA:59,6151
DA:60,6151
DA:61,0
DA:62,6151
DA:63,6151
DA:64,6151
DA:65,54007
DA:66,54007
DA:67,54007
DA:68,0
DA:69,54007
DA:70,54007
DA:71,54007
DA:72,54007
DA:73,54007
DA:75,6151
DA:76,6151
DA:77,0
DA:78,6151
DA:79,6151
DA:80,6151
DA:81,6151
DA:82,6151
DA:84,0
DA:86,2637
DA:87,3954
DA:88,2197
DA:89,2197
DA:90,2197
DA:92,880
DA:93,2637
DA:94,2641
DA:96,239
DA:97,239
DA:98,239
DA:99,239
DA:100,239
DA:101,239
DA:102,239
DA:103,230
DA:104,9
DA:105,4
DA:106,3
DA:107,3
DA:108,3
DA:109,3
DA:110,3
DA:112,2
DA:113,2
DA:114,0
DA:118,239
DA:120,442
DA:121,442
DA:122,442
DA:123,2
DA:124,2
DA:125,2
DA:126,440
DA:127,440
DA:128,440
DA:129,2856
DA:130,2856
DA:131,2634
DA:132,2634
DA:133,440
DA:134,440
DA:135,0
DA:136,0
DA:137,0
DA:138,0
DA:139,0
DA:140,0
DA:141,0
DA:144,442
DA:146,440
DA:147,440
DA:148,440
DA:149,439
DA:150,1
DA:152,440
DA:166,7
DA:167,7
DA:168,7
DA:169,7
DA:170,7
DA:171,7
DA:172,7
DA:174,1
DA:175,1
DA:176,1
DA:177,1
DA:178,1
DA:180,1
DA:181,1
DA:182,1
DA:183,1
DA:184,1
DA:186,1
DA:187,1
DA:188,1
DA:189,1
DA:190,1
DA:191,1
DA:192,1
DA:193,1
DA:194,1
DA:195,1
DA:196,1
DA:198,1
DA:199,1
DA:200,1
DA:201,1
DA:202,1
DA:203,1
DA:204,1
DA:205,1
DA:206,1
DA:207,1
DA:208,1
DA:209,1
DA:210,1
DA:211,1
DA:212,1
DA:213,1
DA:215,1
DA:216,1
DA:217,1
DA:218,1
DA:219,1
DA:220,1
DA:221,1
DA:222,1
DA:224,1
DA:225,1
DA:226,1
DA:227,1
DA:228,1
DA:229,1
DA:230,1
DA:231,1
DA:232,1
DA:233,1
DA:235,1
DA:236,1
DA:237,1
DA:238,1
DA:239,1
DA:240,1
DA:241,1
DA:242,1
DA:243,1
DA:244,1
DA:245,1
DA:247,1
DA:248,1
DA:249,1
DA:250,1
DA:251,1
DA:252,1
DA:253,1
DA:254,1
DA:255,1
DA:256,1
DA:257,1
DA:259,1
DA:260,1
DA:261,1
DA:262,1
DA:263,1
DA:264,1
DA:265,1
DA:266,1
DA:267,1
DA:268,1
DA:269,1
DA:270,1
DA:271,1
DA:272,1
DA:273,1
DA:274,1
DA:275,0
DA:276,1
DA:277,1
DA:278,1
DA:279,1
DA:282,1
DA:283,0
DA:284,1
DA:285,1
DA:286,1
DA:287,1
DA:288,1
DA:291,1
DA:293,1
DA:294,1
DA:295,1
DA:296,1
DA:297,1
DA:299,1
DA:300,1
DA:301,1
DA:302,1
DA:303,1
DA:304,1
DA:305,1
DA:306,1
DA:307,1
DA:308,1
DA:309,1
DA:310,1
DA:311,1
DA:312,1
DA:313,1
DA:314,1
DA:315,1
DA:316,1
DA:317,1
DA:318,1
DA:319,1
DA:320,1
DA:321,1
DA:322,1
DA:323,1
DA:324,1
DA:325,1
DA:326,1
DA:327,1
DA:328,1
DA:329,1
DA:330,1
DA:331,1
DA:332,1
DA:333,1
DA:334,1
DA:335,1
DA:336,1
DA:339,0
DA:342,1
BRF:0
BRH:0
LF:278
LH:261
end_of_record
SF:C:\Users\nexts\opensource\hayabusa\src\detections\message.rs
FN:28,_RNvXs0_NtNtCsh5cigu73tlT_8hayabusa10detections7messageNtB5_10DetectInfoNtNtCsjwgglklCTGv_4core5clone5Clone5cloneB9_
FN:144,_RNCNCNvNtNtCsh5cigu73tlT_8hayabusa10detections7message6insert00B9_
FN:113,_RNvNtNtCsh5cigu73tlT_8hayabusa10detections7message6insert
FN:28,_RNvXs_NtNtCsh5cigu73tlT_8hayabusa10detections7messageNtB4_10DetectInfoNtNtCsjwgglklCTGv_4core3fmt5Debug3fmt
FN:105,_RNvNtNtCsh5cigu73tlT_8hayabusa10detections7message14insert_message
FN:477,_RNvMNtNtCsh5cigu73tlT_8hayabusa10detections7messageNtB2_12AlertMessage4warn
FN:154,_RNCNvNtNtCsh5cigu73tlT_8hayabusa10detections7message6inserts_0B7_
FN:76,_RNvNtNtCsh5cigu73tlT_8hayabusa10detections7message27create_output_filter_config
FN:174,_RNCNvNtNtCsh5cigu73tlT_8hayabusa10detections7message6inserts0_0B7_
FN:356,_RNCNvNtNtCsh5cigu73tlT_8hayabusa10detections7message13parse_message0B7_
FN:86,_RNCNvNtNtCsh5cigu73tlT_8hayabusa10detections7message27create_output_filter_config0B7_
FN:186,_RNCNvNtNtCsh5cigu73tlT_8hayabusa10detections7message6inserts1_0B7_
FN:138,_RNCNvNtNtCsh5cigu73tlT_8hayabusa10detections7message6insert0B7_
FN:422,_RNvNtNtCsh5cigu73tlT_8hayabusa10detections7message14get_event_time
FN:415,_RNvNtNtCsh5cigu73tlT_8hayabusa10detections7message3get
FN:246,_RNCNvNtNtCsh5cigu73tlT_8hayabusa10detections7message6inserts2_0B7_
FN:322,_RNvNtNtCsh5cigu73tlT_8hayabusa10detections7message13parse_message
FN:280,_RNCNvNtNtCsh5cigu73tlT_8hayabusa10detections7message6inserts4_0B7_
FN:276,_RNCNvNtNtCsh5cigu73tlT_8hayabusa10detections7message6inserts3_0B7_
FN:467,_RNvMNtNtCsh5cigu73tlT_8hayabusa10detections7messageNtB2_12AlertMessage5alert
FN:45,_RNvXsc_NtNtCsh5cigu73tlT_8hayabusa10detections7messageNtB5_8MESSAGESNtNtCsjwgglklCTGv_4core3cmp10PartialOrd11partial_cmpB9_
FN:28,_RNvXs2_NtNtCsh5cigu73tlT_8hayabusa10detections7messageNtB5_10DetectInfoNtNtCsjwgglklCTGv_4core3cmp9PartialEq2eqB9_
FN:459,_RNCNvMNtNtCsh5cigu73tlT_8hayabusa10detections7messageNtB4_12AlertMessage16create_error_log0B8_
FN:45,_RNvXsb_NtNtCsh5cigu73tlT_8hayabusa10detections7messageNtB5_8MESSAGESNtNtCsjwgglklCTGv_4core3cmp3Ord3cmpB9_
FN:433,_RNvMNtNtCsh5cigu73tlT_8hayabusa10detections7messageNtB2_12AlertMessage16create_error_log
FN:45,_RNvXs8_NtNtCsh5cigu73tlT_8hayabusa10detections7messageNtB5_8MESSAGESNtNtCsjwgglklCTGv_4core3cmp9PartialEq2eqB9_
FN:28,_RNvXs5_NtNtCsh5cigu73tlT_8hayabusa10detections7messageNtB5_10DetectInfoNtNtCsjwgglklCTGv_4core7default7Default7defaultB9_
FN:45,_RNvXs6_NtNtCsh5cigu73tlT_8hayabusa10detections7messageNtB5_8MESSAGESNtNtCsjwgglklCTGv_4core3fmt5Debug3fmt
FN:849,_RNvNtNtNtCsh5cigu73tlT_8hayabusa10detections7message5testss_20__get_default_defails
FN:833,_RNCNvNtNtNtCsh5cigu73tlT_8hayabusa10detections7message5tests22test_load_abbrevations0B9_
FN:730,_RNvNtNtNtCsh5cigu73tlT_8hayabusa10detections7message5testss_49test_parse_message_multiple_with_suffix_in_record
FN:560,_RNCNvNtNtNtCsh5cigu73tlT_8hayabusa10detections7message5tests30test_parse_message_auto_search0B9_
FN:681,_RNCNvNtNtNtCsh5cigu73tlT_8hayabusa10detections7message5tests47test_parse_message_multiple_no_suffix_in_record0B9_
FN:822,_RNCNvNtNtNtCsh5cigu73tlT_8hayabusa10detections7message5tests27test_load_mitre_tactics_log0B9_
FN:870,_RNCNvNtNtNtCsh5cigu73tlT_8hayabusa10detections7message5tests34test_insert_message_race_condition0B9_
FN:561,_RNvNtNtNtCsh5cigu73tlT_8hayabusa10detections7message5testss_30test_parse_message_auto_search
FN:860,_RNvNtNtNtCsh5cigu73tlT_8hayabusa10detections7message5tests22__check_hashmap_element
FN:516,_RNCNvNtNtNtCsh5cigu73tlT_8hayabusa10detections7message5tests18test_parse_message0B9_
FN:639,_RNCNvNtNtNtCsh5cigu73tlT_8hayabusa10detections7message5tests44test_parse_message_not_exist_value_in_record0B9_
FN:871,_RNvNtNtNtCsh5cigu73tlT_8hayabusa10detections7message5testss_34test_insert_message_race_condition
FN:510,_RNCNvNtNtNtCsh5cigu73tlT_8hayabusa10detections7message5tests17test_warn_message0B9_
FN:777,_RNvNtNtNtCsh5cigu73tlT_8hayabusa10detections7message5testss_46test_parse_message_multiple_no_exist_in_record
FN:824,_RNvNtNtNtCsh5cigu73tlT_8hayabusa10detections7message5testss_27test_load_mitre_tactics_log
FN:599,_RNvNtNtNtCsh5cigu73tlT_8hayabusa10detections7message5testss_42test_parse_message_not_exist_key_in_output
FN:835,_RNvNtNtNtCsh5cigu73tlT_8hayabusa10detections7message5testss_22test_load_abbrevations
FN:775,_RNCNvNtNtNtCsh5cigu73tlT_8hayabusa10detections7message5tests46test_parse_message_multiple_no_exist_in_record0B9_
FN:848,_RNCNvNtNtNtCsh5cigu73tlT_8hayabusa10detections7message5tests20__get_default_defails0B9_
FN:641,_RNvNtNtNtCsh5cigu73tlT_8hayabusa10detections7message5testss_44test_parse_message_not_exist_value_in_record
FN:505,_RNvNtNtNtCsh5cigu73tlT_8hayabusa10detections7message5testss_18test_error_message
FN:597,_RNCNvNtNtNtCsh5cigu73tlT_8hayabusa10detections7message5tests42test_parse_message_not_exist_key_in_output0B9_
FN:683,_RNvNtNtNtCsh5cigu73tlT_8hayabusa10detections7message5testss_47test_parse_message_multiple_no_suffix_in_record
FN:728,_RNCNvNtNtNtCsh5cigu73tlT_8hayabusa10detections7message5tests49test_parse_message_multiple_with_suffix_in_record0B9_
FN:511,_RNvNtNtNtCsh5cigu73tlT_8hayabusa10detections7message5testss_17test_warn_message
FN:897,_RNCNvNtNtNtCsh5cigu73tlT_8hayabusa10detections7message5testss_34test_insert_message_race_condition0B9_
FN:518,_RNvNtNtNtCsh5cigu73tlT_8hayabusa10detections7message5testss_18test_parse_message
FN:504,_RNCNvNtNtNtCsh5cigu73tlT_8hayabusa10detections7message5tests18test_error_message0B9_
FN:154,_RNCNvNtNtCsk6AfKij8NQT_8hayabusa10detections7message6inserts_0B7_
FN:76,_RNvNtNtCsk6AfKij8NQT_8hayabusa10detections7message27create_output_filter_config
FN:246,_RNCNvNtNtCsk6AfKij8NQT_8hayabusa10detections7message6inserts2_0B7_
FN:356,_RNCNvNtNtCsk6AfKij8NQT_8hayabusa10detections7message13parse_message0B7_
FN:86,_RNCNvNtNtCsk6AfKij8NQT_8hayabusa10detections7message27create_output_filter_config0B7_
FN:459,_RNCNvMNtNtCsk6AfKij8NQT_8hayabusa10detections7messageNtB4_12AlertMessage16create_error_log0B8_
FN:28,_RNvXs_NtNtCsk6AfKij8NQT_8hayabusa10detections7messageNtB4_10DetectInfoNtNtCsjwgglklCTGv_4core3fmt5Debug3fmt
FN:186,_RNCNvNtNtCsk6AfKij8NQT_8hayabusa10detections7message6inserts1_0B7_
FN:280,_RNCNvNtNtCsk6AfKij8NQT_8hayabusa10detections7message6inserts4_0B7_
FN:138,_RNCNvNtNtCsk6AfKij8NQT_8hayabusa10detections7message6insert0B7_
FN:45,_RNvXs6_NtNtCsk6AfKij8NQT_8hayabusa10detections7messageNtB5_8MESSAGESNtNtCsjwgglklCTGv_4core3fmt5Debug3fmt
FN:113,_RNvNtNtCsk6AfKij8NQT_8hayabusa10detections7message6insert
FN:422,_RNvNtNtCsk6AfKij8NQT_8hayabusa10detections7message14get_event_time
FN:28,_RNvXs0_NtNtCsk6AfKij8NQT_8hayabusa10detections7messageNtB5_10DetectInfoNtNtCsjwgglklCTGv_4core5clone5Clone5cloneB9_
FN:105,_RNvNtNtCsk6AfKij8NQT_8hayabusa10detections7message14insert_message
FN:415,_RNvNtNtCsk6AfKij8NQT_8hayabusa10detections7message3get
FN:477,_RNvMNtNtCsk6AfKij8NQT_8hayabusa10detections7messageNtB2_12AlertMessage4warn
FN:174,_RNCNvNtNtCsk6AfKij8NQT_8hayabusa10detections7message6inserts0_0B7_
FN:467,_RNvMNtNtCsk6AfKij8NQT_8hayabusa10detections7messageNtB2_12AlertMessage5alert
FN:322,_RNvNtNtCsk6AfKij8NQT_8hayabusa10detections7message13parse_message
FN:433,_RNvMNtNtCsk6AfKij8NQT_8hayabusa10detections7messageNtB2_12AlertMessage16create_error_log
FN:144,_RNCNCNvNtNtCsk6AfKij8NQT_8hayabusa10detections7message6insert00B9_
FN:276,_RNCNvNtNtCsk6AfKij8NQT_8hayabusa10detections7message6inserts3_0B7_
FN:45,_RNvXs8_NtNtCsk6AfKij8NQT_8hayabusa10detections7messageNtB5_8MESSAGESNtNtCsjwgglklCTGv_4core3cmp9PartialEq2eqB9_
FN:45,_RNvXsb_NtNtCsk6AfKij8NQT_8hayabusa10detections7messageNtB5_8MESSAGESNtNtCsjwgglklCTGv_4core3cmp3Ord3cmpB9_
FN:28,_RNvXs5_NtNtCsk6AfKij8NQT_8hayabusa10detections7messageNtB5_10DetectInfoNtNtCsjwgglklCTGv_4core7default7Default7defaultB9_
FN:45,_RNvXsc_NtNtCsk6AfKij8NQT_8hayabusa10detections7messageNtB5_8MESSAGESNtNtCsjwgglklCTGv_4core3cmp10PartialOrd11partial_cmpB9_
FN:28,_RNvXs2_NtNtCsk6AfKij8NQT_8hayabusa10detections7messageNtB5_10DetectInfoNtNtCsjwgglklCTGv_4core3cmp9PartialEq2eqB9_
FNDA:2000,_RNvXs0_NtNtCsh5cigu73tlT_8hayabusa10detections7messageNtB5_10DetectInfoNtNtCsjwgglklCTGv_4core5clone5Clone5cloneB9_
FNDA:414,_RNCNCNvNtNtCsh5cigu73tlT_8hayabusa10detections7message6insert00B9_
FNDA:14,_RNvNtNtCsh5cigu73tlT_8hayabusa10detections7message6insert
FNDA:8,_RNvXs_NtNtCsh5cigu73tlT_8hayabusa10detections7messageNtB4_10DetectInfoNtNtCsjwgglklCTGv_4core3fmt5Debug3fmt
FNDA:2014,_RNvNtNtCsh5cigu73tlT_8hayabusa10detections7message14insert_message
FNDA:3,_RNvMNtNtCsh5cigu73tlT_8hayabusa10detections7messageNtB2_12AlertMessage4warn
FNDA:5,_RNCNvNtNtCsh5cigu73tlT_8hayabusa10detections7message6inserts_0B7_
FNDA:1279,_RNvNtNtCsh5cigu73tlT_8hayabusa10detections7message27create_output_filter_config
FNDA:108,_RNCNvNtNtCsh5cigu73tlT_8hayabusa10detections7message6inserts0_0B7_
FNDA:2,_RNCNvNtNtCsh5cigu73tlT_8hayabusa10detections7message13parse_message0B7_
FNDA:37679,_RNCNvNtNtCsh5cigu73tlT_8hayabusa10detections7message27create_output_filter_config0B7_
FNDA:22,_RNCNvNtNtCsh5cigu73tlT_8hayabusa10detections7message6inserts1_0B7_
FNDA:19,_RNCNvNtNtCsh5cigu73tlT_8hayabusa10detections7message6insert0B7_
FNDA:119,_RNvNtNtCsh5cigu73tlT_8hayabusa10detections7message14get_event_time
FNDA:1,_RNvNtNtCsh5cigu73tlT_8hayabusa10detections7message3get
FNDA:10,_RNCNvNtNtCsh5cigu73tlT_8hayabusa10detections7message6inserts2_0B7_
FNDA:157,_RNvNtNtCsh5cigu73tlT_8hayabusa10detections7message13parse_message
FNDA:13,_RNCNvNtNtCsh5cigu73tlT_8hayabusa10detections7message6inserts4_0B7_
FNDA:15,_RNCNvNtNtCsh5cigu73tlT_8hayabusa10detections7message6inserts3_0B7_
FNDA:8,_RNvMNtNtCsh5cigu73tlT_8hayabusa10detections7messageNtB2_12AlertMessage5alert
FNDA:0,_RNvXsc_NtNtCsh5cigu73tlT_8hayabusa10detections7messageNtB5_8MESSAGESNtNtCsjwgglklCTGv_4core3cmp10PartialOrd11partial_cmpB9_
FNDA:0,_RNvXs2_NtNtCsh5cigu73tlT_8hayabusa10detections7messageNtB5_10DetectInfoNtNtCsjwgglklCTGv_4core3cmp9PartialEq2eqB9_
FNDA:0,_RNCNvMNtNtCsh5cigu73tlT_8hayabusa10detections7messageNtB4_12AlertMessage16create_error_log0B8_
FNDA:0,_RNvXsb_NtNtCsh5cigu73tlT_8hayabusa10detections7messageNtB5_8MESSAGESNtNtCsjwgglklCTGv_4core3cmp3Ord3cmpB9_
FNDA:0,_RNvMNtNtCsh5cigu73tlT_8hayabusa10detections7messageNtB2_12AlertMessage16create_error_log
FNDA:0,_RNvXs8_NtNtCsh5cigu73tlT_8hayabusa10detections7messageNtB5_8MESSAGESNtNtCsjwgglklCTGv_4core3cmp9PartialEq2eqB9_
FNDA:0,_RNvXs5_NtNtCsh5cigu73tlT_8hayabusa10detections7messageNtB5_10DetectInfoNtNtCsjwgglklCTGv_4core7default7Default7defaultB9_
FNDA:0,_RNvXs6_NtNtCsh5cigu73tlT_8hayabusa10detections7messageNtB5_8MESSAGESNtNtCsjwgglklCTGv_4core3fmt5Debug3fmt
FNDA:1,_RNvNtNtNtCsh5cigu73tlT_8hayabusa10detections7message5testss_20__get_default_defails
FNDA:1,_RNCNvNtNtNtCsh5cigu73tlT_8hayabusa10detections7message5tests22test_load_abbrevations0B9_
FNDA:1,_RNvNtNtNtCsh5cigu73tlT_8hayabusa10detections7message5testss_49test_parse_message_multiple_with_suffix_in_record
FNDA:1,_RNCNvNtNtNtCsh5cigu73tlT_8hayabusa10detections7message5tests30test_parse_message_auto_search0B9_
FNDA:1,_RNCNvNtNtNtCsh5cigu73tlT_8hayabusa10detections7message5tests47test_parse_message_multiple_no_suffix_in_record0B9_
FNDA:1,_RNCNvNtNtNtCsh5cigu73tlT_8hayabusa10detections7message5tests27test_load_mitre_tactics_log0B9_
FNDA:1,_RNCNvNtNtNtCsh5cigu73tlT_8hayabusa10detections7message5tests34test_insert_message_race_condition0B9_
FNDA:1,_RNvNtNtNtCsh5cigu73tlT_8hayabusa10detections7message5testss_30test_parse_message_auto_search
FNDA:4,_RNvNtNtNtCsh5cigu73tlT_8hayabusa10detections7message5tests22__check_hashmap_element
FNDA:1,_RNCNvNtNtNtCsh5cigu73tlT_8hayabusa10detections7message5tests18test_parse_message0B9_
FNDA:1,_RNCNvNtNtNtCsh5cigu73tlT_8hayabusa10detections7message5tests44test_parse_message_not_exist_value_in_record0B9_
FNDA:1,_RNvNtNtNtCsh5cigu73tlT_8hayabusa10detections7message5testss_34test_insert_message_race_condition
FNDA:1,_RNCNvNtNtNtCsh5cigu73tlT_8hayabusa10detections7message5tests17test_warn_message0B9_
FNDA:1,_RNvNtNtNtCsh5cigu73tlT_8hayabusa10detections7message5testss_46test_parse_message_multiple_no_exist_in_record
FNDA:1,_RNvNtNtNtCsh5cigu73tlT_8hayabusa10detections7message5testss_27test_load_mitre_tactics_log
FNDA:1,_RNvNtNtNtCsh5cigu73tlT_8hayabusa10detections7message5testss_42test_parse_message_not_exist_key_in_output
FNDA:1,_RNvNtNtNtCsh5cigu73tlT_8hayabusa10detections7message5testss_22test_load_abbrevations
FNDA:1,_RNCNvNtNtNtCsh5cigu73tlT_8hayabusa10detections7message5tests46test_parse_message_multiple_no_exist_in_record0B9_
FNDA:1,_RNCNvNtNtNtCsh5cigu73tlT_8hayabusa10detections7message5tests20__get_default_defails0B9_
FNDA:1,_RNvNtNtNtCsh5cigu73tlT_8hayabusa10detections7message5testss_44test_parse_message_not_exist_value_in_record
FNDA:1,_RNvNtNtNtCsh5cigu73tlT_8hayabusa10detections7message5testss_18test_error_message
FNDA:1,_RNCNvNtNtNtCsh5cigu73tlT_8hayabusa10detections7message5tests42test_parse_message_not_exist_key_in_output0B9_
FNDA:1,_RNvNtNtNtCsh5cigu73tlT_8hayabusa10detections7message5testss_47test_parse_message_multiple_no_suffix_in_record
FNDA:1,_RNCNvNtNtNtCsh5cigu73tlT_8hayabusa10detections7message5tests49test_parse_message_multiple_with_suffix_in_record0B9_
FNDA:1,_RNvNtNtNtCsh5cigu73tlT_8hayabusa10detections7message5testss_17test_warn_message
FNDA:2000,_RNCNvNtNtNtCsh5cigu73tlT_8hayabusa10detections7message5testss_34test_insert_message_race_condition0B9_
FNDA:1,_RNvNtNtNtCsh5cigu73tlT_8hayabusa10detections7message5testss_18test_parse_message
FNDA:1,_RNCNvNtNtNtCsh5cigu73tlT_8hayabusa10detections7message5tests18test_error_message0B9_
FNDA:18,_RNCNvNtNtCsk6AfKij8NQT_8hayabusa10detections7message6inserts_0B7_
FNDA:49,_RNvNtNtCsk6AfKij8NQT_8hayabusa10detections7message27create_output_filter_config
FNDA:18,_RNCNvNtNtCsk6AfKij8NQT_8hayabusa10detections7message6inserts2_0B7_
FNDA:0,_RNCNvNtNtCsk6AfKij8NQT_8hayabusa10detections7message13parse_message0B7_
FNDA:1438,_RNCNvNtNtCsk6AfKij8NQT_8hayabusa10detections7message27create_output_filter_config0B7_
FNDA:0,_RNCNvMNtNtCsk6AfKij8NQT_8hayabusa10detections7messageNtB4_12AlertMessage16create_error_log0B8_
FNDA:0,_RNvXs_NtNtCsk6AfKij8NQT_8hayabusa10detections7messageNtB4_10DetectInfoNtNtCsjwgglklCTGv_4core3fmt5Debug3fmt
FNDA:21,_RNCNvNtNtCsk6AfKij8NQT_8hayabusa10detections7message6inserts1_0B7_
FNDA:184,_RNCNvNtNtCsk6AfKij8NQT_8hayabusa10detections7message6inserts4_0B7_
FNDA:23,_RNCNvNtNtCsk6AfKij8NQT_8hayabusa10detections7message6insert0B7_
FNDA:0,_RNvXs6_NtNtCsk6AfKij8NQT_8hayabusa10detections7messageNtB5_8MESSAGESNtNtCsjwgglklCTGv_4core3fmt5Debug3fmt
FNDA:5,_RNvNtNtCsk6AfKij8NQT_8hayabusa10detections7message6insert
FNDA:5,_RNvNtNtCsk6AfKij8NQT_8hayabusa10detections7message14get_event_time
FNDA:0,_RNvXs0_NtNtCsk6AfKij8NQT_8hayabusa10detections7messageNtB5_10DetectInfoNtNtCsjwgglklCTGv_4core5clone5Clone5cloneB9_
FNDA:5,_RNvNtNtCsk6AfKij8NQT_8hayabusa10detections7message14insert_message
FNDA:0,_RNvNtNtCsk6AfKij8NQT_8hayabusa10detections7message3get
FNDA:0,_RNvMNtNtCsk6AfKij8NQT_8hayabusa10detections7messageNtB2_12AlertMessage4warn
FNDA:35,_RNCNvNtNtCsk6AfKij8NQT_8hayabusa10detections7message6inserts0_0B7_
FNDA:5,_RNvMNtNtCsk6AfKij8NQT_8hayabusa10detections7messageNtB2_12AlertMessage5alert
FNDA:40,_RNvNtNtCsk6AfKij8NQT_8hayabusa10detections7message13parse_message
FNDA:0,_RNvMNtNtCsk6AfKij8NQT_8hayabusa10detections7messageNtB2_12AlertMessage16create_error_log
FNDA:1000,_RNCNCNvNtNtCsk6AfKij8NQT_8hayabusa10detections7message6insert00B9_
FNDA:200,_RNCNvNtNtCsk6AfKij8NQT_8hayabusa10detections7message6inserts3_0B7_
FNDA:0,_RNvXs8_NtNtCsk6AfKij8NQT_8hayabusa10detections7messageNtB5_8MESSAGESNtNtCsjwgglklCTGv_4core3cmp9PartialEq2eqB9_
FNDA:0,_RNvXsb_NtNtCsk6AfKij8NQT_8hayabusa10detections7messageNtB5_8MESSAGESNtNtCsjwgglklCTGv_4core3cmp3Ord3cmpB9_
FNDA:0,_RNvXs5_NtNtCsk6AfKij8NQT_8hayabusa10detections7messageNtB5_10DetectInfoNtNtCsjwgglklCTGv_4core7default7Default7defaultB9_
FNDA:0,_RNvXsc_NtNtCsk6AfKij8NQT_8hayabusa10detections7messageNtB5_8MESSAGESNtNtCsjwgglklCTGv_4core3cmp10PartialOrd11partial_cmpB9_
FNDA:0,_RNvXs2_NtNtCsk6AfKij8NQT_8hayabusa10detections7messageNtB5_10DetectInfoNtNtCsjwgglklCTGv_4core3cmp9PartialEq2eqB9_
FNF:56
FNH:48
DA:28,2000
DA:45,0
DA:76,1328
DA:77,1328
DA:78,1328
DA:79,1328
DA:80,1328
DA:81,1328
DA:82,1328
DA:83,0
DA:84,0
DA:85,1328
DA:86,39117
DA:87,39117
DA:88,0
DA:89,39117
DA:91,39117
DA:92,19801
DA:94,19316
DA:96,39117
DA:97,39117
DA:98,39117
DA:99,39117
DA:100,39117
DA:101,1328
DA:102,1328
DA:105,2019
DA:106,2019
DA:107,2019
DA:108,2019
DA:109,2019
DA:110,2019
DA:113,19
DA:114,19
DA:115,19
DA:116,19
DA:117,19
DA:118,19
DA:119,19
DA:120,19
DA:121,19
DA:122,19
DA:123,19
DA:124,19
DA:125,19
DA:126,19
DA:127,19
DA:129,19
DA:130,19
DA:131,19
DA:132,19
DA:133,19
DA:134,19
DA:135,19
DA:136,19
DA:137,19
DA:138,42
DA:139,42
DA:140,42
DA:141,42
DA:142,42
DA:143,42
DA:144,1414
DA:145,1414
DA:146,1414
DA:147,1414
DA:148,1414
DA:149,1414
DA:150,1414
DA:151,42
DA:152,42
DA:153,19
DA:154,23
DA:155,23
DA:156,23
DA:157,19
DA:158,19
DA:159,19
DA:160,19
DA:161,19
DA:162,0
DA:164,19
DA:166,0
DA:167,19
DA:168,231
DA:169,231
DA:172,19
DA:173,19
DA:174,143
DA:175,19
DA:176,0
DA:177,19
DA:178,19
DA:179,0
DA:180,0
DA:181,0
DA:182,19
DA:183,19
DA:184,19
DA:185,19
DA:186,43
DA:187,19
DA:188,19
DA:189,0
DA:190,0
DA:191,0
DA:192,0
DA:193,0
DA:194,0
DA:195,0
DA:196,0
DA:197,19
DA:199,19
DA:203,10
DA:204,0
DA:205,10
DA:207,0
DA:209,10
DA:210,10
DA:211,10
DA:212,0
DA:213,10
DA:214,6
DA:216,4
DA:218,10
DA:219,4
DA:220,4
DA:221,6
DA:222,6
DA:223,6
DA:226,0
DA:228,10
DA:229,0
DA:230,0
DA:231,0
DA:232,0
DA:233,0
DA:234,0
DA:235,0
DA:236,0
DA:237,10
DA:238,10
DA:239,10
DA:240,10
DA:241,10
DA:242,10
DA:243,10
DA:244,10
DA:245,10
DA:246,28
DA:247,10
DA:248,10
DA:249,10
DA:251,0
DA:253,10
DA:254,10
DA:255,10
DA:256,0
DA:257,10
DA:258,9
DA:260,1
DA:263,10
DA:264,0
DA:265,0
DA:266,0
DA:267,0
DA:268,0
DA:269,0
DA:270,0
DA:271,10
DA:272,10
DA:274,10
DA:275,10
DA:276,215
DA:277,215
DA:278,215
DA:279,215
DA:280,197
DA:281,10
DA:282,10
DA:283,10
DA:284,1
DA:285,1
DA:286,9
DA:287,0
DA:288,9
DA:289,9
DA:290,9
DA:291,9
DA:292,9
DA:293,9
DA:296,24
DA:297,24
DA:298,24
DA:299,24
DA:302,168
DA:303,168
DA:304,168
DA:305,168
DA:306,168
DA:307,168
DA:308,168
DA:309,168
DA:310,168
DA:311,168
DA:312,0
DA:316,19
DA:317,19
DA:318,19
DA:319,19
DA:322,197
DA:323,197
DA:324,197
DA:325,197
DA:326,197
DA:327,197
DA:328,197
DA:329,197
DA:330,197
DA:331,197
DA:332,197
DA:333,197
DA:334,38
DA:335,38
DA:336,38
DA:337,38
DA:338,38
DA:339,38
DA:340,38
DA:341,19
DA:343,19
DA:346,38
DA:347,38
DA:348,114
DA:349,114
DA:350,103
DA:351,103
DA:352,103
DA:354,38
DA:355,38
DA:356,2
DA:357,36
DA:359,38
DA:360,1
DA:361,1
DA:362,1
DA:363,1
DA:364,1
DA:365,37
DA:366,38
DA:367,38
DA:368,28
DA:369,28
DA:370,11
DA:372,17
DA:373,17
DA:374,17
DA:375,17
DA:376,17
DA:377,17
DA:378,17
DA:380,28
DA:381,7
DA:382,21
DA:383,21
DA:384,21
DA:385,21
DA:386,21
DA:387,21
DA:388,0
DA:389,10
DA:390,10
DA:391,10
DA:392,10
DA:393,10
DA:394,10
DA:396,197
DA:397,197
DA:399,38
DA:400,29
DA:401,29
DA:402,120
DA:403,120
DA:404,38
DA:405,38
DA:406,38
DA:407,82
DA:410,197
DA:411,197
DA:412,197
DA:415,1
DA:416,1
DA:417,1
DA:418,0
DA:420,1
DA:422,124
DA:423,124
DA:424,5
DA:426,119
DA:428,124
DA:429,124
DA:433,0
DA:434,0
DA:435,0
DA:436,0
DA:437,0
DA:438,0
DA:439,0
DA:440,0
DA:441,0
DA:442,0
DA:443,0
DA:444,0
DA:445,0
DA:446,0
DA:447,0
DA:448,0
DA:449,0
DA:450,0
DA:451,0
DA:452,0
DA:453,0
DA:454,0
DA:455,0
DA:456,0
DA:457,0
DA:458,0
DA:459,0
DA:460,0
DA:461,0
DA:462,0
DA:463,0
DA:464,0
DA:467,13
DA:468,13
DA:469,13
DA:470,13
DA:471,13
DA:472,13
DA:473,13
DA:474,13
DA:477,3
DA:478,3
DA:479,3
DA:480,3
DA:481,3
DA:482,3
DA:483,3
DA:484,3
DA:504,1
DA:505,1
DA:506,1
DA:507,1
DA:508,1
DA:510,1
DA:511,1
DA:512,1
DA:513,1
DA:514,1
DA:516,1
DA:518,1
DA:519,1
DA:520,1
DA:521,1
DA:522,1
DA:523,1
DA:524,1
DA:525,1
DA:526,1
DA:527,1
DA:528,1
DA:529,1
DA:530,1
DA:531,1
DA:532,1
DA:533,1
DA:534,1
DA:535,1
DA:536,1
DA:537,1
DA:538,1
DA:539,1
DA:540,1
DA:541,1
DA:542,1
DA:543,1
DA:544,1
DA:545,1
DA:546,1
DA:547,1
DA:548,1
DA:549,1
DA:550,1
DA:551,1
DA:552,1
DA:553,1
DA:554,1
DA:555,1
DA:556,1
DA:557,1
DA:558,1
DA:560,1
DA:561,1
DA:562,1
DA:563,1
DA:564,1
DA:565,1
DA:566,1
DA:567,1
DA:568,1
DA:569,1
DA:570,1
DA:571,1
DA:572,1
DA:573,1
DA:574,1
DA:575,1
DA:576,1
DA:577,1
DA:578,1
DA:579,1
DA:580,1
DA:581,1
DA:582,1
DA:583,1
DA:584,1
DA:585,1
DA:586,1
DA:587,1
DA:588,1
DA:589,1
DA:590,1
DA:591,1
DA:592,1
DA:593,1
DA:594,1
DA:595,1
DA:597,1
DA:599,1
DA:600,1
DA:601,1
DA:602,1
DA:603,1
DA:604,1
DA:605,1
DA:606,1
DA:607,1
DA:608,1
DA:609,1
DA:610,1
DA:611,1
DA:612,1
DA:613,1
DA:614,1
DA:615,1
DA:616,1
DA:617,1
DA:618,1
DA:619,1
DA:620,1
DA:621,1
DA:622,1
DA:623,1
DA:624,1
DA:625,1
DA:626,1
DA:627,1
DA:628,1
DA:629,1
DA:630,1
DA:631,1
DA:632,1
DA:633,1
DA:634,1
DA:635,1
DA:636,1
DA:637,1
DA:638,1
DA:639,1
DA:641,1
DA:642,1
DA:643,1
DA:644,1
DA:645,1
DA:646,1
DA:647,1
DA:648,1
DA:649,1
DA:650,1
DA:651,1
DA:652,1
DA:653,1
DA:654,1
DA:655,1
DA:656,1
DA:657,1
DA:658,1
DA:659,1
DA:660,1
DA:661,1
DA:662,1
DA:663,1
DA:664,1
DA:665,1
DA:666,1
DA:667,1
DA:668,1
DA:669,1
DA:670,1
DA:671,1
DA:672,1
DA:673,1
DA:674,1
DA:675,1
DA:676,1
DA:677,1
DA:678,1
DA:679,1
DA:680,1
DA:681,1
DA:683,1
DA:684,1
DA:685,1
DA:686,1
DA:687,1
DA:688,1
DA:689,1
DA:690,1
DA:691,1
DA:692,1
DA:693,1
DA:694,1
DA:695,1
DA:696,1
DA:697,1
DA:698,1
DA:699,1
DA:700,1
DA:701,1
DA:702,1
DA:703,1
DA:704,1
DA:705,1
DA:706,1
DA:707,1
DA:708,1
DA:709,1
DA:710,1
DA:711,1
DA:712,1
DA:713,1
DA:714,1
DA:715,1
DA:716,1
DA:717,1
DA:718,1
DA:719,1
DA:720,1
DA:721,1
DA:722,1
DA:723,1
DA:724,1
DA:725,1
DA:726,1
DA:727,1
DA:728,1
DA:730,1
DA:731,1
DA:732,1
DA:733,1
DA:734,1
DA:735,1
DA:736,1
DA:737,1
DA:738,1
DA:739,1
DA:740,1
DA:741,1
DA:742,1
DA:743,1
DA:744,1
DA:745,1
DA:746,1
DA:747,1
DA:748,1
DA:749,1
DA:750,1
DA:751,1
DA:752,1
DA:753,1
DA:754,1
DA:755,1
DA:756,1
DA:757,1
DA:758,1
DA:759,1
DA:760,1
DA:761,1
DA:762,1
DA:763,1
DA:764,1
DA:765,1
DA:766,1
DA:767,1
DA:768,1
DA:769,1
DA:770,1
DA:771,1
DA:772,1
DA:773,1
DA:774,1
DA:775,1
DA:777,1
DA:778,1
DA:779,1
DA:780,1
DA:781,1
DA:782,1
DA:783,1
DA:784,1
DA:785,1
DA:786,1
DA:787,1
DA:788,1
DA:789,1
DA:790,1
DA:791,1
DA:792,1
DA:793,1
DA:794,1
DA:795,1
DA:796,1
DA:797,1
DA:798,1
DA:799,1
DA:800,1
DA:801,1
DA:802,1
DA:803,1
DA:804,1
DA:805,1
DA:806,1
DA:807,1
DA:808,1
DA:809,1
DA:810,1
DA:811,1
DA:812,1
DA:813,1
DA:814,1
DA:815,1
DA:816,1
DA:817,1
DA:818,1
DA:819,1
DA:820,1
DA:821,1
DA:822,1
DA:824,1
DA:825,1
DA:826,1
DA:827,1
DA:828,1
DA:829,1
DA:830,1
DA:831,1
DA:833,1
DA:835,1
DA:836,1
DA:837,1
DA:838,1
DA:839,1
DA:840,1
DA:841,1
DA:842,1
DA:843,1
DA:844,1
DA:845,1
DA:846,1
DA:848,1
DA:849,1
DA:850,1
DA:851,1
DA:852,1
DA:853,1
DA:854,1
DA:855,1
DA:856,1
DA:857,1
DA:860,4
DA:861,4
DA:862,4
DA:863,4
DA:864,4
DA:865,10
DA:866,10
DA:868,4
DA:870,1
DA:871,1
DA:872,1
DA:873,1
DA:874,1
DA:875,1
DA:876,1
DA:877,1
DA:878,2001
DA:879,2000
DA:880,2000
DA:881,2000
DA:882,2000
DA:883,2000
DA:884,2000
DA:885,2000
DA:886,2000
DA:887,2000
DA:888,2000
DA:889,2000
DA:890,2000
DA:891,2000
DA:892,2000
DA:895,1
DA:896,2001
DA:897,2000
DA:898,2000
DA:899,2000
DA:900,2000
DA:901,2000
DA:902,2000
DA:905,2001
DA:906,2000
DA:907,2000
DA:910,1
DA:911,1
BRF:0
BRH:0
LF:757
LH:670
end_of_record
SF:C:\Users\nexts\opensource\hayabusa\src\detections\rule\aggregation_parser.rs
FN:87,_RNvMNtNtNtCsh5cigu73tlT_8hayabusa10detections4rule18aggregation_parserNtB2_27AggegationConditionCompiler8tokenize
FN:29,_RNvXs4_NtNtNtCsh5cigu73tlT_8hayabusa10detections4rule18aggregation_parserNtB5_25AggregationConditionTokenNtNtCsjwgglklCTGv_4core3fmt5Debug3fmt
FN:52,_RNvMNtNtNtCsh5cigu73tlT_8hayabusa10detections4rule18aggregation_parserNtB2_27AggegationConditionCompiler7compile
FN:229,_RNvMNtNtNtCsh5cigu73tlT_8hayabusa10detections4rule18aggregation_parserNtB2_27AggegationConditionCompiler7to_enum
FN:95,_RNCNvMNtNtNtCsh5cigu73tlT_8hayabusa10detections4rule18aggregation_parserNtB4_27AggegationConditionCompiler8tokenize0Ba_
FN:63,_RNvMNtNtNtCsh5cigu73tlT_8hayabusa10detections4rule18aggregation_parserNtB2_27AggegationConditionCompiler12compile_body
FN:21,_RNvXs3_NtNtNtCsh5cigu73tlT_8hayabusa10detections4rule18aggregation_parserNtB5_20AggregationParseInfoNtNtCsjwgglklCTGv_4core3fmt5Debug3fmt
FN:48,_RNvMNtNtNtCsh5cigu73tlT_8hayabusa10detections4rule18aggregation_parserNtB2_27AggegationConditionCompiler3new
FN:132,_RNvMNtNtNtCsh5cigu73tlT_8hayabusa10detections4rule18aggregation_parserNtB2_27AggegationConditionCompiler5parse
FN:120,_RNvMNtNtNtCsh5cigu73tlT_8hayabusa10detections4rule18aggregation_parserNtB2_27AggegationConditionCompiler9is_cmp_op
FN:381,_RNvNtNtNtNtCsh5cigu73tlT_8hayabusa10detections4rule18aggregation_parser5testss_41test_aggegation_condition_compiler_no_ope
FN:411,_RNvNtNtNtNtCsh5cigu73tlT_8hayabusa10detections4rule18aggregation_parser5testss_51test_aggegation_condition_compiler_unneccesary_word
FN:391,_RNvNtNtNtNtCsh5cigu73tlT_8hayabusa10detections4rule18aggregation_parser5testss_37test_aggegation_condition_compiler_by
FN:273,_RNvNtNtNtNtCsh5cigu73tlT_8hayabusa10detections4rule18aggregation_parser5testss_44test_aggegation_condition_compiler_count_ope
FN:329,_RNvNtNtNtNtCsh5cigu73tlT_8hayabusa10detections4rule18aggregation_parser5testss_50test_aggegation_condition_compiler_count_all_field
FN:371,_RNvNtNtNtNtCsh5cigu73tlT_8hayabusa10detections4rule18aggregation_parser5testss_44test_aggegation_condition_compiler_not_count
FN:401,_RNvNtNtNtNtCsh5cigu73tlT_8hayabusa10detections4rule18aggregation_parser5testss_49test_aggegation_condition_compiler_no_ope_afterby
FN:380,_RNCNvNtNtNtNtCsh5cigu73tlT_8hayabusa10detections4rule18aggregation_parser5tests41test_aggegation_condition_compiler_no_ope0Bb_
FN:410,_RNCNvNtNtNtNtCsh5cigu73tlT_8hayabusa10detections4rule18aggregation_parser5tests51test_aggegation_condition_compiler_unneccesary_word0Bb_
FN:345,_RNvNtNtNtNtCsh5cigu73tlT_8hayabusa10detections4rule18aggregation_parser5testss_44test_aggegation_condition_compiler_only_pipe
FN:424,_RNvNtNtNtNtCsh5cigu73tlT_8hayabusa10detections4rule18aggregation_parser5tests31check_aggregation_condition_ope
FN:357,_RNCNvNtNtNtNtCsh5cigu73tlT_8hayabusa10detections4rule18aggregation_parser5tests51test_aggegation_condition_compiler_unused_character0Bb_
FN:390,_RNCNvNtNtNtNtCsh5cigu73tlT_8hayabusa10detections4rule18aggregation_parser5tests37test_aggegation_condition_compiler_by0Bb_
FN:263,_RNvNtNtNtNtCsh5cigu73tlT_8hayabusa10detections4rule18aggregation_parser5testss_43test_aggegation_condition_compiler_no_count
FN:313,_RNvNtNtNtNtCsh5cigu73tlT_8hayabusa10detections4rule18aggregation_parser5testss_46test_aggegation_condition_compiler_count_field
FN:358,_RNvNtNtNtNtCsh5cigu73tlT_8hayabusa10detections4rule18aggregation_parser5testss_51test_aggegation_condition_compiler_unused_character
FN:328,_RNCNvNtNtNtNtCsh5cigu73tlT_8hayabusa10detections4rule18aggregation_parser5tests50test_aggegation_condition_compiler_count_all_field0Bb_
FN:370,_RNCNvNtNtNtNtCsh5cigu73tlT_8hayabusa10detections4rule18aggregation_parser5tests44test_aggegation_condition_compiler_not_count0Bb_
FN:400,_RNCNvNtNtNtNtCsh5cigu73tlT_8hayabusa10detections4rule18aggregation_parser5tests49test_aggegation_condition_compiler_no_ope_afterby0Bb_
FN:296,_RNCNvNtNtNtNtCsh5cigu73tlT_8hayabusa10detections4rule18aggregation_parser5tests43test_aggegation_condition_compiler_count_by0Bb_
FN:344,_RNCNvNtNtNtNtCsh5cigu73tlT_8hayabusa10detections4rule18aggregation_parser5tests44test_aggegation_condition_compiler_only_pipe0Bb_
FN:297,_RNvNtNtNtNtCsh5cigu73tlT_8hayabusa10detections4rule18aggregation_parser5testss_43test_aggegation_condition_compiler_count_by
FN:262,_RNCNvNtNtNtNtCsh5cigu73tlT_8hayabusa10detections4rule18aggregation_parser5tests43test_aggegation_condition_compiler_no_count0Bb_
FN:312,_RNCNvNtNtNtNtCsh5cigu73tlT_8hayabusa10detections4rule18aggregation_parser5tests46test_aggegation_condition_compiler_count_field0Bb_
FN:272,_RNCNvNtNtNtNtCsh5cigu73tlT_8hayabusa10detections4rule18aggregation_parser5tests44test_aggegation_condition_compiler_count_ope0Bb_
FN:44,_RNvXs5_NtNtNtCsh5cigu73tlT_8hayabusa10detections4rule18aggregation_parserNtB5_27AggegationConditionCompilerNtNtCsjwgglklCTGv_4core3fmt5Debug3fmt
FN:132,_RNvMNtNtNtCsk6AfKij8NQT_8hayabusa10detections4rule18aggregation_parserNtB2_27AggegationConditionCompiler5parse
FN:21,_RNvXs3_NtNtNtCsk6AfKij8NQT_8hayabusa10detections4rule18aggregation_parserNtB5_20AggregationParseInfoNtNtCsjwgglklCTGv_4core3fmt5Debug3fmt
FN:95,_RNCNvMNtNtNtCsk6AfKij8NQT_8hayabusa10detections4rule18aggregation_parserNtB4_27AggegationConditionCompiler8tokenize0Ba_
FN:120,_RNvMNtNtNtCsk6AfKij8NQT_8hayabusa10detections4rule18aggregation_parserNtB2_27AggegationConditionCompiler9is_cmp_op
FN:29,_RNvXs4_NtNtNtCsk6AfKij8NQT_8hayabusa10detections4rule18aggregation_parserNtB5_25AggregationConditionTokenNtNtCsjwgglklCTGv_4core3fmt5Debug3fmt
FN:48,_RNvMNtNtNtCsk6AfKij8NQT_8hayabusa10detections4rule18aggregation_parserNtB2_27AggegationConditionCompiler3new
FN:87,_RNvMNtNtNtCsk6AfKij8NQT_8hayabusa10detections4rule18aggregation_parserNtB2_27AggegationConditionCompiler8tokenize
FN:44,_RNvXs5_NtNtNtCsk6AfKij8NQT_8hayabusa10detections4rule18aggregation_parserNtB5_27AggegationConditionCompilerNtNtCsjwgglklCTGv_4core3fmt5Debug3fmt
FN:52,_RNvMNtNtNtCsk6AfKij8NQT_8hayabusa10detections4rule18aggregation_parserNtB2_27AggegationConditionCompiler7compile
FN:63,_RNvMNtNtNtCsk6AfKij8NQT_8hayabusa10detections4rule18aggregation_parserNtB2_27AggegationConditionCompiler12compile_body
FN:229,_RNvMNtNtNtCsk6AfKij8NQT_8hayabusa10detections4rule18aggregation_parserNtB2_27AggegationConditionCompiler7to_enum
FNDA:56,_RNvMNtNtNtCsh5cigu73tlT_8hayabusa10detections4rule18aggregation_parserNtB2_27AggegationConditionCompiler8tokenize
FNDA:0,_RNvXs4_NtNtNtCsh5cigu73tlT_8hayabusa10detections4rule18aggregation_parserNtB5_25AggregationConditionTokenNtNtCsjwgglklCTGv_4core3fmt5Debug3fmt
FNDA:207,_RNvMNtNtNtCsh5cigu73tlT_8hayabusa10detections4rule18aggregation_parserNtB2_27AggegationConditionCompiler7compile
FNDA:374,_RNvMNtNtNtCsh5cigu73tlT_8hayabusa10detections4rule18aggregation_parserNtB2_27AggegationConditionCompiler7to_enum
FNDA:1399,_RNCNvMNtNtNtCsh5cigu73tlT_8hayabusa10detections4rule18aggregation_parserNtB4_27AggegationConditionCompiler8tokenize0Ba_
FNDA:207,_RNvMNtNtNtCsh5cigu73tlT_8hayabusa10detections4rule18aggregation_parserNtB2_27AggegationConditionCompiler12compile_body
FNDA:0,_RNvXs3_NtNtNtCsh5cigu73tlT_8hayabusa10detections4rule18aggregation_parserNtB5_20AggregationParseInfoNtNtCsjwgglklCTGv_4core3fmt5Debug3fmt
FNDA:207,_RNvMNtNtNtCsh5cigu73tlT_8hayabusa10detections4rule18aggregation_parserNtB2_27AggegationConditionCompiler3new
FNDA:55,_RNvMNtNtNtCsh5cigu73tlT_8hayabusa10detections4rule18aggregation_parserNtB2_27AggegationConditionCompiler5parse
FNDA:52,_RNvMNtNtNtCsh5cigu73tlT_8hayabusa10detections4rule18aggregation_parserNtB2_27AggegationConditionCompiler9is_cmp_op
FNDA:1,_RNvNtNtNtNtCsh5cigu73tlT_8hayabusa10detections4rule18aggregation_parser5testss_41test_aggegation_condition_compiler_no_ope
FNDA:1,_RNvNtNtNtNtCsh5cigu73tlT_8hayabusa10detections4rule18aggregation_parser5testss_51test_aggegation_condition_compiler_unneccesary_word
FNDA:1,_RNvNtNtNtNtCsh5cigu73tlT_8hayabusa10detections4rule18aggregation_parser5testss_37test_aggegation_condition_compiler_by
FNDA:1,_RNvNtNtNtNtCsh5cigu73tlT_8hayabusa10detections4rule18aggregation_parser5testss_44test_aggegation_condition_compiler_count_ope
FNDA:1,_RNvNtNtNtNtCsh5cigu73tlT_8hayabusa10detections4rule18aggregation_parser5testss_50test_aggegation_condition_compiler_count_all_field
FNDA:1,_RNvNtNtNtNtCsh5cigu73tlT_8hayabusa10detections4rule18aggregation_parser5testss_44test_aggegation_condition_compiler_not_count
FNDA:1,_RNvNtNtNtNtCsh5cigu73tlT_8hayabusa10detections4rule18aggregation_parser5testss_49test_aggegation_condition_compiler_no_ope_afterby
FNDA:1,_RNCNvNtNtNtNtCsh5cigu73tlT_8hayabusa10detections4rule18aggregation_parser5tests41test_aggegation_condition_compiler_no_ope0Bb_
FNDA:1,_RNCNvNtNtNtNtCsh5cigu73tlT_8hayabusa10detections4rule18aggregation_parser5tests51test_aggegation_condition_compiler_unneccesary_word0Bb_
FNDA:1,_RNvNtNtNtNtCsh5cigu73tlT_8hayabusa10detections4rule18aggregation_parser5testss_44test_aggegation_condition_compiler_only_pipe
FNDA:5,_RNvNtNtNtNtCsh5cigu73tlT_8hayabusa10detections4rule18aggregation_parser5tests31check_aggregation_condition_ope
FNDA:1,_RNCNvNtNtNtNtCsh5cigu73tlT_8hayabusa10detections4rule18aggregation_parser5tests51test_aggegation_condition_compiler_unused_character0Bb_
FNDA:1,_RNCNvNtNtNtNtCsh5cigu73tlT_8hayabusa10detections4rule18aggregation_parser5tests37test_aggegation_condition_compiler_by0Bb_
FNDA:1,_RNvNtNtNtNtCsh5cigu73tlT_8hayabusa10detections4rule18aggregation_parser5testss_43test_aggegation_condition_compiler_no_count
FNDA:1,_RNvNtNtNtNtCsh5cigu73tlT_8hayabusa10detections4rule18aggregation_parser5testss_46test_aggegation_condition_compiler_count_field
FNDA:1,_RNvNtNtNtNtCsh5cigu73tlT_8hayabusa10detections4rule18aggregation_parser5testss_51test_aggegation_condition_compiler_unused_character
FNDA:1,_RNCNvNtNtNtNtCsh5cigu73tlT_8hayabusa10detections4rule18aggregation_parser5tests50test_aggegation_condition_compiler_count_all_field0Bb_
FNDA:1,_RNCNvNtNtNtNtCsh5cigu73tlT_8hayabusa10detections4rule18aggregation_parser5tests44test_aggegation_condition_compiler_not_count0Bb_
FNDA:1,_RNCNvNtNtNtNtCsh5cigu73tlT_8hayabusa10detections4rule18aggregation_parser5tests49test_aggegation_condition_compiler_no_ope_afterby0Bb_
FNDA:1,_RNCNvNtNtNtNtCsh5cigu73tlT_8hayabusa10detections4rule18aggregation_parser5tests43test_aggegation_condition_compiler_count_by0Bb_
FNDA:1,_RNCNvNtNtNtNtCsh5cigu73tlT_8hayabusa10detections4rule18aggregation_parser5tests44test_aggegation_condition_compiler_only_pipe0Bb_
FNDA:1,_RNvNtNtNtNtCsh5cigu73tlT_8hayabusa10detections4rule18aggregation_parser5testss_43test_aggegation_condition_compiler_count_by
FNDA:1,_RNCNvNtNtNtNtCsh5cigu73tlT_8hayabusa10detections4rule18aggregation_parser5tests43test_aggegation_condition_compiler_no_count0Bb_
FNDA:1,_RNCNvNtNtNtNtCsh5cigu73tlT_8hayabusa10detections4rule18aggregation_parser5tests46test_aggegation_condition_compiler_count_field0Bb_
FNDA:1,_RNCNvNtNtNtNtCsh5cigu73tlT_8hayabusa10detections4rule18aggregation_parser5tests44test_aggegation_condition_compiler_count_ope0Bb_
FNDA:0,_RNvXs5_NtNtNtCsh5cigu73tlT_8hayabusa10detections4rule18aggregation_parserNtB5_27AggegationConditionCompilerNtNtCsjwgglklCTGv_4core3fmt5Debug3fmt
FNDA:9,_RNvMNtNtNtCsk6AfKij8NQT_8hayabusa10detections4rule18aggregation_parserNtB2_27AggegationConditionCompiler5parse
FNDA:0,_RNvXs3_NtNtNtCsk6AfKij8NQT_8hayabusa10detections4rule18aggregation_parserNtB5_20AggregationParseInfoNtNtCsjwgglklCTGv_4core3fmt5Debug3fmt
FNDA:348,_RNCNvMNtNtNtCsk6AfKij8NQT_8hayabusa10detections4rule18aggregation_parserNtB4_27AggegationConditionCompiler8tokenize0Ba_
FNDA:9,_RNvMNtNtNtCsk6AfKij8NQT_8hayabusa10detections4rule18aggregation_parserNtB2_27AggegationConditionCompiler9is_cmp_op
FNDA:0,_RNvXs4_NtNtNtCsk6AfKij8NQT_8hayabusa10detections4rule18aggregation_parserNtB5_25AggregationConditionTokenNtNtCsjwgglklCTGv_4core3fmt5Debug3fmt
FNDA:11528,_RNvMNtNtNtCsk6AfKij8NQT_8hayabusa10detections4rule18aggregation_parserNtB2_27AggegationConditionCompiler3new
FNDA:9,_RNvMNtNtNtCsk6AfKij8NQT_8hayabusa10detections4rule18aggregation_parserNtB2_27AggegationConditionCompiler8tokenize
FNDA:0,_RNvXs5_NtNtNtCsk6AfKij8NQT_8hayabusa10detections4rule18aggregation_parserNtB5_27AggegationConditionCompilerNtNtCsjwgglklCTGv_4core3fmt5Debug3fmt
FNDA:11528,_RNvMNtNtNtCsk6AfKij8NQT_8hayabusa10detections4rule18aggregation_parserNtB2_27AggegationConditionCompiler7compile
FNDA:11528,_RNvMNtNtNtCsk6AfKij8NQT_8hayabusa10detections4rule18aggregation_parserNtB2_27AggegationConditionCompiler12compile_body
FNDA:90,_RNvMNtNtNtCsk6AfKij8NQT_8hayabusa10detections4rule18aggregation_parserNtB2_27AggegationConditionCompiler7to_enum
FNF:36
FNH:33
DA:21,0
DA:29,0
DA:44,0
DA:48,11735
DA:49,11735
DA:50,11735
DA:52,11735
DA:53,11735
DA:54,11735
DA:55,7
DA:56,7
DA:57,7
DA:59,11728
DA:61,11735
DA:63,11735
DA:64,11735
DA:65,11735
DA:66,11735
DA:67,11735
DA:68,11735
DA:69,11735
DA:71,11670
DA:72,65
DA:73,65
DA:74,65
DA:75,65
DA:76,65
DA:77,65
DA:78,65
DA:79,65
DA:81,65
DA:83,64
DA:84,11735
DA:87,65
DA:88,65
DA:89,65
DA:90,65
DA:91,65
DA:92,65
DA:93,65
DA:94,529
DA:95,1747
DA:96,1747
DA:97,1747
DA:98,465
DA:100,1
DA:101,464
DA:102,464
DA:103,464
DA:104,464
DA:105,464
DA:106,464
DA:108,231
DA:109,231
DA:110,233
DA:111,233
DA:112,233
DA:113,233
DA:116,64
DA:117,65
DA:120,61
DA:121,1
DA:122,61
DA:129,61
DA:132,64
DA:133,64
DA:134,64
DA:135,64
DA:136,64
DA:138,1
DA:139,63
DA:140,63
DA:141,63
DA:142,63
DA:143,63
DA:144,63
DA:145,63
DA:146,62
DA:147,47
DA:148,47
DA:151,1
DA:154,62
DA:155,62
DA:157,0
DA:158,0
DA:159,0
DA:160,62
DA:161,62
DA:162,62
DA:163,62
DA:164,62
DA:165,62
DA:166,21
DA:167,21
DA:169,1
DA:170,1
DA:171,1
DA:172,20
DA:174,20
DA:175,20
DA:176,20
DA:178,0
DA:179,0
DA:180,0
DA:183,41
DA:187,61
DA:189,0
DA:190,0
DA:191,0
DA:192,61
DA:193,61
DA:194,61
DA:195,61
DA:196,1
DA:197,1
DA:198,1
DA:199,60
DA:200,60
DA:201,60
DA:202,60
DA:203,59
DA:204,59
DA:205,59
DA:208,0
DA:212,1
DA:215,59
DA:216,1
DA:217,58
DA:218,58
DA:219,58
DA:220,58
DA:221,58
DA:222,58
DA:223,58
DA:224,58
DA:225,58
DA:226,64
DA:229,464
DA:230,464
DA:231,64
DA:232,64
DA:233,64
DA:234,64
DA:235,64
DA:236,400
DA:237,231
DA:238,169
DA:239,24
DA:240,145
DA:241,1
DA:242,144
DA:243,1
DA:244,143
DA:245,48
DA:246,95
DA:247,1
DA:248,94
DA:249,10
DA:251,84
DA:253,464
DA:262,1
DA:263,1
DA:264,1
DA:265,1
DA:266,1
DA:267,1
DA:268,1
DA:269,1
DA:270,1
DA:272,1
DA:273,1
DA:274,1
DA:275,1
DA:276,1
DA:277,1
DA:279,1
DA:280,1
DA:281,1
DA:283,1
DA:284,1
DA:285,1
DA:287,1
DA:288,1
DA:289,1
DA:291,1
DA:292,1
DA:293,1
DA:294,1
DA:296,1
DA:297,1
DA:298,1
DA:299,1
DA:301,1
DA:302,1
DA:303,1
DA:305,1
DA:306,1
DA:307,1
DA:308,1
DA:309,1
DA:310,1
DA:312,1
DA:313,1
DA:314,1
DA:315,1
DA:317,1
DA:318,1
DA:319,1
DA:321,1
DA:322,1
DA:323,1
DA:324,1
DA:325,1
DA:326,1
DA:328,1
DA:329,1
DA:330,1
DA:331,1
DA:333,1
DA:334,1
DA:335,1
DA:337,1
DA:338,1
DA:339,1
DA:340,1
DA:341,1
DA:342,1
DA:344,1
DA:345,1
DA:346,1
DA:347,1
DA:349,1
DA:350,1
DA:351,1
DA:352,1
DA:353,1
DA:354,1
DA:355,1
DA:357,1
DA:358,1
DA:359,1
DA:360,1
DA:362,1
DA:363,1
DA:364,1
DA:365,1
DA:366,1
DA:367,1
DA:368,1
DA:370,1
DA:371,1
DA:372,1
DA:373,1
DA:374,1
DA:376,1
DA:377,1
DA:378,1
DA:380,1
DA:381,1
DA:382,1
DA:383,1
DA:384,1
DA:386,1
DA:387,1
DA:388,1
DA:390,1
DA:391,1
DA:392,1
DA:393,1
DA:394,1
DA:396,1
DA:397,1
DA:398,1
DA:400,1
DA:401,1
DA:402,1
DA:403,1
DA:404,1
DA:406,1
DA:407,1
DA:408,1
DA:410,1
DA:411,1
DA:412,1
DA:413,1
DA:414,1
DA:416,1
DA:417,1
DA:418,1
DA:419,1
DA:420,1
DA:421,1
DA:422,1
DA:424,5
DA:425,5
DA:426,5
DA:428,5
DA:429,5
DA:430,5
DA:432,5
DA:433,5
DA:434,5
DA:435,5
DA:436,5
DA:437,5
BRF:0
BRH:0
LF:307
LH:294
end_of_record
SF:C:\Users\nexts\opensource\hayabusa\src\detections\rule\condition_parser.rs
FN:181,_RNvMs0_NtNtNtCsh5cigu73tlT_8hayabusa10detections4rule16condition_parserNtB5_17ConditionCompiler5parse
FN:159,_RNCNvMs0_NtNtNtCsh5cigu73tlT_8hayabusa10detections4rule16condition_parserNtB7_17ConditionCompiler17convert_condition0Bd_
FN:102,_RNvMs_NtNtNtCsh5cigu73tlT_8hayabusa10detections4rule16condition_parserNtB4_14ConditionToken30sub_tokens_without_parenthesis
FN:168,_RNvMs0_NtNtNtCsh5cigu73tlT_8hayabusa10detections4rule16condition_parserNtB5_17ConditionCompiler22compile_condition_body
FN:24,_RNvXs8_NtNtNtCsh5cigu73tlT_8hayabusa10detections4rule16condition_parserNtB5_14ConditionTokenNtNtCsjwgglklCTGv_4core5clone5Clone5cloneBb_
FN:306,_RNCNvMs0_NtNtNtCsh5cigu73tlT_8hayabusa10detections4rule16condition_parserNtB7_17ConditionCompiler17parse_parenthesis0Bd_
FN:119,_RNvMs0_NtNtNtCsh5cigu73tlT_8hayabusa10detections4rule16condition_parserNtB5_17ConditionCompiler17compile_condition
FN:370,_RNvMs0_NtNtNtCsh5cigu73tlT_8hayabusa10detections4rule16condition_parserNtB5_17ConditionCompiler23parse_operand_container
FN:315,_RNvMs0_NtNtNtCsh5cigu73tlT_8hayabusa10detections4rule16condition_parserNtB5_17ConditionCompiler21parse_and_or_operator
FN:266,_RNvMs0_NtNtNtCsh5cigu73tlT_8hayabusa10detections4rule16condition_parserNtB5_17ConditionCompiler17parse_parenthesis
FN:491,_RNvMs0_NtNtNtCsh5cigu73tlT_8hayabusa10detections4rule16condition_parserNtB5_17ConditionCompiler20to_operand_container
FN:84,_RNvMs_NtNtNtCsh5cigu73tlT_8hayabusa10detections4rule16condition_parserNtB4_14ConditionToken10sub_tokens
FN:247,_RNvMs0_NtNtNtCsh5cigu73tlT_8hayabusa10detections4rule16condition_parserNtB5_17ConditionCompiler7to_enum
FN:486,_RNvMs0_NtNtNtCsh5cigu73tlT_8hayabusa10detections4rule16condition_parserNtB5_17ConditionCompiler10is_logical
FN:61,_RNvMs_NtNtNtCsh5cigu73tlT_8hayabusa10detections4rule16condition_parserNtB4_14ConditionToken16replace_subtoken
FN:144,_RNvMs0_NtNtNtCsh5cigu73tlT_8hayabusa10detections4rule16condition_parserNtB5_17ConditionCompiler17convert_condition
FN:437,_RNvMs0_NtNtNtCsh5cigu73tlT_8hayabusa10detections4rule16condition_parserNtB5_17ConditionCompiler13to_selectnode
FN:218,_RNvMs0_NtNtNtCsh5cigu73tlT_8hayabusa10detections4rule16condition_parserNtB5_17ConditionCompiler8tokenize
FN:223,_RNCNvMs0_NtNtNtCsh5cigu73tlT_8hayabusa10detections4rule16condition_parserNtB7_17ConditionCompiler8tokenize0Bd_
FN:115,_RNvMs0_NtNtNtCsh5cigu73tlT_8hayabusa10detections4rule16condition_parserNtB5_17ConditionCompiler3new
FN:199,_RNvMs0_NtNtNtCsh5cigu73tlT_8hayabusa10detections4rule16condition_parserNtB5_17ConditionCompiler22parse_rest_parenthesis
FN:991,_RNvNtNtNtNtCsh5cigu73tlT_8hayabusa10detections4rule16condition_parser5testss_25test_condition_not_detect
FN:1501,_RNvNtNtNtNtCsh5cigu73tlT_8hayabusa10detections4rule16condition_parser5testss_39test_convert_condition_all_of_selection
FN:1097,_RNvNtNtNtNtCsh5cigu73tlT_8hayabusa10detections4rule16condition_parser5testss_36test_condition_notparenthesis_detect
FN:739,_RNvNtNtNtNtCsh5cigu73tlT_8hayabusa10detections4rule16condition_parser5testss_28test_condition_and_notdetect
FN:1648,_RNCNvNtNtNtNtCsh5cigu73tlT_8hayabusa10detections4rule16condition_parser5tests39test_condition_all_of_select_not_detect0Bb_
FN:857,_RNCNvNtNtNtNtCsh5cigu73tlT_8hayabusa10detections4rule16condition_parser5tests25test_condition_or_detect20Bb_
FN:914,_RNCNvNtNtNtNtCsh5cigu73tlT_8hayabusa10detections4rule16condition_parser5tests25test_condition_or_detect50Bb_
FN:971,_RNCNvNtNtNtNtCsh5cigu73tlT_8hayabusa10detections4rule16condition_parser5tests27test_condition_or_notdetect0Bb_
FN:1020,_RNCNvNtNtNtNtCsh5cigu73tlT_8hayabusa10detections4rule16condition_parser5tests33test_condition_parenthesis_detect0Bb_
FN:1393,_RNvNtNtNtNtCsh5cigu73tlT_8hayabusa10detections4rule16condition_parser5testss_32test_condition_err_first_logical
FN:1006,_RNvNtNtNtNtCsh5cigu73tlT_8hayabusa10detections4rule16condition_parser5testss_28test_condition_not_notdetect
FN:1669,_RNCNvNtNtNtNtCsh5cigu73tlT_8hayabusa10detections4rule16condition_parser5testss_35test_condition_complex_of_selection0Bb_
FN:1282,_RNvNtNtNtNtCsh5cigu73tlT_8hayabusa10detections4rule16condition_parser5testss_45test_condition_err_condition_forbit_character
FN:915,_RNvNtNtNtNtCsh5cigu73tlT_8hayabusa10detections4rule16condition_parser5testss_25test_condition_or_detect5
FN:1021,_RNvNtNtNtNtCsh5cigu73tlT_8hayabusa10detections4rule16condition_parser5testss_33test_condition_parenthesis_detect
FN:1534,_RNCNvNtNtNtNtCsh5cigu73tlT_8hayabusa10detections4rule16condition_parser5tests39test_convert_condition_one_of_selection0Bb_
FN:1583,_RNCNvNtNtNtNtCsh5cigu73tlT_8hayabusa10detections4rule16condition_parser5tests34test_convert_condition_not_convert0Bb_
FN:778,_RNCNvNtNtNtNtCsh5cigu73tlT_8hayabusa10detections4rule16condition_parser5tests26test_condition_and_detect30Bb_
FN:838,_RNCNvNtNtNtNtCsh5cigu73tlT_8hayabusa10detections4rule16condition_parser5tests24test_condition_or_detect0Bb_
FN:895,_RNCNvNtNtNtNtCsh5cigu73tlT_8hayabusa10detections4rule16condition_parser5tests25test_condition_or_detect40Bb_
FN:1629,_RNCNvNtNtNtNtCsh5cigu73tlT_8hayabusa10detections4rule16condition_parser5tests35test_condition_all_of_select_detect0Bb_
FN:952,_RNCNvNtNtNtNtCsh5cigu73tlT_8hayabusa10detections4rule16condition_parser5tests25test_condition_or_detect70Bb_
FN:1668,_RNvNtNtNtNtCsh5cigu73tlT_8hayabusa10detections4rule16condition_parser5testss_35test_condition_complex_of_selection
FN:1306,_RNvNtNtNtNtCsh5cigu73tlT_8hayabusa10detections4rule16condition_parser5testss_39test_condition_err_leftparenthesis_over
FN:934,_RNvNtNtNtNtCsh5cigu73tlT_8hayabusa10detections4rule16condition_parser5testss_25test_condition_or_detect6
FN:1194,_RNvNtNtNtNtCsh5cigu73tlT_8hayabusa10detections4rule16condition_parser5testss_41test_condition_manyparenthesis_notdetect3
FN:839,_RNvNtNtNtNtCsh5cigu73tlT_8hayabusa10detections4rule16condition_parser5testss_24test_condition_or_detect
FN:953,_RNvNtNtNtNtCsh5cigu73tlT_8hayabusa10detections4rule16condition_parser5testss_25test_condition_or_detect7
FN:1458,_RNCNvNtNtNtNtCsh5cigu73tlT_8hayabusa10detections4rule16condition_parser5tests27test_condition_err_only_not0Bb_
FN:1519,_RNCNvNtNtNtNtCsh5cigu73tlT_8hayabusa10detections4rule16condition_parser5tests48test_convert_condition_multiple_all_of_selection0Bb_
FN:685,_RNCNvNtNtNtNtCsh5cigu73tlT_8hayabusa10detections4rule16condition_parser5tests27test_no_condition_notdetect0Bb_
FN:758,_RNCNvNtNtNtNtCsh5cigu73tlT_8hayabusa10detections4rule16condition_parser5tests29test_condition_and_notdetect20Bb_
FN:1567,_RNCNvNtNtNtNtCsh5cigu73tlT_8hayabusa10detections4rule16condition_parser5tests48test_convert_condition_convert_complex_condition0Bb_
FN:818,_RNCNvNtNtNtNtCsh5cigu73tlT_8hayabusa10detections4rule16condition_parser5tests29test_condition_and_notdetect50Bb_
FN:1592,_RNvNtNtNtNtCsh5cigu73tlT_8hayabusa10detections4rule16condition_parser5testss_33test_condition_1_of_select_detect
FN:1215,_RNvNtNtNtNtCsh5cigu73tlT_8hayabusa10detections4rule16condition_parser5testss_38test_condition_manyparenthesis_detect4
FN:1077,_RNCNvNtNtNtNtCsh5cigu73tlT_8hayabusa10detections4rule16condition_parser5tests41test_condition_manyparenthesis_not_detect0Bb_
FN:1520,_RNvNtNtNtNtCsh5cigu73tlT_8hayabusa10detections4rule16condition_parser5testss_48test_convert_condition_multiple_all_of_selection
FN:1116,_RNvNtNtNtNtCsh5cigu73tlT_8hayabusa10detections4rule16condition_parser5testss_39test_condition_notparenthesis_notdetect
FN:759,_RNvNtNtNtNtCsh5cigu73tlT_8hayabusa10detections4rule16condition_parser5testss_29test_condition_and_notdetect2
FN:877,_RNvNtNtNtNtCsh5cigu73tlT_8hayabusa10detections4rule16condition_parser5testss_25test_condition_or_detect3
FN:1305,_RNCNvNtNtNtNtCsh5cigu73tlT_8hayabusa10detections4rule16condition_parser5tests39test_condition_err_leftparenthesis_over0Bb_
FN:1374,_RNCNvNtNtNtNtCsh5cigu73tlT_8hayabusa10detections4rule16condition_parser5tests29test_condition_err_no_logical0Bb_
FN:1440,_RNCNvNtNtNtNtCsh5cigu73tlT_8hayabusa10detections4rule16condition_parser5tests38test_condition_err_consecutive_logical0Bb_
FN:1500,_RNCNvNtNtNtNtCsh5cigu73tlT_8hayabusa10detections4rule16condition_parser5tests39test_convert_condition_all_of_selection0Bb_
FN:652,_RNCNvNtNtNtNtCsh5cigu73tlT_8hayabusa10detections4rule16condition_parser5tests17test_no_condition0Bb_
FN:738,_RNCNvNtNtNtNtCsh5cigu73tlT_8hayabusa10detections4rule16condition_parser5tests28test_condition_and_notdetect0Bb_
FN:1417,_RNvNtNtNtNtCsh5cigu73tlT_8hayabusa10detections4rule16condition_parser5testss_31test_condition_err_last_logical
FN:1535,_RNvNtNtNtNtCsh5cigu73tlT_8hayabusa10detections4rule16condition_parser5testss_39test_convert_condition_one_of_selection
FN:1135,_RNvNtNtNtNtCsh5cigu73tlT_8hayabusa10detections4rule16condition_parser5testss_38test_condition_manyparenthesis_detect2
FN:1005,_RNCNvNtNtNtNtCsh5cigu73tlT_8hayabusa10detections4rule16condition_parser5tests28test_condition_not_notdetect0Bb_
FN:1441,_RNvNtNtNtNtCsh5cigu73tlT_8hayabusa10detections4rule16condition_parser5testss_38test_condition_err_consecutive_logical
FN:1040,_RNvNtNtNtNtCsh5cigu73tlT_8hayabusa10detections4rule16condition_parser5testss_37test_condition_parenthesis_not_detect
FN:653,_RNvNtNtNtNtCsh5cigu73tlT_8hayabusa10detections4rule16condition_parser5testss_17test_no_condition
FN:799,_RNvNtNtNtNtCsh5cigu73tlT_8hayabusa10detections4rule16condition_parser5testss_29test_condition_and_notdetect4
FN:1214,_RNCNvNtNtNtNtCsh5cigu73tlT_8hayabusa10detections4rule16condition_parser5tests38test_condition_manyparenthesis_detect40Bb_
FN:1281,_RNCNvNtNtNtNtCsh5cigu73tlT_8hayabusa10detections4rule16condition_parser5tests45test_condition_err_condition_forbit_character0Bb_
FN:1351,_RNCNvNtNtNtNtCsh5cigu73tlT_8hayabusa10detections4rule16condition_parser5tests46test_condition_err_parenthesis_direction_wrong0Bb_
FN:1416,_RNCNvNtNtNtNtCsh5cigu73tlT_8hayabusa10detections4rule16condition_parser5tests31test_condition_err_last_logical0Bb_
FN:1329,_RNvNtNtNtNtCsh5cigu73tlT_8hayabusa10detections4rule16condition_parser5testss_40test_condition_err_rightparenthesis_over
FN:1459,_RNvNtNtNtNtCsh5cigu73tlT_8hayabusa10detections4rule16condition_parser5testss_27test_condition_err_only_not
FN:1610,_RNCNvNtNtNtNtCsh5cigu73tlT_8hayabusa10detections4rule16condition_parser5tests37test_condition_1_of_select_not_detect0Bb_
FN:1667,_RNCNvNtNtNtNtCsh5cigu73tlT_8hayabusa10detections4rule16condition_parser5tests35test_condition_complex_of_selection0Bb_
FN:876,_RNCNvNtNtNtNtCsh5cigu73tlT_8hayabusa10detections4rule16condition_parser5tests25test_condition_or_detect30Bb_
FN:933,_RNCNvNtNtNtNtCsh5cigu73tlT_8hayabusa10detections4rule16condition_parser5tests25test_condition_or_detect60Bb_
FN:858,_RNvNtNtNtNtCsh5cigu73tlT_8hayabusa10detections4rule16condition_parser5testss_25test_condition_or_detect2
FN:972,_RNvNtNtNtNtCsh5cigu73tlT_8hayabusa10detections4rule16condition_parser5testss_27test_condition_or_notdetect
FN:1352,_RNvNtNtNtNtCsh5cigu73tlT_8hayabusa10detections4rule16condition_parser5testss_46test_condition_err_parenthesis_direction_wrong
FN:627,_RNvNtNtNtNtCsh5cigu73tlT_8hayabusa10detections4rule16condition_parser5tests12check_select
FN:720,_RNvNtNtNtNtCsh5cigu73tlT_8hayabusa10detections4rule16condition_parser5testss_25test_condition_and_detect
FN:1134,_RNCNvNtNtNtNtCsh5cigu73tlT_8hayabusa10detections4rule16condition_parser5tests38test_condition_manyparenthesis_detect20Bb_
FN:1193,_RNCNvNtNtNtNtCsh5cigu73tlT_8hayabusa10detections4rule16condition_parser5tests41test_condition_manyparenthesis_notdetect30Bb_
FN:1256,_RNCNvNtNtNtNtCsh5cigu73tlT_8hayabusa10detections4rule16condition_parser5tests33test_rule_parseerror_no_condition0Bb_
FN:1328,_RNCNvNtNtNtNtCsh5cigu73tlT_8hayabusa10detections4rule16condition_parser5tests40test_condition_err_rightparenthesis_over0Bb_
FN:1611,_RNvNtNtNtNtCsh5cigu73tlT_8hayabusa10detections4rule16condition_parser5testss_37test_condition_1_of_select_not_detect
FN:1236,_RNvNtNtNtNtCsh5cigu73tlT_8hayabusa10detections4rule16condition_parser5testss_41test_condition_manyparenthesis_notdetect4
FN:1375,_RNvNtNtNtNtCsh5cigu73tlT_8hayabusa10detections4rule16condition_parser5testss_29test_condition_err_no_logical
FN:620,_RNvNtNtNtNtCsh5cigu73tlT_8hayabusa10detections4rule16condition_parser5tests22check_rule_parse_error
FN:1553,_RNCNvNtNtNtNtCsh5cigu73tlT_8hayabusa10detections4rule16condition_parser5tests48test_convert_condition_multiple_one_of_selection0Bb_
FN:1591,_RNCNvNtNtNtNtCsh5cigu73tlT_8hayabusa10detections4rule16condition_parser5tests33test_condition_1_of_select_detect0Bb_
FN:554,_RNvNtNtNtNtCsh5cigu73tlT_8hayabusa10detections4rule16condition_parser5tests26create_dummy_stored_static
FN:798,_RNCNvNtNtNtNtCsh5cigu73tlT_8hayabusa10detections4rule16condition_parser5tests29test_condition_and_notdetect40Bb_
FN:779,_RNvNtNtNtNtCsh5cigu73tlT_8hayabusa10detections4rule16condition_parser5testss_26test_condition_and_detect3
FN:1257,_RNvNtNtNtNtCsh5cigu73tlT_8hayabusa10detections4rule16condition_parser5testss_33test_rule_parseerror_no_condition
FN:1630,_RNvNtNtNtNtCsh5cigu73tlT_8hayabusa10detections4rule16condition_parser5testss_35test_condition_all_of_select_detect
FN:896,_RNvNtNtNtNtCsh5cigu73tlT_8hayabusa10detections4rule16condition_parser5testss_25test_condition_or_detect4
FN:1058,_RNCNvNtNtNtNtCsh5cigu73tlT_8hayabusa10detections4rule16condition_parser5tests38test_condition_many_parenthesis_detect0Bb_
FN:1115,_RNCNvNtNtNtNtCsh5cigu73tlT_8hayabusa10detections4rule16condition_parser5tests39test_condition_notparenthesis_notdetect0Bb_
FN:1172,_RNCNvNtNtNtNtCsh5cigu73tlT_8hayabusa10detections4rule16condition_parser5tests38test_condition_manyparenthesis_detect30Bb_
FN:1235,_RNCNvNtNtNtNtCsh5cigu73tlT_8hayabusa10detections4rule16condition_parser5tests41test_condition_manyparenthesis_notdetect40Bb_
FN:1554,_RNvNtNtNtNtCsh5cigu73tlT_8hayabusa10detections4rule16condition_parser5testss_48test_convert_condition_multiple_one_of_selection
FN:1154,_RNvNtNtNtNtCsh5cigu73tlT_8hayabusa10detections4rule16condition_parser5testss_41test_condition_manyparenthesis_notdetect2
FN:1649,_RNvNtNtNtNtCsh5cigu73tlT_8hayabusa10detections4rule16condition_parser5testss_39test_condition_all_of_select_not_detect
FN:1479,_RNCNvNtNtNtNtCsh5cigu73tlT_8hayabusa10detections4rule16condition_parser5tests26test_condition_err_not_not0Bb_
FN:719,_RNCNvNtNtNtNtCsh5cigu73tlT_8hayabusa10detections4rule16condition_parser5tests25test_condition_and_detect0Bb_
FN:1059,_RNvNtNtNtNtCsh5cigu73tlT_8hayabusa10detections4rule16condition_parser5testss_38test_condition_many_parenthesis_detect
FN:686,_RNvNtNtNtNtCsh5cigu73tlT_8hayabusa10detections4rule16condition_parser5testss_27test_no_condition_notdetect
FN:1568,_RNvNtNtNtNtCsh5cigu73tlT_8hayabusa10detections4rule16condition_parser5testss_48test_convert_condition_convert_complex_condition
FN:1173,_RNvNtNtNtNtCsh5cigu73tlT_8hayabusa10detections4rule16condition_parser5testss_38test_condition_manyparenthesis_detect3
FN:819,_RNvNtNtNtNtCsh5cigu73tlT_8hayabusa10detections4rule16condition_parser5testss_29test_condition_and_notdetect5
FN:990,_RNCNvNtNtNtNtCsh5cigu73tlT_8hayabusa10detections4rule16condition_parser5tests25test_condition_not_detect0Bb_
FN:1039,_RNCNvNtNtNtNtCsh5cigu73tlT_8hayabusa10detections4rule16condition_parser5tests37test_condition_parenthesis_not_detect0Bb_
FN:1096,_RNCNvNtNtNtNtCsh5cigu73tlT_8hayabusa10detections4rule16condition_parser5tests36test_condition_notparenthesis_detect0Bb_
FN:1153,_RNCNvNtNtNtNtCsh5cigu73tlT_8hayabusa10detections4rule16condition_parser5tests41test_condition_manyparenthesis_notdetect20Bb_
FN:1480,_RNvNtNtNtNtCsh5cigu73tlT_8hayabusa10detections4rule16condition_parser5testss_26test_condition_err_not_not
FN:1078,_RNvNtNtNtNtCsh5cigu73tlT_8hayabusa10detections4rule16condition_parser5testss_41test_condition_manyparenthesis_not_detect
FN:1584,_RNvNtNtNtNtCsh5cigu73tlT_8hayabusa10detections4rule16condition_parser5testss_34test_convert_condition_not_convert
FN:1392,_RNCNvNtNtNtNtCsh5cigu73tlT_8hayabusa10detections4rule16condition_parser5tests32test_condition_err_first_logical0Bb_
FN:110,_RNvXs9_NtNtNtCsh5cigu73tlT_8hayabusa10detections4rule16condition_parserNtB5_17ConditionCompilerNtNtCsjwgglklCTGv_4core3fmt5Debug3fmt
FN:48,_RNvXNtNtNtCsh5cigu73tlT_8hayabusa10detections4rule16condition_parserNtB2_14ConditionTokenNtNtNtNtCsjwgglklCTGv_4core4iter6traits7collect12IntoIterator9into_iter
FN:24,_RNvXs7_NtNtNtCsh5cigu73tlT_8hayabusa10detections4rule16condition_parserNtB5_14ConditionTokenNtNtCsjwgglklCTGv_4core3fmt5Debug3fmt
FN:247,_RNvMs0_NtNtNtCsk6AfKij8NQT_8hayabusa10detections4rule16condition_parserNtB5_17ConditionCompiler7to_enum
FN:266,_RNvMs0_NtNtNtCsk6AfKij8NQT_8hayabusa10detections4rule16condition_parserNtB5_17ConditionCompiler17parse_parenthesis
FN:370,_RNvMs0_NtNtNtCsk6AfKij8NQT_8hayabusa10detections4rule16condition_parserNtB5_17ConditionCompiler23parse_operand_container
FN:102,_RNvMs_NtNtNtCsk6AfKij8NQT_8hayabusa10detections4rule16condition_parserNtB4_14ConditionToken30sub_tokens_without_parenthesis
FN:144,_RNvMs0_NtNtNtCsk6AfKij8NQT_8hayabusa10detections4rule16condition_parserNtB5_17ConditionCompiler17convert_condition
FN:119,_RNvMs0_NtNtNtCsk6AfKij8NQT_8hayabusa10detections4rule16condition_parserNtB5_17ConditionCompiler17compile_condition
FN:315,_RNvMs0_NtNtNtCsk6AfKij8NQT_8hayabusa10detections4rule16condition_parserNtB5_17ConditionCompiler21parse_and_or_operator
FN:159,_RNCNvMs0_NtNtNtCsk6AfKij8NQT_8hayabusa10detections4rule16condition_parserNtB7_17ConditionCompiler17convert_condition0Bd_
FN:115,_RNvMs0_NtNtNtCsk6AfKij8NQT_8hayabusa10detections4rule16condition_parserNtB5_17ConditionCompiler3new
FN:199,_RNvMs0_NtNtNtCsk6AfKij8NQT_8hayabusa10detections4rule16condition_parserNtB5_17ConditionCompiler22parse_rest_parenthesis
FN:218,_RNvMs0_NtNtNtCsk6AfKij8NQT_8hayabusa10detections4rule16condition_parserNtB5_17ConditionCompiler8tokenize
FN:110,_RNvXs9_NtNtNtCsk6AfKij8NQT_8hayabusa10detections4rule16condition_parserNtB5_17ConditionCompilerNtNtCsjwgglklCTGv_4core3fmt5Debug3fmt
FN:437,_RNvMs0_NtNtNtCsk6AfKij8NQT_8hayabusa10detections4rule16condition_parserNtB5_17ConditionCompiler13to_selectnode
FN:486,_RNvMs0_NtNtNtCsk6AfKij8NQT_8hayabusa10detections4rule16condition_parserNtB5_17ConditionCompiler10is_logical
FN:48,_RNvXNtNtNtCsk6AfKij8NQT_8hayabusa10detections4rule16condition_parserNtB2_14ConditionTokenNtNtNtNtCsjwgglklCTGv_4core4iter6traits7collect12IntoIterator9into_iter
FN:24,_RNvXs8_NtNtNtCsk6AfKij8NQT_8hayabusa10detections4rule16condition_parserNtB5_14ConditionTokenNtNtCsjwgglklCTGv_4core5clone5Clone5cloneBb_
FN:84,_RNvMs_NtNtNtCsk6AfKij8NQT_8hayabusa10detections4rule16condition_parserNtB4_14ConditionToken10sub_tokens
FN:61,_RNvMs_NtNtNtCsk6AfKij8NQT_8hayabusa10detections4rule16condition_parserNtB4_14ConditionToken16replace_subtoken
FN:306,_RNCNvMs0_NtNtNtCsk6AfKij8NQT_8hayabusa10detections4rule16condition_parserNtB7_17ConditionCompiler17parse_parenthesis0Bd_
FN:491,_RNvMs0_NtNtNtCsk6AfKij8NQT_8hayabusa10detections4rule16condition_parserNtB5_17ConditionCompiler20to_operand_container
FN:181,_RNvMs0_NtNtNtCsk6AfKij8NQT_8hayabusa10detections4rule16condition_parserNtB5_17ConditionCompiler5parse
FN:223,_RNCNvMs0_NtNtNtCsk6AfKij8NQT_8hayabusa10detections4rule16condition_parserNtB7_17ConditionCompiler8tokenize0Bd_
FN:168,_RNvMs0_NtNtNtCsk6AfKij8NQT_8hayabusa10detections4rule16condition_parserNtB5_17ConditionCompiler22compile_condition_body
FN:24,_RNvXs7_NtNtNtCsk6AfKij8NQT_8hayabusa10detections4rule16condition_parserNtB5_14ConditionTokenNtNtCsjwgglklCTGv_4core3fmt5Debug3fmt
FNDA:244,_RNvMs0_NtNtNtCsh5cigu73tlT_8hayabusa10detections4rule16condition_parserNtB5_17ConditionCompiler5parse
FNDA:120,_RNCNvMs0_NtNtNtCsh5cigu73tlT_8hayabusa10detections4rule16condition_parserNtB7_17ConditionCompiler17convert_condition0Bd_
FNDA:318,_RNvMs_NtNtNtCsh5cigu73tlT_8hayabusa10detections4rule16condition_parserNtB4_14ConditionToken30sub_tokens_without_parenthesis
FNDA:191,_RNvMs0_NtNtNtCsh5cigu73tlT_8hayabusa10detections4rule16condition_parserNtB5_17ConditionCompiler22compile_condition_body
FNDA:2795,_RNvXs8_NtNtNtCsh5cigu73tlT_8hayabusa10detections4rule16condition_parserNtB5_14ConditionTokenNtNtCsjwgglklCTGv_4core5clone5Clone5cloneBb_
FNDA:500,_RNCNvMs0_NtNtNtCsh5cigu73tlT_8hayabusa10detections4rule16condition_parserNtB7_17ConditionCompiler17parse_parenthesis0Bd_
FNDA:191,_RNvMs0_NtNtNtCsh5cigu73tlT_8hayabusa10detections4rule16condition_parserNtB5_17ConditionCompiler17compile_condition
FNDA:355,_RNvMs0_NtNtNtCsh5cigu73tlT_8hayabusa10detections4rule16condition_parserNtB5_17ConditionCompiler23parse_operand_container
FNDA:241,_RNvMs0_NtNtNtCsh5cigu73tlT_8hayabusa10detections4rule16condition_parserNtB5_17ConditionCompiler21parse_and_or_operator
FNDA:244,_RNvMs0_NtNtNtCsh5cigu73tlT_8hayabusa10detections4rule16condition_parserNtB5_17ConditionCompiler17parse_parenthesis
FNDA:241,_RNvMs0_NtNtNtCsh5cigu73tlT_8hayabusa10detections4rule16condition_parserNtB5_17ConditionCompiler20to_operand_container
FNDA:942,_RNvMs_NtNtNtCsh5cigu73tlT_8hayabusa10detections4rule16condition_parserNtB4_14ConditionToken10sub_tokens
FNDA:893,_RNvMs0_NtNtNtCsh5cigu73tlT_8hayabusa10detections4rule16condition_parserNtB5_17ConditionCompiler7to_enum
FNDA:1453,_RNvMs0_NtNtNtCsh5cigu73tlT_8hayabusa10detections4rule16condition_parserNtB5_17ConditionCompiler10is_logical
FNDA:639,_RNvMs_NtNtNtCsh5cigu73tlT_8hayabusa10detections4rule16condition_parserNtB4_14ConditionToken16replace_subtoken
FNDA:199,_RNvMs0_NtNtNtCsh5cigu73tlT_8hayabusa10detections4rule16condition_parserNtB5_17ConditionCompiler17convert_condition
FNDA:296,_RNvMs0_NtNtNtCsh5cigu73tlT_8hayabusa10detections4rule16condition_parserNtB5_17ConditionCompiler13to_selectnode
FNDA:191,_RNvMs0_NtNtNtCsh5cigu73tlT_8hayabusa10detections4rule16condition_parserNtB5_17ConditionCompiler8tokenize
FNDA:2962,_RNCNvMs0_NtNtNtCsh5cigu73tlT_8hayabusa10detections4rule16condition_parserNtB7_17ConditionCompiler8tokenize0Bd_
FNDA:191,_RNvMs0_NtNtNtCsh5cigu73tlT_8hayabusa10detections4rule16condition_parserNtB5_17ConditionCompiler3new
FNDA:54,_RNvMs0_NtNtNtCsh5cigu73tlT_8hayabusa10detections4rule16condition_parserNtB5_17ConditionCompiler22parse_rest_parenthesis
FNDA:1,_RNvNtNtNtNtCsh5cigu73tlT_8hayabusa10detections4rule16condition_parser5testss_25test_condition_not_detect
FNDA:1,_RNvNtNtNtNtCsh5cigu73tlT_8hayabusa10detections4rule16condition_parser5testss_39test_convert_condition_all_of_selection
FNDA:1,_RNvNtNtNtNtCsh5cigu73tlT_8hayabusa10detections4rule16condition_parser5testss_36test_condition_notparenthesis_detect
FNDA:1,_RNvNtNtNtNtCsh5cigu73tlT_8hayabusa10detections4rule16condition_parser5testss_28test_condition_and_notdetect
FNDA:1,_RNCNvNtNtNtNtCsh5cigu73tlT_8hayabusa10detections4rule16condition_parser5tests39test_condition_all_of_select_not_detect0Bb_
FNDA:1,_RNCNvNtNtNtNtCsh5cigu73tlT_8hayabusa10detections4rule16condition_parser5tests25test_condition_or_detect20Bb_
FNDA:1,_RNCNvNtNtNtNtCsh5cigu73tlT_8hayabusa10detections4rule16condition_parser5tests25test_condition_or_detect50Bb_
FNDA:1,_RNCNvNtNtNtNtCsh5cigu73tlT_8hayabusa10detections4rule16condition_parser5tests27test_condition_or_notdetect0Bb_
FNDA:1,_RNCNvNtNtNtNtCsh5cigu73tlT_8hayabusa10detections4rule16condition_parser5tests33test_condition_parenthesis_detect0Bb_
FNDA:1,_RNvNtNtNtNtCsh5cigu73tlT_8hayabusa10detections4rule16condition_parser5testss_32test_condition_err_first_logical
FNDA:1,_RNvNtNtNtNtCsh5cigu73tlT_8hayabusa10detections4rule16condition_parser5testss_28test_condition_not_notdetect
FNDA:6,_RNCNvNtNtNtNtCsh5cigu73tlT_8hayabusa10detections4rule16condition_parser5testss_35test_condition_complex_of_selection0Bb_
FNDA:1,_RNvNtNtNtNtCsh5cigu73tlT_8hayabusa10detections4rule16condition_parser5testss_45test_condition_err_condition_forbit_character
FNDA:1,_RNvNtNtNtNtCsh5cigu73tlT_8hayabusa10detections4rule16condition_parser5testss_25test_condition_or_detect5
FNDA:1,_RNvNtNtNtNtCsh5cigu73tlT_8hayabusa10detections4rule16condition_parser5testss_33test_condition_parenthesis_detect
FNDA:1,_RNCNvNtNtNtNtCsh5cigu73tlT_8hayabusa10detections4rule16condition_parser5tests39test_convert_condition_one_of_selection0Bb_
FNDA:1,_RNCNvNtNtNtNtCsh5cigu73tlT_8hayabusa10detections4rule16condition_parser5tests34test_convert_condition_not_convert0Bb_
FNDA:1,_RNCNvNtNtNtNtCsh5cigu73tlT_8hayabusa10detections4rule16condition_parser5tests26test_condition_and_detect30Bb_
FNDA:1,_RNCNvNtNtNtNtCsh5cigu73tlT_8hayabusa10detections4rule16condition_parser5tests24test_condition_or_detect0Bb_
FNDA:1,_RNCNvNtNtNtNtCsh5cigu73tlT_8hayabusa10detections4rule16condition_parser5tests25test_condition_or_detect40Bb_
FNDA:1,_RNCNvNtNtNtNtCsh5cigu73tlT_8hayabusa10detections4rule16condition_parser5tests35test_condition_all_of_select_detect0Bb_
FNDA:1,_RNCNvNtNtNtNtCsh5cigu73tlT_8hayabusa10detections4rule16condition_parser5tests25test_condition_or_detect70Bb_
FNDA:1,_RNvNtNtNtNtCsh5cigu73tlT_8hayabusa10detections4rule16condition_parser5testss_35test_condition_complex_of_selection
FNDA:1,_RNvNtNtNtNtCsh5cigu73tlT_8hayabusa10detections4rule16condition_parser5testss_39test_condition_err_leftparenthesis_over
FNDA:1,_RNvNtNtNtNtCsh5cigu73tlT_8hayabusa10detections4rule16condition_parser5testss_25test_condition_or_detect6
FNDA:1,_RNvNtNtNtNtCsh5cigu73tlT_8hayabusa10detections4rule16condition_parser5testss_41test_condition_manyparenthesis_notdetect3
FNDA:1,_RNvNtNtNtNtCsh5cigu73tlT_8hayabusa10detections4rule16condition_parser5testss_24test_condition_or_detect
FNDA:1,_RNvNtNtNtNtCsh5cigu73tlT_8hayabusa10detections4rule16condition_parser5testss_25test_condition_or_detect7
FNDA:1,_RNCNvNtNtNtNtCsh5cigu73tlT_8hayabusa10detections4rule16condition_parser5tests27test_condition_err_only_not0Bb_
FNDA:1,_RNCNvNtNtNtNtCsh5cigu73tlT_8hayabusa10detections4rule16condition_parser5tests48test_convert_condition_multiple_all_of_selection0Bb_
FNDA:1,_RNCNvNtNtNtNtCsh5cigu73tlT_8hayabusa10detections4rule16condition_parser5tests27test_no_condition_notdetect0Bb_
FNDA:1,_RNCNvNtNtNtNtCsh5cigu73tlT_8hayabusa10detections4rule16condition_parser5tests29test_condition_and_notdetect20Bb_
FNDA:1,_RNCNvNtNtNtNtCsh5cigu73tlT_8hayabusa10detections4rule16condition_parser5tests48test_convert_condition_convert_complex_condition0Bb_
FNDA:1,_RNCNvNtNtNtNtCsh5cigu73tlT_8hayabusa10detections4rule16condition_parser5tests29test_condition_and_notdetect50Bb_
FNDA:1,_RNvNtNtNtNtCsh5cigu73tlT_8hayabusa10detections4rule16condition_parser5testss_33test_condition_1_of_select_detect
FNDA:1,_RNvNtNtNtNtCsh5cigu73tlT_8hayabusa10detections4rule16condition_parser5testss_38test_condition_manyparenthesis_detect4
FNDA:1,_RNCNvNtNtNtNtCsh5cigu73tlT_8hayabusa10detections4rule16condition_parser5tests41test_condition_manyparenthesis_not_detect0Bb_
FNDA:1,_RNvNtNtNtNtCsh5cigu73tlT_8hayabusa10detections4rule16condition_parser5testss_48test_convert_condition_multiple_all_of_selection
FNDA:1,_RNvNtNtNtNtCsh5cigu73tlT_8hayabusa10detections4rule16condition_parser5testss_39test_condition_notparenthesis_notdetect
FNDA:1,_RNvNtNtNtNtCsh5cigu73tlT_8hayabusa10detections4rule16condition_parser5testss_29test_condition_and_notdetect2
FNDA:1,_RNvNtNtNtNtCsh5cigu73tlT_8hayabusa10detections4rule16condition_parser5testss_25test_condition_or_detect3
FNDA:1,_RNCNvNtNtNtNtCsh5cigu73tlT_8hayabusa10detections4rule16condition_parser5tests39test_condition_err_leftparenthesis_over0Bb_
FNDA:1,_RNCNvNtNtNtNtCsh5cigu73tlT_8hayabusa10detections4rule16condition_parser5tests29test_condition_err_no_logical0Bb_
FNDA:1,_RNCNvNtNtNtNtCsh5cigu73tlT_8hayabusa10detections4rule16condition_parser5tests38test_condition_err_consecutive_logical0Bb_
FNDA:1,_RNCNvNtNtNtNtCsh5cigu73tlT_8hayabusa10detections4rule16condition_parser5tests39test_convert_condition_all_of_selection0Bb_
FNDA:1,_RNCNvNtNtNtNtCsh5cigu73tlT_8hayabusa10detections4rule16condition_parser5tests17test_no_condition0Bb_
FNDA:1,_RNCNvNtNtNtNtCsh5cigu73tlT_8hayabusa10detections4rule16condition_parser5tests28test_condition_and_notdetect0Bb_
FNDA:1,_RNvNtNtNtNtCsh5cigu73tlT_8hayabusa10detections4rule16condition_parser5testss_31test_condition_err_last_logical
FNDA:1,_RNvNtNtNtNtCsh5cigu73tlT_8hayabusa10detections4rule16condition_parser5testss_39test_convert_condition_one_of_selection
FNDA:1,_RNvNtNtNtNtCsh5cigu73tlT_8hayabusa10detections4rule16condition_parser5testss_38test_condition_manyparenthesis_detect2
FNDA:1,_RNCNvNtNtNtNtCsh5cigu73tlT_8hayabusa10detections4rule16condition_parser5tests28test_condition_not_notdetect0Bb_
FNDA:1,_RNvNtNtNtNtCsh5cigu73tlT_8hayabusa10detections4rule16condition_parser5testss_38test_condition_err_consecutive_logical
FNDA:1,_RNvNtNtNtNtCsh5cigu73tlT_8hayabusa10detections4rule16condition_parser5testss_37test_condition_parenthesis_not_detect
FNDA:1,_RNvNtNtNtNtCsh5cigu73tlT_8hayabusa10detections4rule16condition_parser5testss_17test_no_condition
FNDA:1,_RNvNtNtNtNtCsh5cigu73tlT_8hayabusa10detections4rule16condition_parser5testss_29test_condition_and_notdetect4
FNDA:1,_RNCNvNtNtNtNtCsh5cigu73tlT_8hayabusa10detections4rule16condition_parser5tests38test_condition_manyparenthesis_detect40Bb_
FNDA:1,_RNCNvNtNtNtNtCsh5cigu73tlT_8hayabusa10detections4rule16condition_parser5tests45test_condition_err_condition_forbit_character0Bb_
FNDA:1,_RNCNvNtNtNtNtCsh5cigu73tlT_8hayabusa10detections4rule16condition_parser5tests46test_condition_err_parenthesis_direction_wrong0Bb_
FNDA:1,_RNCNvNtNtNtNtCsh5cigu73tlT_8hayabusa10detections4rule16condition_parser5tests31test_condition_err_last_logical0Bb_
FNDA:1,_RNvNtNtNtNtCsh5cigu73tlT_8hayabusa10detections4rule16condition_parser5testss_40test_condition_err_rightparenthesis_over
FNDA:1,_RNvNtNtNtNtCsh5cigu73tlT_8hayabusa10detections4rule16condition_parser5testss_27test_condition_err_only_not
FNDA:1,_RNCNvNtNtNtNtCsh5cigu73tlT_8hayabusa10detections4rule16condition_parser5tests37test_condition_1_of_select_not_detect0Bb_
FNDA:1,_RNCNvNtNtNtNtCsh5cigu73tlT_8hayabusa10detections4rule16condition_parser5tests35test_condition_complex_of_selection0Bb_
FNDA:1,_RNCNvNtNtNtNtCsh5cigu73tlT_8hayabusa10detections4rule16condition_parser5tests25test_condition_or_detect30Bb_
FNDA:1,_RNCNvNtNtNtNtCsh5cigu73tlT_8hayabusa10detections4rule16condition_parser5tests25test_condition_or_detect60Bb_
FNDA:1,_RNvNtNtNtNtCsh5cigu73tlT_8hayabusa10detections4rule16condition_parser5testss_25test_condition_or_detect2
FNDA:1,_RNvNtNtNtNtCsh5cigu73tlT_8hayabusa10detections4rule16condition_parser5testss_27test_condition_or_notdetect
FNDA:1,_RNvNtNtNtNtCsh5cigu73tlT_8hayabusa10detections4rule16condition_parser5testss_46test_condition_err_parenthesis_direction_wrong
FNDA:40,_RNvNtNtNtNtCsh5cigu73tlT_8hayabusa10detections4rule16condition_parser5tests12check_select
FNDA:1,_RNvNtNtNtNtCsh5cigu73tlT_8hayabusa10detections4rule16condition_parser5testss_25test_condition_and_detect
FNDA:1,_RNCNvNtNtNtNtCsh5cigu73tlT_8hayabusa10detections4rule16condition_parser5tests38test_condition_manyparenthesis_detect20Bb_
FNDA:1,_RNCNvNtNtNtNtCsh5cigu73tlT_8hayabusa10detections4rule16condition_parser5tests41test_condition_manyparenthesis_notdetect30Bb_
FNDA:1,_RNCNvNtNtNtNtCsh5cigu73tlT_8hayabusa10detections4rule16condition_parser5tests33test_rule_parseerror_no_condition0Bb_
FNDA:1,_RNCNvNtNtNtNtCsh5cigu73tlT_8hayabusa10detections4rule16condition_parser5tests40test_condition_err_rightparenthesis_over0Bb_
FNDA:1,_RNvNtNtNtNtCsh5cigu73tlT_8hayabusa10detections4rule16condition_parser5testss_37test_condition_1_of_select_not_detect
FNDA:1,_RNvNtNtNtNtCsh5cigu73tlT_8hayabusa10detections4rule16condition_parser5testss_41test_condition_manyparenthesis_notdetect4
FNDA:1,_RNvNtNtNtNtCsh5cigu73tlT_8hayabusa10detections4rule16condition_parser5testss_29test_condition_err_no_logical
FNDA:10,_RNvNtNtNtNtCsh5cigu73tlT_8hayabusa10detections4rule16condition_parser5tests22check_rule_parse_error
FNDA:1,_RNCNvNtNtNtNtCsh5cigu73tlT_8hayabusa10detections4rule16condition_parser5tests48test_convert_condition_multiple_one_of_selection0Bb_
FNDA:1,_RNCNvNtNtNtNtCsh5cigu73tlT_8hayabusa10detections4rule16condition_parser5tests33test_condition_1_of_select_detect0Bb_
FNDA:51,_RNvNtNtNtNtCsh5cigu73tlT_8hayabusa10detections4rule16condition_parser5tests26create_dummy_stored_static
FNDA:1,_RNCNvNtNtNtNtCsh5cigu73tlT_8hayabusa10detections4rule16condition_parser5tests29test_condition_and_notdetect40Bb_
FNDA:1,_RNvNtNtNtNtCsh5cigu73tlT_8hayabusa10detections4rule16condition_parser5testss_26test_condition_and_detect3
FNDA:1,_RNvNtNtNtNtCsh5cigu73tlT_8hayabusa10detections4rule16condition_parser5testss_33test_rule_parseerror_no_condition
FNDA:1,_RNvNtNtNtNtCsh5cigu73tlT_8hayabusa10detections4rule16condition_parser5testss_35test_condition_all_of_select_detect
FNDA:1,_RNvNtNtNtNtCsh5cigu73tlT_8hayabusa10detections4rule16condition_parser5testss_25test_condition_or_detect4
FNDA:1,_RNCNvNtNtNtNtCsh5cigu73tlT_8hayabusa10detections4rule16condition_parser5tests38test_condition_many_parenthesis_detect0Bb_
FNDA:1,_RNCNvNtNtNtNtCsh5cigu73tlT_8hayabusa10detections4rule16condition_parser5tests39test_condition_notparenthesis_notdetect0Bb_
FNDA:1,_RNCNvNtNtNtNtCsh5cigu73tlT_8hayabusa10detections4rule16condition_parser5tests38test_condition_manyparenthesis_detect30Bb_
FNDA:1,_RNCNvNtNtNtNtCsh5cigu73tlT_8hayabusa10detections4rule16condition_parser5tests41test_condition_manyparenthesis_notdetect40Bb_
FNDA:1,_RNvNtNtNtNtCsh5cigu73tlT_8hayabusa10detections4rule16condition_parser5testss_48test_convert_condition_multiple_one_of_selection
FNDA:1,_RNvNtNtNtNtCsh5cigu73tlT_8hayabusa10detections4rule16condition_parser5testss_41test_condition_manyparenthesis_notdetect2
FNDA:1,_RNvNtNtNtNtCsh5cigu73tlT_8hayabusa10detections4rule16condition_parser5testss_39test_condition_all_of_select_not_detect
FNDA:1,_RNCNvNtNtNtNtCsh5cigu73tlT_8hayabusa10detections4rule16condition_parser5tests26test_condition_err_not_not0Bb_
FNDA:1,_RNCNvNtNtNtNtCsh5cigu73tlT_8hayabusa10detections4rule16condition_parser5tests25test_condition_and_detect0Bb_
FNDA:1,_RNvNtNtNtNtCsh5cigu73tlT_8hayabusa10detections4rule16condition_parser5testss_38test_condition_many_parenthesis_detect
FNDA:1,_RNvNtNtNtNtCsh5cigu73tlT_8hayabusa10detections4rule16condition_parser5testss_27test_no_condition_notdetect
FNDA:1,_RNvNtNtNtNtCsh5cigu73tlT_8hayabusa10detections4rule16condition_parser5testss_48test_convert_condition_convert_complex_condition
FNDA:1,_RNvNtNtNtNtCsh5cigu73tlT_8hayabusa10detections4rule16condition_parser5testss_38test_condition_manyparenthesis_detect3
FNDA:1,_RNvNtNtNtNtCsh5cigu73tlT_8hayabusa10detections4rule16condition_parser5testss_29test_condition_and_notdetect5
FNDA:1,_RNCNvNtNtNtNtCsh5cigu73tlT_8hayabusa10detections4rule16condition_parser5tests25test_condition_not_detect0Bb_
FNDA:1,_RNCNvNtNtNtNtCsh5cigu73tlT_8hayabusa10detections4rule16condition_parser5tests37test_condition_parenthesis_not_detect0Bb_
FNDA:1,_RNCNvNtNtNtNtCsh5cigu73tlT_8hayabusa10detections4rule16condition_parser5tests36test_condition_notparenthesis_detect0Bb_
FNDA:1,_RNCNvNtNtNtNtCsh5cigu73tlT_8hayabusa10detections4rule16condition_parser5tests41test_condition_manyparenthesis_notdetect20Bb_
FNDA:1,_RNvNtNtNtNtCsh5cigu73tlT_8hayabusa10detections4rule16condition_parser5testss_26test_condition_err_not_not
FNDA:1,_RNvNtNtNtNtCsh5cigu73tlT_8hayabusa10detections4rule16condition_parser5testss_41test_condition_manyparenthesis_not_detect
FNDA:1,_RNvNtNtNtNtCsh5cigu73tlT_8hayabusa10detections4rule16condition_parser5testss_34test_convert_condition_not_convert
FNDA:1,_RNCNvNtNtNtNtCsh5cigu73tlT_8hayabusa10detections4rule16condition_parser5tests32test_condition_err_first_logical0Bb_
FNDA:0,_RNvXs9_NtNtNtCsh5cigu73tlT_8hayabusa10detections4rule16condition_parserNtB5_17ConditionCompilerNtNtCsjwgglklCTGv_4core3fmt5Debug3fmt
FNDA:0,_RNvXNtNtNtCsh5cigu73tlT_8hayabusa10detections4rule16condition_parserNtB2_14ConditionTokenNtNtNtNtCsjwgglklCTGv_4core4iter6traits7collect12IntoIterator9into_iter
FNDA:0,_RNvXs7_NtNtNtCsh5cigu73tlT_8hayabusa10detections4rule16condition_parserNtB5_14ConditionTokenNtNtCsjwgglklCTGv_4core3fmt5Debug3fmt
FNDA:144281,_RNvMs0_NtNtNtCsk6AfKij8NQT_8hayabusa10detections4rule16condition_parserNtB5_17ConditionCompiler7to_enum
FNDA:24929,_RNvMs0_NtNtNtCsk6AfKij8NQT_8hayabusa10detections4rule16condition_parserNtB5_17ConditionCompiler17parse_parenthesis
FNDA:49754,_RNvMs0_NtNtNtCsk6AfKij8NQT_8hayabusa10detections4rule16condition_parserNtB5_17ConditionCompiler23parse_operand_container
FNDA:43895,_RNvMs_NtNtNtCsk6AfKij8NQT_8hayabusa10detections4rule16condition_parserNtB4_14ConditionToken30sub_tokens_without_parenthesis
FNDA:11528,_RNvMs0_NtNtNtCsk6AfKij8NQT_8hayabusa10detections4rule16condition_parserNtB5_17ConditionCompiler17convert_condition
FNDA:11528,_RNvMs0_NtNtNtCsk6AfKij8NQT_8hayabusa10detections4rule16condition_parserNtB5_17ConditionCompiler17compile_condition
FNDA:24929,_RNvMs0_NtNtNtCsk6AfKij8NQT_8hayabusa10detections4rule16condition_parserNtB5_17ConditionCompiler21parse_and_or_operator
FNDA:28701,_RNCNvMs0_NtNtNtCsk6AfKij8NQT_8hayabusa10detections4rule16condition_parserNtB7_17ConditionCompiler17convert_condition0Bd_
FNDA:11528,_RNvMs0_NtNtNtCsk6AfKij8NQT_8hayabusa10detections4rule16condition_parserNtB5_17ConditionCompiler3new
FNDA:13401,_RNvMs0_NtNtNtCsk6AfKij8NQT_8hayabusa10detections4rule16condition_parserNtB5_17ConditionCompiler22parse_rest_parenthesis
FNDA:11528,_RNvMs0_NtNtNtCsk6AfKij8NQT_8hayabusa10detections4rule16condition_parserNtB5_17ConditionCompiler8tokenize
FNDA:0,_RNvXs9_NtNtNtCsk6AfKij8NQT_8hayabusa10detections4rule16condition_parserNtB5_17ConditionCompilerNtNtCsjwgglklCTGv_4core3fmt5Debug3fmt
FNDA:36353,_RNvMs0_NtNtNtCsk6AfKij8NQT_8hayabusa10detections4rule16condition_parserNtB5_17ConditionCompiler13to_selectnode
FNDA:202136,_RNvMs0_NtNtNtCsk6AfKij8NQT_8hayabusa10detections4rule16condition_parserNtB5_17ConditionCompiler10is_logical
FNDA:0,_RNvXNtNtNtCsk6AfKij8NQT_8hayabusa10detections4rule16condition_parserNtB2_14ConditionTokenNtNtNtNtCsjwgglklCTGv_4core4iter6traits7collect12IntoIterator9into_iter
FNDA:618141,_RNvXs8_NtNtNtCsk6AfKij8NQT_8hayabusa10detections4rule16condition_parserNtB5_14ConditionTokenNtNtCsjwgglklCTGv_4core5clone5Clone5cloneBb_
FNDA:127263,_RNvMs_NtNtNtCsk6AfKij8NQT_8hayabusa10detections4rule16condition_parserNtB4_14ConditionToken10sub_tokens
FNDA:90910,_RNvMs_NtNtNtCsk6AfKij8NQT_8hayabusa10detections4rule16condition_parserNtB4_14ConditionToken16replace_subtoken
FNDA:77699,_RNCNvMs0_NtNtNtCsk6AfKij8NQT_8hayabusa10detections4rule16condition_parserNtB7_17ConditionCompiler17parse_parenthesis0Bd_
FNDA:24929,_RNvMs0_NtNtNtCsk6AfKij8NQT_8hayabusa10detections4rule16condition_parserNtB5_17ConditionCompiler20to_operand_container
FNDA:24929,_RNvMs0_NtNtNtCsk6AfKij8NQT_8hayabusa10detections4rule16condition_parserNtB5_17ConditionCompiler5parse
FNDA:456938,_RNCNvMs0_NtNtNtCsk6AfKij8NQT_8hayabusa10detections4rule16condition_parserNtB7_17ConditionCompiler8tokenize0Bd_
FNDA:11528,_RNvMs0_NtNtNtCsk6AfKij8NQT_8hayabusa10detections4rule16condition_parserNtB5_17ConditionCompiler22compile_condition_body
FNDA:0,_RNvXs7_NtNtNtCsk6AfKij8NQT_8hayabusa10detections4rule16condition_parserNtB5_14ConditionTokenNtNtCsjwgglklCTGv_4core3fmt5Debug3fmt
FNF:132
FNH:129
DA:24,620936
DA:48,0
DA:49,0
DA:50,0
DA:51,0
DA:52,0
DA:53,0
DA:54,0
DA:55,0
DA:57,0
DA:61,91549
DA:62,91549
DA:64,0
DA:66,38092
DA:67,50326
DA:68,3131
DA:70,0
DA:72,0
DA:73,0
DA:74,0
DA:75,0
DA:76,0
DA:77,0
DA:78,0
DA:79,0
DA:82,91549
DA:84,128205
DA:85,128205
DA:86,128205
DA:87,0
DA:88,38092
DA:89,50331
DA:90,3131
DA:91,0
DA:92,0
DA:93,0
DA:94,0
DA:95,0
DA:96,0
DA:97,0
DA:98,36651
DA:100,128205
DA:102,44213
DA:103,44213
DA:104,0
DA:105,44213
DA:107,44213
DA:110,0
DA:115,11719
DA:116,11719
DA:117,11719
DA:119,11719
DA:120,11719
DA:121,11719
DA:122,11719
DA:123,11719
DA:124,11719
DA:125,11719
DA:126,11719
DA:127,11719
DA:128,11719
DA:129,50
DA:130,50
DA:132,11669
DA:135,11719
DA:136,11719
DA:137,10
DA:139,11709
DA:141,11719
DA:144,11727
DA:145,11727
DA:146,11727
DA:147,6311
DA:148,6311
DA:149,3244
DA:151,3067
DA:153,6311
DA:154,6311
DA:155,6311
DA:156,6311
DA:157,6311
DA:158,6311
DA:159,28821
DA:160,6311
DA:161,6311
DA:162,6311
DA:164,11727
DA:165,11727
DA:168,11719
DA:169,11719
DA:170,11719
DA:171,11719
DA:172,11719
DA:173,11719
DA:175,11718
DA:177,11709
DA:178,11719
DA:181,25173
DA:185,25173
DA:188,25170
DA:191,25167
DA:194,25164
DA:195,25173
DA:199,97447
DA:200,13455
DA:201,13453
DA:202,83992
DA:203,83992
DA:204,83992
DA:205,83992
DA:206,36651
DA:207,47341
DA:208,47341
DA:209,47341
DA:210,119622
DA:211,72283
DA:212,72281
DA:214,47339
DA:215,97447
DA:218,11719
DA:219,11719
DA:220,11719
DA:221,11719
DA:222,156893
DA:223,459900
DA:224,459900
DA:225,459900
DA:226,145175
DA:228,1
DA:229,145174
DA:230,145174
DA:231,145174
DA:232,145174
DA:233,145174
DA:235,53505
DA:236,53505
DA:237,91669
DA:238,91669
DA:239,91669
DA:240,91669
DA:243,11718
DA:244,11719
DA:247,145174
DA:248,145174
DA:249,13459
DA:250,131715
DA:251,13459
DA:252,118256
DA:253,53505
DA:254,64751
DA:255,3134
DA:256,61617
DA:257,19050
DA:258,42567
DA:259,5901
DA:261,36666
DA:263,145174
DA:266,25173
DA:267,25173
DA:268,25173
DA:269,25173
DA:270,25173
DA:271,103379
DA:273,78208
DA:274,78208
DA:275,64750
DA:276,64750
DA:277,13458
DA:278,13458
DA:279,13458
DA:280,13458
DA:281,13458
DA:282,13458
DA:283,92502
DA:284,92502
DA:285,7313
DA:286,85189
DA:287,20769
DA:288,64420
DA:289,92502
DA:290,13456
DA:291,79046
DA:292,79046
DA:295,13458
DA:296,2
DA:297,13456
DA:298,13456
DA:299,13456
DA:300,13456
DA:304,25171
DA:305,25171
DA:306,78200
DA:307,25171
DA:308,1
DA:309,25170
DA:310,25170
DA:311,25170
DA:312,25173
DA:315,25170
DA:316,25170
DA:318,0
DA:319,25170
DA:322,25170
DA:325,25170
DA:326,2
DA:327,25168
DA:328,25168
DA:329,25168
DA:330,25168
DA:331,25168
DA:332,75054
DA:333,75054
DA:335,1
DA:336,1
DA:337,1
DA:338,75053
DA:339,75053
DA:340,75053
DA:341,50110
DA:342,50110
DA:343,50110
DA:344,24943
DA:345,24943
DA:349,25167
DA:350,25167
DA:351,25167
DA:352,24942
DA:353,5896
DA:354,5896
DA:355,19046
DA:356,19046
DA:357,19046
DA:358,19046
DA:359,19046
DA:360,19046
DA:364,25167
DA:365,25167
DA:366,25170
DA:370,94322
DA:375,50109
DA:376,0
DA:377,0
DA:378,0
DA:379,0
DA:380,50109
DA:381,50109
DA:382,50109
DA:383,50109
DA:384,0
DA:385,50109
DA:386,50109
DA:387,50109
DA:388,50109
DA:389,46976
DA:390,46976
DA:391,1
DA:392,46975
DA:393,46975
DA:394,46975
DA:395,3133
DA:396,3133
DA:397,3133
DA:398,3133
DA:399,3133
DA:400,3133
DA:401,3133
DA:402,3132
DA:403,1
DA:405,3131
DA:406,3131
DA:407,3131
DA:410,1
DA:411,1
DA:412,1
DA:413,1
DA:416,44213
DA:417,44213
DA:418,0
DA:419,44213
DA:420,44213
DA:421,44213
DA:422,113365
DA:423,69155
DA:424,69152
DA:427,44210
DA:429,94322
DA:437,83988
DA:438,36649
DA:439,36649
DA:440,36649
DA:441,36649
DA:442,36649
DA:443,36649
DA:445,0
DA:446,0
DA:448,47339
DA:451,47339
DA:452,19046
DA:453,57138
DA:454,38092
DA:455,38092
DA:457,19046
DA:458,28293
DA:461,28293
DA:462,25162
DA:463,56218
DA:464,31056
DA:465,31056
DA:467,25162
DA:468,3131
DA:471,3131
DA:472,3131
DA:473,0
DA:474,3131
DA:476,3131
DA:477,3131
DA:478,3131
DA:479,3131
DA:480,0
DA:481,0
DA:482,0
DA:483,83988
DA:486,203589
DA:487,203589
DA:488,203589
DA:491,25170
DA:492,25170
DA:493,25170
DA:494,25170
DA:495,25170
DA:496,25170
DA:497,78196
DA:498,78196
DA:500,24948
DA:501,2
DA:502,2
DA:503,24946
DA:504,24946
DA:505,24946
DA:506,24946
DA:507,24946
DA:508,24946
DA:509,24946
DA:510,53248
DA:511,53248
DA:512,53248
DA:514,25170
DA:515,25169
DA:516,25169
DA:517,25169
DA:518,25169
DA:520,25170
DA:521,25170
DA:554,51
DA:555,51
DA:556,51
DA:557,51
DA:558,51
DA:559,51
DA:560,51
DA:561,51
DA:562,51
DA:563,51
DA:564,51
DA:565,51
DA:566,51
DA:567,51
DA:568,51
DA:569,51
DA:570,51
DA:571,51
DA:572,51
DA:573,51
DA:574,51
DA:575,51
DA:576,51
DA:577,51
DA:578,51
DA:579,51
DA:580,51
DA:581,51
DA:582,51
DA:583,51
DA:584,51
DA:585,51
DA:586,51
DA:587,51
DA:588,51
DA:589,51
DA:590,51
DA:591,51
DA:592,51
DA:593,51
DA:594,51
DA:595,51
DA:596,51
DA:597,51
DA:598,51
DA:599,51
DA:600,51
DA:601,51
DA:602,51
DA:603,51
DA:604,51
DA:605,51
DA:606,51
DA:607,51
DA:608,51
DA:609,51
DA:610,51
DA:611,51
DA:612,51
DA:613,51
DA:614,51
DA:615,51
DA:616,51
DA:617,51
DA:618,51
DA:620,10
DA:621,10
DA:622,10
DA:623,10
DA:624,10
DA:625,10
DA:627,40
DA:628,40
DA:629,40
DA:630,40
DA:631,40
DA:632,40
DA:633,40
DA:634,40
DA:635,40
DA:636,40
DA:637,40
DA:638,40
DA:639,40
DA:640,40
DA:641,40
DA:642,40
DA:643,40
DA:644,40
DA:646,0
DA:647,0
DA:650,40
DA:652,1
DA:653,1
DA:654,1
DA:655,1
DA:656,1
DA:657,1
DA:658,1
DA:659,1
DA:660,1
DA:661,1
DA:662,1
DA:663,1
DA:664,1
DA:665,1
DA:666,1
DA:667,1
DA:668,1
DA:669,1
DA:670,1
DA:671,1
DA:672,1
DA:673,1
DA:674,1
DA:675,1
DA:676,1
DA:677,1
DA:678,1
DA:679,1
DA:680,1
DA:681,1
DA:682,1
DA:683,1
DA:685,1
DA:686,1
DA:687,1
DA:688,1
DA:689,1
DA:690,1
DA:691,1
DA:692,1
DA:693,1
DA:694,1
DA:695,1
DA:696,1
DA:697,1
DA:698,1
DA:699,1
DA:700,1
DA:701,1
DA:702,1
DA:703,1
DA:704,1
DA:705,1
DA:706,1
DA:707,1
DA:708,1
DA:709,1
DA:710,1
DA:711,1
DA:712,1
DA:713,1
DA:714,1
DA:715,1
DA:716,1
DA:717,1
DA:719,1
DA:720,1
DA:721,1
DA:722,1
DA:723,1
DA:724,1
DA:725,1
DA:726,1
DA:727,1
DA:728,1
DA:729,1
DA:730,1
DA:731,1
DA:732,1
DA:733,1
DA:734,1
DA:735,1
DA:736,1
DA:738,1
DA:739,1
DA:740,1
DA:741,1
DA:742,1
DA:743,1
DA:744,1
DA:745,1
DA:746,1
DA:747,1
DA:748,1
DA:749,1
DA:750,1
DA:751,1
DA:752,1
DA:753,1
DA:754,1
DA:755,1
DA:756,1
DA:758,1
DA:759,1
DA:760,1
DA:761,1
DA:762,1
DA:763,1
DA:764,1
DA:765,1
DA:766,1
DA:767,1
DA:768,1
DA:769,1
DA:770,1
DA:771,1
DA:772,1
DA:773,1
DA:774,1
DA:775,1
DA:776,1
DA:778,1
DA:779,1
DA:780,1
DA:781,1
DA:782,1
DA:783,1
DA:784,1
DA:785,1
DA:786,1
DA:787,1
DA:788,1
DA:789,1
DA:790,1
DA:791,1
DA:792,1
DA:793,1
DA:794,1
DA:795,1
DA:796,1
DA:798,1
DA:799,1
DA:800,1
DA:801,1
DA:802,1
DA:803,1
DA:804,1
DA:805,1
DA:806,1
DA:807,1
DA:808,1
DA:809,1
DA:810,1
DA:811,1
DA:812,1
DA:813,1
DA:814,1
DA:815,1
DA:816,1
DA:818,1
DA:819,1
DA:820,1
DA:821,1
DA:822,1
DA:823,1
DA:824,1
DA:825,1
DA:826,1
DA:827,1
DA:828,1
DA:829,1
DA:830,1
DA:831,1
DA:832,1
DA:833,1
DA:834,1
DA:835,1
DA:836,1
DA:838,1
DA:839,1
DA:840,1
DA:841,1
DA:842,1
DA:843,1
DA:844,1
DA:845,1
DA:846,1
DA:847,1
DA:848,1
DA:849,1
DA:850,1
DA:851,1
DA:852,1
DA:853,1
DA:854,1
DA:855,1
DA:857,1
DA:858,1
DA:859,1
DA:860,1
DA:861,1
DA:862,1
DA:863,1
DA:864,1
DA:865,1
DA:866,1
DA:867,1
DA:868,1
DA:869,1
DA:870,1
DA:871,1
DA:872,1
DA:873,1
DA:874,1
DA:876,1
DA:877,1
DA:878,1
DA:879,1
DA:880,1
DA:881,1
DA:882,1
DA:883,1
DA:884,1
DA:885,1
DA:886,1
DA:887,1
DA:888,1
DA:889,1
DA:890,1
DA:891,1
DA:892,1
DA:893,1
DA:895,1
DA:896,1
DA:897,1
DA:898,1
DA:899,1
DA:900,1
DA:901,1
DA:902,1
DA:903,1
DA:904,1
DA:905,1
DA:906,1
DA:907,1
DA:908,1
DA:909,1
DA:910,1
DA:911,1
DA:912,1
DA:914,1
DA:915,1
DA:916,1
DA:917,1
DA:918,1
DA:919,1
DA:920,1
DA:921,1
DA:922,1
DA:923,1
DA:924,1
DA:925,1
DA:926,1
DA:927,1
DA:928,1
DA:929,1
DA:930,1
DA:931,1
DA:933,1
DA:934,1
DA:935,1
DA:936,1
DA:937,1
DA:938,1
DA:939,1
DA:940,1
DA:941,1
DA:942,1
DA:943,1
DA:944,1
DA:945,1
DA:946,1
DA:947,1
DA:948,1
DA:949,1
DA:950,1
DA:952,1
DA:953,1
DA:954,1
DA:955,1
DA:956,1
DA:957,1
DA:958,1
DA:959,1
DA:960,1
DA:961,1
DA:962,1
DA:963,1
DA:964,1
DA:965,1
DA:966,1
DA:967,1
DA:968,1
DA:969,1
DA:971,1
DA:972,1
DA:973,1
DA:974,1
DA:975,1
DA:976,1
DA:977,1
DA:978,1
DA:979,1
DA:980,1
DA:981,1
DA:982,1
DA:983,1
DA:984,1
DA:985,1
DA:986,1
DA:987,1
DA:988,1
DA:990,1
DA:991,1
DA:992,1
DA:993,1
DA:994,1
DA:995,1
DA:996,1
DA:997,1
DA:998,1
DA:999,1
DA:1000,1
DA:1001,1
DA:1002,1
DA:1003,1
DA:1005,1
DA:1006,1
DA:1007,1
DA:1008,1
DA:1009,1
DA:1010,1
DA:1011,1
DA:1012,1
DA:1013,1
DA:1014,1
DA:1015,1
DA:1016,1
DA:1017,1
DA:1018,1
DA:1020,1
DA:1021,1
DA:1022,1
DA:1023,1
DA:1024,1
DA:1025,1
DA:1026,1
DA:1027,1
DA:1028,1
DA:1029,1
DA:1030,1
DA:1031,1
DA:1032,1
DA:1033,1
DA:1034,1
DA:1035,1
DA:1036,1
DA:1037,1
DA:1039,1
DA:1040,1
DA:1041,1
DA:1042,1
DA:1043,1
DA:1044,1
DA:1045,1
DA:1046,1
DA:1047,1
DA:1048,1
DA:1049,1
DA:1050,1
DA:1051,1
DA:1052,1
DA:1053,1
DA:1054,1
DA:1055,1
DA:1056,1
DA:1058,1
DA:1059,1
DA:1060,1
DA:1061,1
DA:1062,1
DA:1063,1
DA:1064,1
DA:1065,1
DA:1066,1
DA:1067,1
DA:1068,1
DA:1069,1
DA:1070,1
DA:1071,1
DA:1072,1
DA:1073,1
DA:1074,1
DA:1075,1
DA:1077,1
DA:1078,1
DA:1079,1
DA:1080,1
DA:1081,1
DA:1082,1
DA:1083,1
DA:1084,1
DA:1085,1
DA:1086,1
DA:1087,1
DA:1088,1
DA:1089,1
DA:1090,1
DA:1091,1
DA:1092,1
DA:1093,1
DA:1094,1
DA:1096,1
DA:1097,1
DA:1098,1
DA:1099,1
DA:1100,1
DA:1101,1
DA:1102,1
DA:1103,1
DA:1104,1
DA:1105,1
DA:1106,1
DA:1107,1
DA:1108,1
DA:1109,1
DA:1110,1
DA:1111,1
DA:1112,1
DA:1113,1
DA:1115,1
DA:1116,1
DA:1117,1
DA:1118,1
DA:1119,1
DA:1120,1
DA:1121,1
DA:1122,1
DA:1123,1
DA:1124,1
DA:1125,1
DA:1126,1
DA:1127,1
DA:1128,1
DA:1129,1
DA:1130,1
DA:1131,1
DA:1132,1
DA:1134,1
DA:1135,1
DA:1136,1
DA:1137,1
DA:1138,1
DA:1139,1
DA:1140,1
DA:1141,1
DA:1142,1
DA:1143,1
DA:1144,1
DA:1145,1
DA:1146,1
DA:1147,1
DA:1148,1
DA:1149,1
DA:1150,1
DA:1151,1
DA:1153,1
DA:1154,1
DA:1155,1
DA:1156,1
DA:1157,1
DA:1158,1
DA:1159,1
DA:1160,1
DA:1161,1
DA:1162,1
DA:1163,1
DA:1164,1
DA:1165,1
DA:1166,1
DA:1167,1
DA:1168,1
DA:1169,1
DA:1170,1
DA:1172,1
DA:1173,1
DA:1174,1
DA:1175,1
DA:1176,1
DA:1177,1
DA:1178,1
DA:1179,1
DA:1180,1
DA:1181,1
DA:1182,1
DA:1183,1
DA:1184,1
DA:1185,1
DA:1186,1
DA:1187,1
DA:1188,1
DA:1189,1
DA:1190,1
DA:1191,1
DA:1193,1
DA:1194,1
DA:1195,1
DA:1196,1
DA:1197,1
DA:1198,1
DA:1199,1
DA:1200,1
DA:1201,1
DA:1202,1
DA:1203,1
DA:1204,1
DA:1205,1
DA:1206,1
DA:1207,1
DA:1208,1
DA:1209,1
DA:1210,1
DA:1211,1
DA:1212,1
DA:1214,1
DA:1215,1
DA:1216,1
DA:1217,1
DA:1218,1
DA:1219,1
DA:1220,1
DA:1221,1
DA:1222,1
DA:1223,1
DA:1224,1
DA:1225,1
DA:1226,1
DA:1227,1
DA:1228,1
DA:1229,1
DA:1230,1
DA:1231,1
DA:1232,1
DA:1233,1
DA:1235,1
DA:1236,1
DA:1237,1
DA:1238,1
DA:1239,1
DA:1240,1
DA:1241,1
DA:1242,1
DA:1243,1
DA:1244,1
DA:1245,1
DA:1246,1
DA:1247,1
DA:1248,1
DA:1249,1
DA:1250,1
DA:1251,1
DA:1252,1
DA:1253,1
DA:1254,1
DA:1256,1
DA:1257,1
DA:1258,1
DA:1259,1
DA:1260,1
DA:1261,1
DA:1262,1
DA:1263,1
DA:1264,1
DA:1265,1
DA:1266,1
DA:1267,1
DA:1268,1
DA:1269,1
DA:1270,1
DA:1271,1
DA:1272,1
DA:1273,1
DA:1274,1
DA:1275,1
DA:1276,1
DA:1277,1
DA:1278,1
DA:1279,1
DA:1281,1
DA:1282,1
DA:1283,1
DA:1284,1
DA:1285,1
DA:1286,1
DA:1287,1
DA:1288,1
DA:1289,1
DA:1290,1
DA:1291,1
DA:1292,1
DA:1293,1
DA:1294,1
DA:1295,1
DA:1296,1
DA:1297,1
DA:1298,1
DA:1299,1
DA:1300,1
DA:1301,1
DA:1302,1
DA:1303,1
DA:1305,1
DA:1306,1
DA:1307,1
DA:1308,1
DA:1309,1
DA:1310,1
DA:1311,1
DA:1312,1
DA:1313,1
DA:1314,1
DA:1315,1
DA:1316,1
DA:1317,1
DA:1318,1
DA:1319,1
DA:1320,1
DA:1321,1
DA:1322,1
DA:1323,1
DA:1324,1
DA:1325,1
DA:1326,1
DA:1328,1
DA:1329,1
DA:1330,1
DA:1331,1
DA:1332,1
DA:1333,1
DA:1334,1
DA:1335,1
DA:1336,1
DA:1337,1
DA:1338,1
DA:1339,1
DA:1340,1
DA:1341,1
DA:1342,1
DA:1343,1
DA:1344,1
DA:1345,1
DA:1346,1
DA:1347,1
DA:1348,1
DA:1349,1
DA:1351,1
DA:1352,1
DA:1353,1
DA:1354,1
DA:1355,1
DA:1356,1
DA:1357,1
DA:1358,1
DA:1359,1
DA:1360,1
DA:1361,1
DA:1362,1
DA:1363,1
DA:1364,1
DA:1365,1
DA:1366,1
DA:1367,1
DA:1368,1
DA:1369,1
DA:1370,1
DA:1371,1
DA:1372,1
DA:1374,1
DA:1375,1
DA:1376,1
DA:1377,1
DA:1378,1
DA:1379,1
DA:1380,1
DA:1381,1
DA:1382,1
DA:1383,1
DA:1384,1
DA:1385,1
DA:1386,1
DA:1387,1
DA:1388,1
DA:1389,1
DA:1390,1
DA:1392,1
DA:1393,1
DA:1394,1
DA:1395,1
DA:1396,1
DA:1397,1
DA:1398,1
DA:1399,1
DA:1400,1
DA:1401,1
DA:1402,1
DA:1403,1
DA:1404,1
DA:1405,1
DA:1406,1
DA:1407,1
DA:1408,1
DA:1409,1
DA:1410,1
DA:1411,1
DA:1412,1
DA:1413,1
DA:1414,1
DA:1416,1
DA:1417,1
DA:1418,1
DA:1419,1
DA:1420,1
DA:1421,1
DA:1422,1
DA:1423,1
DA:1424,1
DA:1425,1
DA:1426,1
DA:1427,1
DA:1428,1
DA:1429,1
DA:1430,1
DA:1431,1
DA:1432,1
DA:1433,1
DA:1434,1
DA:1435,1
DA:1436,1
DA:1437,1
DA:1438,1
DA:1440,1
DA:1441,1
DA:1442,1
DA:1443,1
DA:1444,1
DA:1445,1
DA:1446,1
DA:1447,1
DA:1448,1
DA:1449,1
DA:1450,1
DA:1451,1
DA:1452,1
DA:1453,1
DA:1454,1
DA:1455,1
DA:1456,1
DA:1458,1
DA:1459,1
DA:1460,1
DA:1461,1
DA:1462,1
DA:1463,1
DA:1464,1
DA:1465,1
DA:1466,1
DA:1467,1
DA:1468,1
DA:1469,1
DA:1470,1
DA:1471,1
DA:1472,1
DA:1473,1
DA:1474,1
DA:1475,1
DA:1476,1
DA:1477,1
DA:1479,1
DA:1480,1
DA:1481,1
DA:1482,1
DA:1483,1
DA:1484,1
DA:1485,1
DA:1486,1
DA:1487,1
DA:1488,1
DA:1489,1
DA:1490,1
DA:1491,1
DA:1492,1
DA:1493,1
DA:1494,1
DA:1495,1
DA:1496,1
DA:1497,1
DA:1498,1
DA:1500,1
DA:1501,1
DA:1502,1
DA:1503,1
DA:1504,1
DA:1505,1
DA:1506,1
DA:1507,1
DA:1509,1
DA:1510,1
DA:1511,1
DA:1512,1
DA:1513,1
DA:1514,1
DA:1515,1
DA:1516,1
DA:1517,1
DA:1519,1
DA:1520,1
DA:1521,1
DA:1522,1
DA:1523,1
DA:1524,1
DA:1525,1
DA:1526,1
DA:1527,1
DA:1528,1
DA:1529,1
DA:1530,1
DA:1531,1
DA:1532,1
DA:1534,1
DA:1535,1
DA:1536,1
DA:1537,1
DA:1538,1
DA:1539,1
DA:1540,1
DA:1541,1
DA:1543,1
DA:1544,1
DA:1545,1
DA:1546,1
DA:1547,1
DA:1548,1
DA:1549,1
DA:1550,1
DA:1551,1
DA:1553,1
DA:1554,1
DA:1555,1
DA:1556,1
DA:1557,1
DA:1558,1
DA:1559,1
DA:1560,1
DA:1561,1
DA:1562,1
DA:1563,1
DA:1564,1
DA:1565,1
DA:1567,1
DA:1568,1
DA:1569,1
DA:1570,1
DA:1571,1
DA:1572,1
DA:1573,1
DA:1574,1
DA:1575,1
DA:1576,1
DA:1577,1
DA:1578,1
DA:1579,1
DA:1580,1
DA:1581,1
DA:1583,1
DA:1584,1
DA:1585,1
DA:1586,1
DA:1587,1
DA:1588,1
DA:1589,1
DA:1591,1
DA:1592,1
DA:1593,1
DA:1594,1
DA:1595,1
DA:1596,1
DA:1597,1
DA:1598,1
DA:1599,1
DA:1600,1
DA:1601,1
DA:1602,1
DA:1603,1
DA:1604,1
DA:1605,1
DA:1606,1
DA:1607,1
DA:1608,1
DA:1610,1
DA:1611,1
DA:1612,1
DA:1613,1
DA:1614,1
DA:1615,1
DA:1616,1
DA:1617,1
DA:1618,1
DA:1619,1
DA:1620,1
DA:1621,1
DA:1622,1
DA:1623,1
DA:1624,1
DA:1625,1
DA:1626,1
DA:1627,1
DA:1629,1
DA:1630,1
DA:1631,1
DA:1632,1
DA:1633,1
DA:1634,1
DA:1635,1
DA:1636,1
DA:1637,1
DA:1638,1
DA:1639,1
DA:1640,1
DA:1641,1
DA:1642,1
DA:1643,1
DA:1644,1
DA:1645,1
DA:1646,1
DA:1648,1
DA:1649,1
DA:1650,1
DA:1651,1
DA:1652,1
DA:1653,1
DA:1654,1
DA:1655,1
DA:1656,1
DA:1657,1
DA:1658,1
DA:1659,1
DA:1660,1
DA:1661,1
DA:1662,1
DA:1663,1
DA:1664,1
DA:1665,1
DA:1667,1
DA:1668,1
DA:1669,6
DA:1670,6
DA:1671,6
DA:1672,6
DA:1673,6
DA:1674,6
DA:1675,6
DA:1676,6
DA:1677,6
DA:1678,6
DA:1679,6
DA:1680,6
DA:1681,6
DA:1682,6
DA:1683,6
DA:1684,6
DA:1685,6
DA:1686,6
DA:1687,6
DA:1688,6
DA:1689,6
DA:1690,6
DA:1691,6
DA:1692,6
DA:1693,6
DA:1694,6
DA:1695,6
DA:1696,1
DA:1697,1
DA:1698,1
DA:1699,1
DA:1700,1
DA:1701,1
DA:1702,1
DA:1703,1
DA:1704,1
DA:1705,1
DA:1706,1
DA:1707,1
DA:1708,1
DA:1709,1
DA:1710,1
DA:1711,1
DA:1712,1
DA:1713,1
DA:1714,1
DA:1715,1
DA:1716,1
DA:1717,1
DA:1718,1
DA:1719,1
DA:1720,1
DA:1721,1
DA:1722,1
DA:1723,1
DA:1724,1
DA:1725,1
DA:1726,1
BRF:0
BRH:0
LF:1474
LH:1429
end_of_record
SF:C:\Users\nexts\opensource\hayabusa\src\detections\rule\count.rs
FN:131,_RNvNtNtNtCsh5cigu73tlT_8hayabusa10detections4rule5count16create_count_key
FN:250,_RNvNtNtNtCsh5cigu73tlT_8hayabusa10detections4rule5count17get_sec_timeframe
FN:430,_RNvXs0_NtNtNtCsh5cigu73tlT_8hayabusa10detections4rule5countNtB5_15NoFieldStrategyNtB5_13CountStrategy5count
FN:79,_RNvNtNtNtCsh5cigu73tlT_8hayabusa10detections4rule5count25get_alias_value_in_record
FN:216,_RNvMNtNtNtCsh5cigu73tlT_8hayabusa10detections4rule5countNtB2_13TimeFrameInfo12parse_tframe
FN:395,_RNCNvXs_NtNtNtCsh5cigu73tlT_8hayabusa10detections4rule5countNtB6_13FieldStrategyNtB6_13CountStrategy17create_agg_result0Bc_
FN:171,_RNvNtNtNtCsh5cigu73tlT_8hayabusa10detections4rule5count14get_str_agg_eq
FN:348,_RNvXs_NtNtNtCsh5cigu73tlT_8hayabusa10detections4rule5countNtB4_13FieldStrategyNtB4_13CountStrategy8add_data
FN:150,_RNCNvNtNtNtCsh5cigu73tlT_8hayabusa10detections4rule5count16create_count_key0B9_
FN:387,_RNvXs_NtNtNtCsh5cigu73tlT_8hayabusa10detections4rule5countNtB4_13FieldStrategyNtB4_13CountStrategy17create_agg_result
FN:422,_RNvXs0_NtNtNtCsh5cigu73tlT_8hayabusa10detections4rule5countNtB5_15NoFieldStrategyNtB5_13CountStrategy11remove_data
FN:414,_RNvXs0_NtNtNtCsh5cigu73tlT_8hayabusa10detections4rule5countNtB5_15NoFieldStrategyNtB5_13CountStrategy8add_data
FN:469,_RNvNtNtNtCsh5cigu73tlT_8hayabusa10detections4rule5count26__get_timestamp_subsec_nano
FN:465,_RNvNtNtNtCsh5cigu73tlT_8hayabusa10detections4rule5count14__get_timestamp
FN:281,_RNvNtNtNtCsh5cigu73tlT_8hayabusa10detections4rule5count13select_aggcon
FN:500,_RNCNvNtNtNtCsh5cigu73tlT_8hayabusa10detections4rule5count15judge_timeframe0B9_
FN:63,_RNvNtNtNtCsh5cigu73tlT_8hayabusa10detections4rule5count7countup
FN:20,_RNvNtNtNtCsh5cigu73tlT_8hayabusa10detections4rule5count5count
FN:157,_RNvNtNtNtCsh5cigu73tlT_8hayabusa10detections4rule5count28aggregation_condition_select
FN:200,_RNvXs1_NtNtNtCsh5cigu73tlT_8hayabusa10detections4rule5countNtB5_17AggRecordTimeInfoNtNtCsjwgglklCTGv_4core5clone5Clone5cloneBb_
FN:454,_RNvNtNtNtCsh5cigu73tlT_8hayabusa10detections4rule5count15__create_counter
FN:434,_RNvXs0_NtNtNtCsh5cigu73tlT_8hayabusa10detections4rule5countNtB5_15NoFieldStrategyNtB5_13CountStrategy17create_agg_result
FN:487,_RNvNtNtNtCsh5cigu73tlT_8hayabusa10detections4rule5count15judge_timeframe
FN:474,_RNvNtNtNtCsh5cigu73tlT_8hayabusa10detections4rule5count16__is_in_timeframe
FN:383,_RNvXs_NtNtNtCsh5cigu73tlT_8hayabusa10detections4rule5countNtB4_13FieldStrategyNtB4_13CountStrategy5count
FN:363,_RNvXs_NtNtNtCsh5cigu73tlT_8hayabusa10detections4rule5countNtB4_13FieldStrategyNtB4_13CountStrategy11remove_data
FN:646,_RNvNtNtNtNtCsh5cigu73tlT_8hayabusa10detections4rule5count5testss_26test_count_no_field_and_by
FN:697,_RNvNtNtNtNtCsh5cigu73tlT_8hayabusa10detections4rule5count5testss_41test_count_no_field_and_by_with_timeframe
FN:1368,_RNCNvNtNtNtNtCsh5cigu73tlT_8hayabusa10detections4rule5count5tests20test_count_onerecord0Bb_
FN:1614,_RNCNvNtNtNtNtCsh5cigu73tlT_8hayabusa10detections4rule5count5tests26test_count_timeframe_twice0Bb_
FN:1135,_RNvNtNtNtNtCsh5cigu73tlT_8hayabusa10detections4rule5count5testss_25test_count_timeframe_hour
FN:1369,_RNvNtNtNtNtCsh5cigu73tlT_8hayabusa10detections4rule5count5testss_20test_count_onerecord
FN:1209,_RNvNtNtNtNtCsh5cigu73tlT_8hayabusa10detections4rule5count5testss_24test_count_timeframe_day
FN:1356,_RNCNvNtNtNtNtCsh5cigu73tlT_8hayabusa10detections4rule5count5tests19test_count_norecord0Bb_
FN:1066,_RNCNvNtNtNtNtCsh5cigu73tlT_8hayabusa10detections4rule5count5tests28test_count_timeframe_seconds0Bb_
FN:1316,_RNCNvNtNtNtNtCsh5cigu73tlT_8hayabusa10detections4rule5count5tests29test_count_timeframe_milsecs30Bb_
FN:1546,_RNvNtNtNtNtCsh5cigu73tlT_8hayabusa10detections4rule5count5testss_26test_count_timeframe_reset
FN:758,_RNvNtNtNtNtCsh5cigu73tlT_8hayabusa10detections4rule5count5testss_22test_count_exist_field
FN:1067,_RNvNtNtNtNtCsh5cigu73tlT_8hayabusa10detections4rule5count5testss_28test_count_timeframe_seconds
FN:1683,_RNvNtNtNtNtCsh5cigu73tlT_8hayabusa10detections4rule5count5tests15create_std_rule
FN:790,_RNvNtNtNtNtCsh5cigu73tlT_8hayabusa10detections4rule5count5testss_29test_count_exist_field_and_by
FN:695,_RNCNvNtNtNtNtCsh5cigu73tlT_8hayabusa10detections4rule5count5tests41test_count_no_field_and_by_with_timeframe0Bb_
FN:1015,_RNCNvNtNtNtNtCsh5cigu73tlT_8hayabusa10detections4rule5count5tests62test_count_exist_field_and_by_with_timeframe_other_field_value0Bb_
FN:200,_RNvXs2_NtNtNtCsh5cigu73tlT_8hayabusa10detections4rule5countNtB5_17AggRecordTimeInfoNtNtCsjwgglklCTGv_4core3fmt5Debug3fmt
FN:1456,_RNvNtNtNtNtCsh5cigu73tlT_8hayabusa10detections4rule5count5testss_21test_count_timeframe2
FN:644,_RNCNvNtNtNtNtCsh5cigu73tlT_8hayabusa10detections4rule5count5tests26test_count_no_field_and_by0Bb_
FN:966,_RNCNvNtNtNtNtCsh5cigu73tlT_8hayabusa10detections4rule5count5tests44test_count_exist_field_and_by_with_timeframe0Bb_
FN:1277,_RNvNtNtNtNtCsh5cigu73tlT_8hayabusa10detections4rule5count5testss_29test_count_timeframe_milsecs2
FN:1477,_RNvNtNtNtNtCsh5cigu73tlT_8hayabusa10detections4rule5count5testss_19test_count_sametime
FN:1429,_RNCNvNtNtNtNtCsh5cigu73tlT_8hayabusa10detections4rule5count5tests21test_count_timeframe10Bb_
FN:848,_RNvNtNtNtNtCsh5cigu73tlT_8hayabusa10detections4rule5count5testss_58test_count_exist_field_and_by_with_othervalue_in_timeframe
FN:906,_RNvNtNtNtNtCsh5cigu73tlT_8hayabusa10detections4rule5count5testss_35test_count_not_satisfy_in_timeframe
FN:1100,_RNCNvNtNtNtNtCsh5cigu73tlT_8hayabusa10detections4rule5count5tests29test_count_timeframe_minitues0Bb_
FN:1510,_RNvNtNtNtNtCsh5cigu73tlT_8hayabusa10detections4rule5count5testss_19test_count_sentinel
FN:578,_RNvNtNtNtNtCsh5cigu73tlT_8hayabusa10detections4rule5count5tests26create_dummy_stored_static
FN:1699,_RNvNtNtNtNtCsh5cigu73tlT_8hayabusa10detections4rule5count5tests11check_count
FN:1357,_RNvNtNtNtNtCsh5cigu73tlT_8hayabusa10detections4rule5count5testss_19test_count_norecord
FN:1476,_RNCNvNtNtNtNtCsh5cigu73tlT_8hayabusa10detections4rule5count5tests19test_count_sametime0Bb_
FN:1242,_RNCNvNtNtNtNtCsh5cigu73tlT_8hayabusa10detections4rule5count5tests28test_count_timeframe_milsecs0Bb_
FN:1455,_RNCNvNtNtNtNtCsh5cigu73tlT_8hayabusa10detections4rule5count5tests21test_count_timeframe20Bb_
FN:968,_RNvNtNtNtNtCsh5cigu73tlT_8hayabusa10detections4rule5count5testss_44test_count_exist_field_and_by_with_timeframe
FN:1243,_RNvNtNtNtNtCsh5cigu73tlT_8hayabusa10detections4rule5count5testss_28test_count_timeframe_milsecs
FN:1017,_RNvNtNtNtNtCsh5cigu73tlT_8hayabusa10detections4rule5count5testss_62test_count_exist_field_and_by_with_timeframe_other_field_value
FN:904,_RNCNvNtNtNtNtCsh5cigu73tlT_8hayabusa10detections4rule5count5tests35test_count_not_satisfy_in_timeframe0Bb_
FN:1208,_RNCNvNtNtNtNtCsh5cigu73tlT_8hayabusa10detections4rule5count5tests24test_count_timeframe_day0Bb_
FN:1662,_RNvNtNtNtNtCsh5cigu73tlT_8hayabusa10detections4rule5count5tests18test_create_recstr
FN:1615,_RNvNtNtNtNtCsh5cigu73tlT_8hayabusa10detections4rule5count5testss_26test_count_timeframe_twice
FN:846,_RNCNvNtNtNtNtCsh5cigu73tlT_8hayabusa10detections4rule5count5tests58test_count_exist_field_and_by_with_othervalue_in_timeframe0Bb_
FN:1134,_RNCNvNtNtNtNtCsh5cigu73tlT_8hayabusa10detections4rule5count5tests25test_count_timeframe_hour0Bb_
FN:1430,_RNvNtNtNtNtCsh5cigu73tlT_8hayabusa10detections4rule5count5testss_21test_count_timeframe1
FN:1545,_RNCNvNtNtNtNtCsh5cigu73tlT_8hayabusa10detections4rule5count5tests26test_count_timeframe_reset0Bb_
FN:207,_RNvXs3_NtNtNtCsh5cigu73tlT_8hayabusa10detections4rule5countNtB5_13TimeFrameInfoNtNtCsjwgglklCTGv_4core3fmt5Debug3fmt
FN:299,_RINvNtNtNtCsh5cigu73tlT_8hayabusa10detections4rule5count23__if_condition_fn_callerpppEB8_
FN:788,_RNCNvNtNtNtNtCsh5cigu73tlT_8hayabusa10detections4rule5count5tests29test_count_exist_field_and_by0Bb_
FN:1509,_RNCNvNtNtNtNtCsh5cigu73tlT_8hayabusa10detections4rule5count5tests19test_count_sentinel0Bb_
FN:1658,_RNvNtNtNtNtCsh5cigu73tlT_8hayabusa10detections4rule5count5tests22test_create_recstr_std
FN:1317,_RNvNtNtNtNtCsh5cigu73tlT_8hayabusa10detections4rule5count5testss_29test_count_timeframe_milsecs3
FN:756,_RNCNvNtNtNtNtCsh5cigu73tlT_8hayabusa10detections4rule5count5tests22test_count_exist_field0Bb_
FN:1101,_RNvNtNtNtNtCsh5cigu73tlT_8hayabusa10detections4rule5count5testss_29test_count_timeframe_minitues
FN:1276,_RNCNvNtNtNtNtCsh5cigu73tlT_8hayabusa10detections4rule5count5tests29test_count_timeframe_milsecs20Bb_
FN:395,_RNCNvXs_NtNtNtCsk6AfKij8NQT_8hayabusa10detections4rule5countNtB6_13FieldStrategyNtB6_13CountStrategy17create_agg_result0Bc_
FN:469,_RNvNtNtNtCsk6AfKij8NQT_8hayabusa10detections4rule5count26__get_timestamp_subsec_nano
FN:131,_RNvNtNtNtCsk6AfKij8NQT_8hayabusa10detections4rule5count16create_count_key
FN:250,_RNvNtNtNtCsk6AfKij8NQT_8hayabusa10detections4rule5count17get_sec_timeframe
FN:207,_RNvXs3_NtNtNtCsk6AfKij8NQT_8hayabusa10detections4rule5countNtB5_13TimeFrameInfoNtNtCsjwgglklCTGv_4core3fmt5Debug3fmt
FN:150,_RNCNvNtNtNtCsk6AfKij8NQT_8hayabusa10detections4rule5count16create_count_key0B9_
