SF:D:\opensource\hayabusa\src\afterfact.rs
FN:1609,_RNvNtCs5DPfXlAluY4_8hayabusa9afterfact14__get_timestamp
FN:90,_RNvXNtCs5DPfXlAluY4_8hayabusa9afterfactNtB2_13AfterfactInfoNtNtCshEwRaVhoEM3_4core7default7Default7default
FN:158,_RNvNtCs5DPfXlAluY4_8hayabusa9afterfact11init_writer
FN:201,_RNvNtCs5DPfXlAluY4_8hayabusa9afterfact16output_afterfact
FN:218,_RNvNtCs5DPfXlAluY4_8hayabusa9afterfact8emit_csv
FN:243,_RNvNtCs5DPfXlAluY4_8hayabusa9afterfact20output_afterfact_err
FN:248,_RNvNtCs5DPfXlAluY4_8hayabusa9afterfact22output_afterfact_inner
FN:293,_RNvNtCs5DPfXlAluY4_8hayabusa9afterfact14emit_csv_inner
FN:426,_RNCNvNtCs5DPfXlAluY4_8hayabusa9afterfact14emit_csv_inner0B5_
FN:431,_RNCNvNtCs5DPfXlAluY4_8hayabusa9afterfact14emit_csv_inners_0B5_
FN:482,_RNvNtCs5DPfXlAluY4_8hayabusa9afterfact19calc_statistic_info
FN:507,_RNCNvNtCs5DPfXlAluY4_8hayabusa9afterfact19calc_statistic_info0B5_
FN:575,_RNvNtCs5DPfXlAluY4_8hayabusa9afterfact27output_additional_afterfact
FN:898,_RNvNtCs5DPfXlAluY4_8hayabusa9afterfact16sort_detect_info
FN:899,_RNCNvNtCs5DPfXlAluY4_8hayabusa9afterfact16sort_detect_info0B5_
FN:926,_RNvNtCs5DPfXlAluY4_8hayabusa9afterfact16get_level_suffix
FN:938,_RNvNtCs5DPfXlAluY4_8hayabusa9afterfact19get_duplicate_idxes
FN:960,_RNCNvNtCs5DPfXlAluY4_8hayabusa9afterfact19get_duplicate_idxes0B5_
FN:973,_RNvNtCs5DPfXlAluY4_8hayabusa9afterfact23create_output_color_map
FN:996,_RNCNvNtCs5DPfXlAluY4_8hayabusa9afterfact23create_output_color_map0B5_
FN:1030,_RNvNtCs5DPfXlAluY4_8hayabusa9afterfact17__get_output_color
FN:1038,_RNvNtCs5DPfXlAluY4_8hayabusa9afterfact16__get_table_color
FN:1050,_RNvNtCs5DPfXlAluY4_8hayabusa9afterfact20__print_timeline_hist
FN:1097,_RNvNtCs5DPfXlAluY4_8hayabusa9afterfact19countup_aggregation
FN:1105,_RNCNvNtCs5DPfXlAluY4_8hayabusa9afterfact19countup_aggregation0B5_
FN:1121,_RNvNtCs5DPfXlAluY4_8hayabusa9afterfact27__get_serialized_disp_output
FN:1262,_RNvNtCs5DPfXlAluY4_8hayabusa9afterfact15__format_cellpos
FN:1271,_RNvNtCs5DPfXlAluY4_8hayabusa9afterfact21__print_unique_results
FN:1359,_RNvNtCs5DPfXlAluY4_8hayabusa9afterfact32__print_detection_summary_by_date
FN:1415,_RNvNtCs5DPfXlAluY4_8hayabusa9afterfact36__print_detection_summary_by_computer
FN:1434,_RNCNvNtCs5DPfXlAluY4_8hayabusa9afterfact36__print_detection_summary_by_computer0B5_
FN:1437,_RNCNvNtCs5DPfXlAluY4_8hayabusa9afterfact36__print_detection_summary_by_computers_0B5_
FN:1485,_RNvNtCs5DPfXlAluY4_8hayabusa9afterfact31__print_detection_summary_tables
FN:1519,_RNCNvNtCs5DPfXlAluY4_8hayabusa9afterfact31__print_detection_summary_tables0B5_
FN:1623,_RNvNtCs5DPfXlAluY4_8hayabusa9afterfact13__get_json_vec
FN:1626,_RNCNvNtCs5DPfXlAluY4_8hayabusa9afterfact13__get_json_vec0B5_
FN:1629,_RNCNvNtCs5DPfXlAluY4_8hayabusa9afterfact13__get_json_vecs_0B5_
FN:1641,_RNvNtCs5DPfXlAluY4_8hayabusa9afterfact26__create_json_output_format
FN:1650,_RNCNvNtCs5DPfXlAluY4_8hayabusa9afterfact26__create_json_output_format0B5_
FN:1661,_RNCNvNtCs5DPfXlAluY4_8hayabusa9afterfact26__create_json_output_formats_0B5_
FN:1711,_RNvNtCs5DPfXlAluY4_8hayabusa9afterfact23__convert_valid_json_str
FN:1749,_RNvNtCs5DPfXlAluY4_8hayabusa9afterfact15output_json_str
FN:1819,_RNCNvNtCs5DPfXlAluY4_8hayabusa9afterfact15output_json_str0B5_
FN:1927,_RNCNvNtCs5DPfXlAluY4_8hayabusa9afterfact15output_json_strs_0B5_
FN:2004,_RNCNvNtCs5DPfXlAluY4_8hayabusa9afterfact15output_json_strs0_0B5_
FN:2026,_RNCNvNtCs5DPfXlAluY4_8hayabusa9afterfact15output_json_strs1_0B5_
FN:2045,_RNCNvNtCs5DPfXlAluY4_8hayabusa9afterfact15output_json_strs2_0B5_
FN:2055,_RNvNtCs5DPfXlAluY4_8hayabusa9afterfact28output_detected_rule_authors
FN:2061,_RNCNvNtCs5DPfXlAluY4_8hayabusa9afterfact28output_detected_rule_authors0B5_
FN:2110,_RNvNtCs5DPfXlAluY4_8hayabusa9afterfact19extract_author_name
FN:2128,_RNCNvNtCs5DPfXlAluY4_8hayabusa9afterfact19extract_author_name0B5_
FN:2138,_RNCNvNtCs5DPfXlAluY4_8hayabusa9afterfact19extract_author_names_0B5_
FN:2140,_RNCNCNvNtCs5DPfXlAluY4_8hayabusa9afterfact19extract_author_names_00B7_
FN:2151,_RNvNtCs5DPfXlAluY4_8hayabusa9afterfact36__output_html_computer_by_mitre_attck
FN:2158,_RNCNvNtCs5DPfXlAluY4_8hayabusa9afterfact36__output_html_computer_by_mitre_attck0B5_
FN:1682,_RNCNvNtCs5DPfXlAluY4_8hayabusa9afterfact26__create_json_output_formats0_0B5_
FN:1698,_RNCNvNtCs5DPfXlAluY4_8hayabusa9afterfact26__create_json_output_formats1_0B5_
FN:1936,_RNCNvNtCs5DPfXlAluY4_8hayabusa9afterfact15output_json_strs3_0B5_
FN:2016,_RNCNvNtCs5DPfXlAluY4_8hayabusa9afterfact15output_json_strs4_0B5_
FN:3944,_RNvNtNtCsNhz5SapXcJ_8hayabusa9afterfact5tests18check_hashmap_data
FN:2211,_RNvNtNtCsNhz5SapXcJ_8hayabusa9afterfact5testss_20test_emit_csv_output
FN:2547,_RNvNtNtCsNhz5SapXcJ_8hayabusa9afterfact5testss_39test_emit_csv_output_with_multiline_opt
FN:2877,_RNvNtNtCsNhz5SapXcJ_8hayabusa9afterfact5testss_46test_emit_csv_output_with_remove_duplicate_opt
FN:3208,_RNvNtNtCsNhz5SapXcJ_8hayabusa9afterfact5testss_47test_emit_json_output_with_remove_duplicate_opt
FN:3613,_RNvNtNtCsNhz5SapXcJ_8hayabusa9afterfact5testss_51test_emit_json_output_with_multiple_data_in_details
FN:3957,_RNvNtNtCsNhz5SapXcJ_8hayabusa9afterfact5testss_35test_set_output_color_no_color_flag
FN:3963,_RNvNtNtCsNhz5SapXcJ_8hayabusa9afterfact5testss_25test_emit_csv_json_output
FN:4238,_RNvNtNtCsNhz5SapXcJ_8hayabusa9afterfact5testss_26test_emit_csv_jsonl_output
FN:201,_RNvNtCsNhz5SapXcJ_8hayabusa9afterfact16output_afterfact
FN:218,_RNvNtCsNhz5SapXcJ_8hayabusa9afterfact8emit_csv
FN:243,_RNvNtCsNhz5SapXcJ_8hayabusa9afterfact20output_afterfact_err
FN:1609,_RNvNtCsNhz5SapXcJ_8hayabusa9afterfact14__get_timestamp
FN:90,_RNvXNtCsNhz5SapXcJ_8hayabusa9afterfactNtB2_13AfterfactInfoNtNtCshEwRaVhoEM3_4core7default7Default7default
FN:158,_RNvNtCsNhz5SapXcJ_8hayabusa9afterfact11init_writer
FN:248,_RNvNtCsNhz5SapXcJ_8hayabusa9afterfact22output_afterfact_inner
FN:293,_RNvNtCsNhz5SapXcJ_8hayabusa9afterfact14emit_csv_inner
FN:426,_RNCNvNtCsNhz5SapXcJ_8hayabusa9afterfact14emit_csv_inner0B5_
FN:431,_RNCNvNtCsNhz5SapXcJ_8hayabusa9afterfact14emit_csv_inners_0B5_
FN:482,_RNvNtCsNhz5SapXcJ_8hayabusa9afterfact19calc_statistic_info
FN:507,_RNCNvNtCsNhz5SapXcJ_8hayabusa9afterfact19calc_statistic_info0B5_
FN:575,_RNvNtCsNhz5SapXcJ_8hayabusa9afterfact27output_additional_afterfact
FN:898,_RNvNtCsNhz5SapXcJ_8hayabusa9afterfact16sort_detect_info
FN:899,_RNCNvNtCsNhz5SapXcJ_8hayabusa9afterfact16sort_detect_info0B5_
FN:926,_RNvNtCsNhz5SapXcJ_8hayabusa9afterfact16get_level_suffix
FN:938,_RNvNtCsNhz5SapXcJ_8hayabusa9afterfact19get_duplicate_idxes
FN:960,_RNCNvNtCsNhz5SapXcJ_8hayabusa9afterfact19get_duplicate_idxes0B5_
FN:973,_RNvNtCsNhz5SapXcJ_8hayabusa9afterfact23create_output_color_map
FN:996,_RNCNvNtCsNhz5SapXcJ_8hayabusa9afterfact23create_output_color_map0B5_
FN:1030,_RNvNtCsNhz5SapXcJ_8hayabusa9afterfact17__get_output_color
FN:1038,_RNvNtCsNhz5SapXcJ_8hayabusa9afterfact16__get_table_color
FN:1050,_RNvNtCsNhz5SapXcJ_8hayabusa9afterfact20__print_timeline_hist
FN:1097,_RNvNtCsNhz5SapXcJ_8hayabusa9afterfact19countup_aggregation
FN:1105,_RNCNvNtCsNhz5SapXcJ_8hayabusa9afterfact19countup_aggregation0B5_
FN:1121,_RNvNtCsNhz5SapXcJ_8hayabusa9afterfact27__get_serialized_disp_output
FN:1262,_RNvNtCsNhz5SapXcJ_8hayabusa9afterfact15__format_cellpos
FN:1271,_RNvNtCsNhz5SapXcJ_8hayabusa9afterfact21__print_unique_results
FN:1359,_RNvNtCsNhz5SapXcJ_8hayabusa9afterfact32__print_detection_summary_by_date
FN:1415,_RNvNtCsNhz5SapXcJ_8hayabusa9afterfact36__print_detection_summary_by_computer
FN:1434,_RNCNvNtCsNhz5SapXcJ_8hayabusa9afterfact36__print_detection_summary_by_computer0B5_
FN:1437,_RNCNvNtCsNhz5SapXcJ_8hayabusa9afterfact36__print_detection_summary_by_computers_0B5_
FN:1485,_RNvNtCsNhz5SapXcJ_8hayabusa9afterfact31__print_detection_summary_tables
FN:1519,_RNCNvNtCsNhz5SapXcJ_8hayabusa9afterfact31__print_detection_summary_tables0B5_
FN:1623,_RNvNtCsNhz5SapXcJ_8hayabusa9afterfact13__get_json_vec
FN:1626,_RNCNvNtCsNhz5SapXcJ_8hayabusa9afterfact13__get_json_vec0B5_
FN:1629,_RNCNvNtCsNhz5SapXcJ_8hayabusa9afterfact13__get_json_vecs_0B5_
FN:1641,_RNvNtCsNhz5SapXcJ_8hayabusa9afterfact26__create_json_output_format
FN:1650,_RNCNvNtCsNhz5SapXcJ_8hayabusa9afterfact26__create_json_output_format0B5_
FN:1661,_RNCNvNtCsNhz5SapXcJ_8hayabusa9afterfact26__create_json_output_formats_0B5_
FN:1711,_RNvNtCsNhz5SapXcJ_8hayabusa9afterfact23__convert_valid_json_str
FN:1749,_RNvNtCsNhz5SapXcJ_8hayabusa9afterfact15output_json_str
FN:1819,_RNCNvNtCsNhz5SapXcJ_8hayabusa9afterfact15output_json_str0B5_
FN:1927,_RNCNvNtCsNhz5SapXcJ_8hayabusa9afterfact15output_json_strs_0B5_
FN:2004,_RNCNvNtCsNhz5SapXcJ_8hayabusa9afterfact15output_json_strs0_0B5_
FN:2026,_RNCNvNtCsNhz5SapXcJ_8hayabusa9afterfact15output_json_strs1_0B5_
FN:2045,_RNCNvNtCsNhz5SapXcJ_8hayabusa9afterfact15output_json_strs2_0B5_
FN:2055,_RNvNtCsNhz5SapXcJ_8hayabusa9afterfact28output_detected_rule_authors
FN:2061,_RNCNvNtCsNhz5SapXcJ_8hayabusa9afterfact28output_detected_rule_authors0B5_
FN:2110,_RNvNtCsNhz5SapXcJ_8hayabusa9afterfact19extract_author_name
FN:2128,_RNCNvNtCsNhz5SapXcJ_8hayabusa9afterfact19extract_author_name0B5_
FN:2138,_RNCNvNtCsNhz5SapXcJ_8hayabusa9afterfact19extract_author_names_0B5_
FN:2140,_RNCNCNvNtCsNhz5SapXcJ_8hayabusa9afterfact19extract_author_names_00B7_
FN:2151,_RNvNtCsNhz5SapXcJ_8hayabusa9afterfact36__output_html_computer_by_mitre_attck
FN:2158,_RNCNvNtCsNhz5SapXcJ_8hayabusa9afterfact36__output_html_computer_by_mitre_attck0B5_
FN:1682,_RNCNvNtCsNhz5SapXcJ_8hayabusa9afterfact26__create_json_output_formats0_0B5_
FN:1698,_RNCNvNtCsNhz5SapXcJ_8hayabusa9afterfact26__create_json_output_formats1_0B5_
FN:1936,_RNCNvNtCsNhz5SapXcJ_8hayabusa9afterfact15output_json_strs3_0B5_
FN:2016,_RNCNvNtCsNhz5SapXcJ_8hayabusa9afterfact15output_json_strs4_0B5_
FNDA:0,_RNvNtCs5DPfXlAluY4_8hayabusa9afterfact14__get_timestamp
FNDA:8,_RNvXNtCs5DPfXlAluY4_8hayabusa9afterfactNtB2_13AfterfactInfoNtNtCshEwRaVhoEM3_4core7default7Default7default
FNDA:8,_RNvNtCs5DPfXlAluY4_8hayabusa9afterfact11init_writer
FNDA:2,_RNvNtCs5DPfXlAluY4_8hayabusa9afterfact16output_afterfact
FNDA:0,_RNvNtCs5DPfXlAluY4_8hayabusa9afterfact8emit_csv
FNDA:0,_RNvNtCs5DPfXlAluY4_8hayabusa9afterfact20output_afterfact_err
FNDA:2,_RNvNtCs5DPfXlAluY4_8hayabusa9afterfact22output_afterfact_inner
FNDA:2,_RNvNtCs5DPfXlAluY4_8hayabusa9afterfact14emit_csv_inner
FNDA:9,_RNCNvNtCs5DPfXlAluY4_8hayabusa9afterfact14emit_csv_inner0B5_
FNDA:9,_RNCNvNtCs5DPfXlAluY4_8hayabusa9afterfact14emit_csv_inners_0B5_
FNDA:2,_RNvNtCs5DPfXlAluY4_8hayabusa9afterfact19calc_statistic_info
FNDA:0,_RNCNvNtCs5DPfXlAluY4_8hayabusa9afterfact19calc_statistic_info0B5_
FNDA:2,_RNvNtCs5DPfXlAluY4_8hayabusa9afterfact27output_additional_afterfact
FNDA:2,_RNvNtCs5DPfXlAluY4_8hayabusa9afterfact16sort_detect_info
FNDA:0,_RNCNvNtCs5DPfXlAluY4_8hayabusa9afterfact16sort_detect_info0B5_
FNDA:0,_RNvNtCs5DPfXlAluY4_8hayabusa9afterfact16get_level_suffix
FNDA:0,_RNvNtCs5DPfXlAluY4_8hayabusa9afterfact19get_duplicate_idxes
FNDA:0,_RNCNvNtCs5DPfXlAluY4_8hayabusa9afterfact19get_duplicate_idxes0B5_
FNDA:2,_RNvNtCs5DPfXlAluY4_8hayabusa9afterfact23create_output_color_map
FNDA:8,_RNCNvNtCs5DPfXlAluY4_8hayabusa9afterfact23create_output_color_map0B5_
FNDA:0,_RNvNtCs5DPfXlAluY4_8hayabusa9afterfact17__get_output_color
FNDA:0,_RNvNtCs5DPfXlAluY4_8hayabusa9afterfact16__get_table_color
FNDA:0,_RNvNtCs5DPfXlAluY4_8hayabusa9afterfact20__print_timeline_hist
FNDA:0,_RNvNtCs5DPfXlAluY4_8hayabusa9afterfact19countup_aggregation
FNDA:0,_RNCNvNtCs5DPfXlAluY4_8hayabusa9afterfact19countup_aggregation0B5_
FNDA:0,_RNvNtCs5DPfXlAluY4_8hayabusa9afterfact27__get_serialized_disp_output
FNDA:0,_RNvNtCs5DPfXlAluY4_8hayabusa9afterfact15__format_cellpos
FNDA:0,_RNvNtCs5DPfXlAluY4_8hayabusa9afterfact21__print_unique_results
FNDA:0,_RNvNtCs5DPfXlAluY4_8hayabusa9afterfact32__print_detection_summary_by_date
FNDA:0,_RNvNtCs5DPfXlAluY4_8hayabusa9afterfact36__print_detection_summary_by_computer
FNDA:0,_RNCNvNtCs5DPfXlAluY4_8hayabusa9afterfact36__print_detection_summary_by_computer0B5_
FNDA:0,_RNCNvNtCs5DPfXlAluY4_8hayabusa9afterfact36__print_detection_summary_by_computers_0B5_
FNDA:0,_RNvNtCs5DPfXlAluY4_8hayabusa9afterfact31__print_detection_summary_tables
FNDA:0,_RNCNvNtCs5DPfXlAluY4_8hayabusa9afterfact31__print_detection_summary_tables0B5_
FNDA:9,_RNvNtCs5DPfXlAluY4_8hayabusa9afterfact13__get_json_vec
FNDA:0,_RNCNvNtCs5DPfXlAluY4_8hayabusa9afterfact13__get_json_vec0B5_
FNDA:10,_RNCNvNtCs5DPfXlAluY4_8hayabusa9afterfact13__get_json_vecs_0B5_
FNDA:49,_RNvNtCs5DPfXlAluY4_8hayabusa9afterfact26__create_json_output_format
FNDA:0,_RNCNvNtCs5DPfXlAluY4_8hayabusa9afterfact26__create_json_output_format0B5_
FNDA:522,_RNCNvNtCs5DPfXlAluY4_8hayabusa9afterfact26__create_json_output_formats_0B5_
FNDA:91,_RNvNtCs5DPfXlAluY4_8hayabusa9afterfact23__convert_valid_json_str
FNDA:1,_RNvNtCs5DPfXlAluY4_8hayabusa9afterfact15output_json_str
FNDA:6,_RNCNvNtCs5DPfXlAluY4_8hayabusa9afterfact15output_json_str0B5_
FNDA:606,_RNCNvNtCs5DPfXlAluY4_8hayabusa9afterfact15output_json_strs_0B5_
FNDA:0,_RNCNvNtCs5DPfXlAluY4_8hayabusa9afterfact15output_json_strs0_0B5_
FNDA:0,_RNCNvNtCs5DPfXlAluY4_8hayabusa9afterfact15output_json_strs1_0B5_
FNDA:0,_RNCNvNtCs5DPfXlAluY4_8hayabusa9afterfact15output_json_strs2_0B5_
FNDA:0,_RNvNtCs5DPfXlAluY4_8hayabusa9afterfact28output_detected_rule_authors
FNDA:0,_RNCNvNtCs5DPfXlAluY4_8hayabusa9afterfact28output_detected_rule_authors0B5_
FNDA:0,_RNvNtCs5DPfXlAluY4_8hayabusa9afterfact19extract_author_name
FNDA:0,_RNCNvNtCs5DPfXlAluY4_8hayabusa9afterfact19extract_author_name0B5_
FNDA:0,_RNCNvNtCs5DPfXlAluY4_8hayabusa9afterfact19extract_author_names_0B5_
FNDA:0,_RNCNCNvNtCs5DPfXlAluY4_8hayabusa9afterfact19extract_author_names_00B7_
FNDA:0,_RNvNtCs5DPfXlAluY4_8hayabusa9afterfact36__output_html_computer_by_mitre_attck
FNDA:0,_RNCNvNtCs5DPfXlAluY4_8hayabusa9afterfact36__output_html_computer_by_mitre_attck0B5_
FNDA:0,_RNCNvNtCs5DPfXlAluY4_8hayabusa9afterfact26__create_json_output_formats0_0B5_
FNDA:1734,_RNCNvNtCs5DPfXlAluY4_8hayabusa9afterfact26__create_json_output_formats1_0B5_
FNDA:0,_RNCNvNtCs5DPfXlAluY4_8hayabusa9afterfact15output_json_strs3_0B5_
FNDA:0,_RNCNvNtCs5DPfXlAluY4_8hayabusa9afterfact15output_json_strs4_0B5_
FNDA:1,_RNvNtNtCsNhz5SapXcJ_8hayabusa9afterfact5tests18check_hashmap_data
FNDA:1,_RNvNtNtCsNhz5SapXcJ_8hayabusa9afterfact5testss_20test_emit_csv_output
FNDA:1,_RNvNtNtCsNhz5SapXcJ_8hayabusa9afterfact5testss_39test_emit_csv_output_with_multiline_opt
FNDA:1,_RNvNtNtCsNhz5SapXcJ_8hayabusa9afterfact5testss_46test_emit_csv_output_with_remove_duplicate_opt
FNDA:1,_RNvNtNtCsNhz5SapXcJ_8hayabusa9afterfact5testss_47test_emit_json_output_with_remove_duplicate_opt
FNDA:1,_RNvNtNtCsNhz5SapXcJ_8hayabusa9afterfact5testss_51test_emit_json_output_with_multiple_data_in_details
FNDA:1,_RNvNtNtCsNhz5SapXcJ_8hayabusa9afterfact5testss_35test_set_output_color_no_color_flag
FNDA:1,_RNvNtNtCsNhz5SapXcJ_8hayabusa9afterfact5testss_25test_emit_csv_json_output
FNDA:1,_RNvNtNtCsNhz5SapXcJ_8hayabusa9afterfact5testss_26test_emit_csv_jsonl_output
FNDA:0,_RNvNtCsNhz5SapXcJ_8hayabusa9afterfact16output_afterfact
FNDA:0,_RNvNtCsNhz5SapXcJ_8hayabusa9afterfact8emit_csv
FNDA:0,_RNvNtCsNhz5SapXcJ_8hayabusa9afterfact20output_afterfact_err
FNDA:0,_RNvNtCsNhz5SapXcJ_8hayabusa9afterfact14__get_timestamp
FNDA:7,_RNvXNtCsNhz5SapXcJ_8hayabusa9afterfactNtB2_13AfterfactInfoNtNtCshEwRaVhoEM3_4core7default7Default7default
FNDA:7,_RNvNtCsNhz5SapXcJ_8hayabusa9afterfact11init_writer
FNDA:7,_RNvNtCsNhz5SapXcJ_8hayabusa9afterfact22output_afterfact_inner
FNDA:7,_RNvNtCsNhz5SapXcJ_8hayabusa9afterfact14emit_csv_inner
FNDA:36,_RNCNvNtCsNhz5SapXcJ_8hayabusa9afterfact14emit_csv_inner0B5_
FNDA:72,_RNCNvNtCsNhz5SapXcJ_8hayabusa9afterfact14emit_csv_inners_0B5_
FNDA:7,_RNvNtCsNhz5SapXcJ_8hayabusa9afterfact19calc_statistic_info
FNDA:0,_RNCNvNtCsNhz5SapXcJ_8hayabusa9afterfact19calc_statistic_info0B5_
FNDA:7,_RNvNtCsNhz5SapXcJ_8hayabusa9afterfact27output_additional_afterfact
FNDA:7,_RNvNtCsNhz5SapXcJ_8hayabusa9afterfact16sort_detect_info
FNDA:4,_RNCNvNtCsNhz5SapXcJ_8hayabusa9afterfact16sort_detect_info0B5_
FNDA:8,_RNvNtCsNhz5SapXcJ_8hayabusa9afterfact16get_level_suffix
FNDA:0,_RNvNtCsNhz5SapXcJ_8hayabusa9afterfact19get_duplicate_idxes
FNDA:0,_RNCNvNtCsNhz5SapXcJ_8hayabusa9afterfact19get_duplicate_idxes0B5_
FNDA:8,_RNvNtCsNhz5SapXcJ_8hayabusa9afterfact23create_output_color_map
FNDA:28,_RNCNvNtCsNhz5SapXcJ_8hayabusa9afterfact23create_output_color_map0B5_
FNDA:0,_RNvNtCsNhz5SapXcJ_8hayabusa9afterfact17__get_output_color
FNDA:0,_RNvNtCsNhz5SapXcJ_8hayabusa9afterfact16__get_table_color
FNDA:0,_RNvNtCsNhz5SapXcJ_8hayabusa9afterfact20__print_timeline_hist
FNDA:0,_RNvNtCsNhz5SapXcJ_8hayabusa9afterfact19countup_aggregation
FNDA:0,_RNCNvNtCsNhz5SapXcJ_8hayabusa9afterfact19countup_aggregation0B5_
FNDA:0,_RNvNtCsNhz5SapXcJ_8hayabusa9afterfact27__get_serialized_disp_output
FNDA:0,_RNvNtCsNhz5SapXcJ_8hayabusa9afterfact15__format_cellpos
FNDA:0,_RNvNtCsNhz5SapXcJ_8hayabusa9afterfact21__print_unique_results
FNDA:0,_RNvNtCsNhz5SapXcJ_8hayabusa9afterfact32__print_detection_summary_by_date
FNDA:0,_RNvNtCsNhz5SapXcJ_8hayabusa9afterfact36__print_detection_summary_by_computer
FNDA:0,_RNCNvNtCsNhz5SapXcJ_8hayabusa9afterfact36__print_detection_summary_by_computer0B5_
FNDA:0,_RNCNvNtCsNhz5SapXcJ_8hayabusa9afterfact36__print_detection_summary_by_computers_0B5_
FNDA:0,_RNvNtCsNhz5SapXcJ_8hayabusa9afterfact31__print_detection_summary_tables
FNDA:0,_RNCNvNtCsNhz5SapXcJ_8hayabusa9afterfact31__print_detection_summary_tables0B5_
FNDA:65,_RNvNtCsNhz5SapXcJ_8hayabusa9afterfact13__get_json_vec
FNDA:10,_RNCNvNtCsNhz5SapXcJ_8hayabusa9afterfact13__get_json_vec0B5_
FNDA:8,_RNCNvNtCsNhz5SapXcJ_8hayabusa9afterfact13__get_json_vecs_0B5_
FNDA:66,_RNvNtCsNhz5SapXcJ_8hayabusa9afterfact26__create_json_output_format
FNDA:0,_RNCNvNtCsNhz5SapXcJ_8hayabusa9afterfact26__create_json_output_format0B5_
FNDA:656,_RNCNvNtCsNhz5SapXcJ_8hayabusa9afterfact26__create_json_output_formats_0B5_
FNDA:73,_RNvNtCsNhz5SapXcJ_8hayabusa9afterfact23__convert_valid_json_str
FNDA:5,_RNvNtCsNhz5SapXcJ_8hayabusa9afterfact15output_json_str
FNDA:30,_RNCNvNtCsNhz5SapXcJ_8hayabusa9afterfact15output_json_str0B5_
FNDA:6,_RNCNvNtCsNhz5SapXcJ_8hayabusa9afterfact15output_json_strs_0B5_
FNDA:20,_RNCNvNtCsNhz5SapXcJ_8hayabusa9afterfact15output_json_strs0_0B5_
FNDA:6,_RNCNvNtCsNhz5SapXcJ_8hayabusa9afterfact15output_json_strs1_0B5_
FNDA:13,_RNCNvNtCsNhz5SapXcJ_8hayabusa9afterfact15output_json_strs2_0B5_
FNDA:0,_RNvNtCsNhz5SapXcJ_8hayabusa9afterfact28output_detected_rule_authors
FNDA:0,_RNCNvNtCsNhz5SapXcJ_8hayabusa9afterfact28output_detected_rule_authors0B5_
FNDA:0,_RNvNtCsNhz5SapXcJ_8hayabusa9afterfact19extract_author_name
FNDA:0,_RNCNvNtCsNhz5SapXcJ_8hayabusa9afterfact19extract_author_name0B5_
FNDA:0,_RNCNvNtCsNhz5SapXcJ_8hayabusa9afterfact19extract_author_names_0B5_
FNDA:0,_RNCNCNvNtCsNhz5SapXcJ_8hayabusa9afterfact19extract_author_names_00B7_
FNDA:0,_RNvNtCsNhz5SapXcJ_8hayabusa9afterfact36__output_html_computer_by_mitre_attck
FNDA:0,_RNCNvNtCsNhz5SapXcJ_8hayabusa9afterfact36__output_html_computer_by_mitre_attck0B5_
FNDA:380,_RNCNvNtCsNhz5SapXcJ_8hayabusa9afterfact26__create_json_output_formats0_0B5_
FNDA:460,_RNCNvNtCsNhz5SapXcJ_8hayabusa9afterfact26__create_json_output_formats1_0B5_
FNDA:2,_RNCNvNtCsNhz5SapXcJ_8hayabusa9afterfact15output_json_strs3_0B5_
FNDA:10,_RNCNvNtCsNhz5SapXcJ_8hayabusa9afterfact15output_json_strs4_0B5_
FNF:68
FNH:39
DA:90,15
DA:92,15
DA:93,15
DA:94,15
DA:96,15
DA:97,15
DA:98,15
DA:99,15
DA:100,15
DA:101,15
DA:102,15
DA:103,15
DA:104,15
DA:105,15
DA:106,15
DA:107,15
DA:108,15
DA:110,105
DA:111,90
DA:112,90
DA:113,90
DA:114,90
DA:115,90
DA:116,90
DA:117,90
DA:119,15
DA:120,15
DA:121,15
DA:122,15
DA:123,15
DA:124,15
DA:125,15
DA:126,15
DA:127,15
DA:128,15
DA:129,15
DA:130,15
DA:131,15
DA:132,15
DA:133,15
DA:134,15
DA:135,15
DA:136,15
DA:137,15
DA:138,15
DA:139,15
DA:140,15
DA:141,15
DA:142,15
DA:143,15
DA:144,15
DA:145,15
DA:146,15
DA:147,15
DA:148,15
DA:158,15
DA:159,15
DA:160,15
DA:161,15
DA:162,15
DA:163,15
DA:164,15
DA:165,15
DA:167,12
DA:168,12
DA:169,0
DA:170,0
DA:171,0
DA:175,3
DA:176,3
DA:177,3
DA:180,15
DA:181,5
DA:182,5
DA:183,5
DA:184,5
DA:185,5
DA:186,7
DA:187,7
DA:188,7
DA:189,3
DA:193,15
DA:194,15
DA:195,15
DA:196,15
DA:197,15
DA:198,15
DA:199,15
DA:201,2
DA:202,2
DA:203,2
DA:204,2
DA:205,2
DA:206,2
DA:207,2
DA:208,2
DA:209,2
DA:210,2
DA:211,2
DA:212,2
DA:213,2
DA:214,0
DA:215,2
DA:216,2
DA:218,0
DA:219,0
DA:220,0
DA:221,0
DA:222,0
DA:223,0
DA:224,0
DA:225,0
DA:226,0
DA:227,0
DA:228,0
DA:229,0
DA:230,0
DA:231,0
DA:232,0
DA:233,0
DA:234,0
DA:235,0
DA:236,0
DA:237,0
DA:238,0
DA:240,0
DA:241,0
DA:243,0
DA:244,0
DA:245,0
DA:248,9
DA:249,9
DA:250,9
DA:251,9
DA:252,9
DA:253,9
DA:254,9
DA:255,0
DA:256,9
DA:259,9
DA:260,9
DA:261,9
DA:262,9
DA:263,9
DA:264,9
DA:266,0
DA:268,9
DA:271,9
DA:272,9
DA:273,9
DA:274,9
DA:275,9
DA:276,9
DA:277,9
DA:280,9
DA:281,9
DA:282,9
DA:283,9
DA:284,9
DA:285,9
DA:286,9
DA:287,9
DA:288,9
DA:289,9
DA:290,9
DA:291,9
DA:293,9
DA:294,9
DA:295,9
DA:296,9
DA:297,9
DA:298,9
DA:299,9
DA:300,9
DA:301,9
DA:302,9
DA:303,9
DA:304,9
DA:305,1
DA:306,1
DA:307,8
DA:308,9
DA:309,9
DA:310,9
DA:311,9
DA:312,9
DA:313,9
DA:314,9
DA:315,9
DA:316,9
DA:317,9
DA:318,9
DA:319,9
DA:320,9
DA:321,5
DA:322,5
DA:323,5
DA:324,5
DA:325,5
DA:326,4
DA:327,4
DA:329,0
DA:332,9
DA:333,13
DA:334,13
DA:335,0
DA:336,13
DA:337,13
DA:339,0
DA:340,0
DA:341,0
DA:342,0
DA:343,0
DA:344,0
DA:345,0
DA:346,0
DA:347,0
DA:348,0
DA:349,0
DA:350,0
DA:351,0
DA:352,0
DA:353,0
DA:354,0
DA:355,0
DA:356,0
DA:357,0
DA:358,0
DA:359,0
DA:360,0
DA:361,0
DA:362,0
DA:363,0
DA:364,0
DA:365,0
DA:366,0
DA:367,0
DA:368,0
DA:369,0
DA:370,0
DA:371,0
DA:372,0
DA:373,13
DA:375,1
DA:376,1
DA:377,1
DA:378,1
DA:379,1
DA:380,1
DA:381,1
DA:382,1
DA:383,1
DA:384,1
DA:385,0
DA:386,0
DA:387,0
DA:388,0
DA:389,0
DA:390,0
DA:391,0
DA:392,0
DA:393,1
DA:394,1
DA:395,1
DA:397,12
DA:399,5
DA:400,5
DA:401,5
DA:402,5
DA:403,5
DA:404,5
DA:405,5
DA:406,5
DA:407,5
DA:408,5
DA:409,0
DA:410,0
DA:411,0
DA:412,0
DA:413,0
DA:414,0
DA:415,0
DA:416,0
DA:417,5
DA:418,5
DA:419,5
DA:423,7
DA:424,4
DA:425,4
DA:426,45
DA:427,4
DA:428,3
DA:429,7
DA:430,7
DA:431,81
DA:432,81
DA:436,14
DA:437,4
DA:438,4
DA:439,4
DA:440,4
DA:441,4
DA:442,4
DA:444,2
DA:446,12
DA:447,12
DA:448,12
DA:449,12
DA:450,12
DA:451,12
DA:452,12
DA:453,12
DA:454,12
DA:455,12
DA:457,14
DA:458,14
DA:460,67
DA:461,67
DA:462,67
DA:463,67
DA:464,67
DA:465,67
DA:466,67
DA:467,67
DA:468,67
DA:469,67
DA:471,81
DA:475,9
DA:476,9
DA:477,0
DA:479,9
DA:480,9
DA:482,9
DA:483,9
DA:484,9
DA:485,9
DA:486,9
DA:487,9
DA:488,9
DA:489,13
DA:490,13
DA:491,0
DA:492,13
DA:493,13
DA:494,13
DA:495,13
DA:496,13
DA:497,13
DA:498,13
DA:499,13
DA:500,13
DA:502,13
DA:503,0
DA:504,0
DA:505,0
DA:506,0
DA:507,0
DA:508,0
DA:509,0
DA:510,0
DA:511,0
DA:512,0
DA:513,0
DA:514,0
DA:515,0
DA:516,0
DA:518,0
DA:519,0
DA:520,0
DA:521,0
DA:522,0
DA:523,0
DA:524,0
DA:525,0
DA:526,0
DA:527,0
DA:528,0
DA:529,0
DA:530,0
DA:531,0
DA:532,0
DA:533,0
DA:534,0
DA:535,0
DA:536,0
DA:538,0
DA:539,0
DA:540,0
DA:541,0
DA:542,0
DA:543,0
DA:544,0
DA:545,0
DA:546,0
DA:547,0
DA:548,0
DA:549,0
DA:550,0
DA:551,0
DA:552,0
DA:553,0
DA:554,0
DA:555,0
DA:556,0
DA:557,0
DA:558,0
DA:559,0
DA:560,0
DA:561,0
DA:562,0
DA:563,0
DA:564,0
DA:565,0
DA:566,0
DA:567,0
DA:568,0
DA:569,0
DA:570,0
DA:571,13
DA:573,9
DA:575,9
DA:576,9
DA:577,9
DA:578,9
DA:579,9
DA:580,9
DA:581,0
DA:582,9
DA:584,9
DA:585,9
DA:586,0
DA:588,9
DA:589,9
DA:590,9
DA:591,9
DA:592,9
DA:593,9
DA:594,9
DA:595,9
DA:596,9
DA:597,9
DA:598,9
DA:599,9
DA:600,9
DA:601,9
DA:602,9
DA:603,9
DA:604,0
DA:605,0
DA:606,0
DA:607,0
DA:608,0
DA:609,0
DA:610,0
DA:611,0
DA:612,0
DA:613,0
DA:614,0
DA:615,0
DA:616,0
DA:617,0
DA:618,0
DA:619,0
DA:620,0
DA:621,0
DA:622,0
DA:623,0
DA:624,0
DA:625,0
DA:626,0
DA:627,0
DA:628,0
DA:629,0
DA:630,0
DA:632,0
DA:634,0
DA:635,9
DA:637,9
DA:638,9
DA:639,0
DA:640,0
DA:641,9
DA:643,9
DA:644,9
DA:645,0
DA:646,0
DA:647,0
DA:648,0
DA:649,0
DA:650,0
DA:651,0
DA:652,0
DA:653,0
DA:654,0
DA:655,0
DA:656,0
DA:657,0
DA:658,0
DA:659,0
DA:660,0
DA:661,0
DA:662,0
DA:663,0
DA:664,0
DA:665,0
DA:666,0
DA:667,0
DA:668,0
DA:669,0
DA:670,0
DA:671,0
DA:672,0
DA:673,0
DA:674,0
DA:675,0
DA:676,0
DA:677,0
DA:678,0
DA:679,0
DA:680,0
DA:681,0
DA:682,0
DA:683,0
DA:684,0
DA:685,0
DA:687,0
DA:688,0
DA:689,0
DA:690,0
DA:692,0
DA:694,0
DA:695,0
DA:696,0
DA:697,0
DA:698,0
DA:699,0
DA:700,0
DA:701,0
DA:702,0
DA:703,0
DA:704,0
DA:705,0
DA:706,0
DA:707,0
DA:708,0
DA:709,0
DA:710,0
DA:711,0
DA:712,0
DA:713,0
DA:714,0
DA:715,0
DA:716,0
DA:717,0
DA:718,0
DA:719,0
DA:720,0
DA:721,0
DA:722,0
DA:723,0
DA:724,0
DA:725,0
DA:726,0
DA:727,0
DA:728,0
DA:729,0
DA:730,0
DA:731,0
DA:732,0
DA:733,0
DA:734,0
DA:735,0
DA:736,0
DA:737,0
DA:738,0
DA:739,0
DA:740,0
DA:741,0
DA:742,0
DA:743,0
DA:744,0
DA:745,0
DA:746,0
DA:747,0
DA:748,0
DA:749,0
DA:750,0
DA:751,0
DA:752,0
DA:753,0
DA:754,0
DA:755,0
DA:756,0
DA:757,0
DA:758,0
DA:759,0
DA:760,0
DA:761,0
DA:762,0
DA:763,0
DA:764,0
DA:765,0
DA:766,0
DA:767,0
DA:768,0
DA:769,0
DA:770,0
DA:771,0
DA:772,0
DA:773,0
DA:774,0
DA:775,0
DA:776,0
DA:777,0
DA:778,0
DA:779,0
DA:780,0
DA:781,0
DA:782,0
DA:783,0
DA:784,0
DA:785,0
DA:786,0
DA:787,0
DA:788,0
DA:789,0
DA:790,0
DA:791,0
DA:792,0
DA:793,0
DA:794,0
DA:795,0
DA:796,0
DA:797,0
DA:798,0
DA:799,0
DA:800,0
DA:801,0
DA:802,0
DA:803,0
DA:804,0
DA:805,0
DA:806,0
DA:807,0
DA:808,0
DA:809,0
DA:810,0
DA:811,0
DA:812,0
DA:813,0
DA:814,0
DA:815,0
DA:816,0
DA:817,0
DA:818,0
DA:819,0
DA:820,0
DA:821,0
DA:822,0
DA:823,0
DA:824,0
DA:825,0
DA:826,0
DA:827,0
DA:828,0
DA:829,0
DA:830,0
DA:831,0
DA:832,0
DA:833,0
DA:835,0
DA:836,0
DA:837,0
DA:838,0
DA:839,0
DA:840,0
DA:841,0
DA:842,0
DA:843,0
DA:844,0
DA:845,0
DA:846,0
DA:847,0
DA:848,0
DA:849,0
DA:850,0
DA:851,0
DA:852,0
DA:853,0
DA:854,0
DA:855,0
DA:856,0
DA:857,0
DA:858,0
DA:859,0
DA:860,0
DA:861,0
DA:863,0
DA:864,0
DA:865,0
DA:866,0
DA:867,0
DA:868,0
DA:869,0
DA:870,0
DA:871,0
DA:872,0
DA:873,0
DA:875,0
DA:876,0
DA:877,0
DA:878,0
DA:879,0
DA:880,0
DA:881,0
DA:882,0
DA:883,0
DA:884,0
DA:885,0
DA:886,0
DA:887,0
DA:888,0
DA:889,0
DA:890,0
DA:891,9
DA:892,9
DA:893,0
DA:894,0
DA:895,9
DA:896,9
DA:898,9
DA:899,9
DA:900,4
DA:901,4
DA:902,0
DA:903,4
DA:904,4
DA:905,4
DA:906,4
DA:907,4
DA:908,4
DA:909,0
DA:910,4
DA:911,4
DA:912,4
DA:913,4
DA:914,0
DA:915,4
DA:916,4
DA:917,4
DA:918,4
DA:919,0
DA:920,4
DA:921,4
DA:922,4
DA:923,9
DA:924,9
DA:926,8
DA:927,8
DA:928,8
DA:929,8
DA:930,8
DA:931,8
DA:932,8
DA:933,8
DA:934,8
DA:935,8
DA:936,8
DA:938,0
DA:939,0
DA:940,0
DA:941,0
DA:942,0
DA:943,0
DA:944,0
DA:945,0
DA:946,0
DA:947,0
DA:948,0
DA:949,0
DA:950,0
DA:951,0
DA:953,0
DA:954,0
DA:955,0
DA:956,0
DA:957,0
DA:958,0
DA:959,0
DA:960,0
DA:961,0
DA:962,0
DA:963,0
DA:964,0
DA:965,0
DA:966,0
DA:969,0
DA:970,0
DA:973,10
DA:974,10
DA:975,10
DA:976,10
DA:977,10
DA:978,10
DA:979,10
DA:980,10
DA:981,10
DA:982,10
DA:983,10
DA:984,10
DA:985,10
DA:986,1
DA:987,9
DA:988,9
DA:989,9
DA:990,0
DA:991,0
DA:992,0
DA:993,0
DA:996,36
DA:997,36
DA:998,0
DA:999,36
DA:1000,36
DA:1001,36
DA:1002,36
DA:1003,36
DA:1004,0
DA:1005,0
DA:1006,0
DA:1007,0
DA:1008,0
DA:1009,0
DA:1010,36
DA:1011,36
DA:1012,36
DA:1013,0
DA:1014,36
DA:1015,36
DA:1016,36
DA:1017,36
DA:1018,36
DA:1019,36
DA:1020,36
DA:1021,36
DA:1022,36
DA:1023,36
DA:1024,36
DA:1025,36
DA:1026,36
DA:1027,9
DA:1028,10
DA:1030,0
DA:1031,0
DA:1032,0
DA:1033,0
DA:1034,0
DA:1035,0
DA:1036,0
DA:1038,0
DA:1039,0
DA:1040,0
DA:1041,0
DA:1042,0
DA:1043,0
DA:1044,0
DA:1045,0
DA:1046,0
DA:1047,0
DA:1050,0
DA:1051,0
DA:1052,0
DA:1053,0
DA:1054,0
DA:1055,0
DA:1056,0
DA:1057,0
DA:1058,0
DA:1059,0
DA:1060,0
DA:1061,0
DA:1062,0
DA:1063,0
DA:1064,0
DA:1065,0
DA:1066,0
DA:1067,0
DA:1068,0
DA:1069,0
DA:1070,0
DA:1071,0
DA:1072,0
DA:1074,0
DA:1075,0
DA:1077,0
DA:1079,0
DA:1080,0
DA:1081,0
DA:1082,0
DA:1083,0
DA:1084,0
DA:1085,0
DA:1086,0
DA:1087,0
DA:1088,0
DA:1089,0
DA:1090,0
DA:1091,0
DA:1092,0
DA:1094,0
DA:1095,0
DA:1097,0
DA:1098,0
DA:1099,0
DA:1100,0
DA:1101,0
DA:1102,0
DA:1103,0
DA:1104,0
DA:1105,0
DA:1106,0
DA:1107,0
DA:1108,0
DA:1109,0
DA:1121,0
DA:1122,0
DA:1123,0
DA:1124,0
DA:1125,0
DA:1126,0
DA:1127,0
DA:1128,0
DA:1129,0
DA:1130,0
DA:1131,0
DA:1132,0
DA:1133,0
DA:1134,0
DA:1135,0
DA:1136,0
DA:1137,0
DA:1139,0
DA:1142,0
DA:1143,0
DA:1144,0
DA:1145,0
DA:1146,0
DA:1147,0
DA:1148,0
DA:1149,0
DA:1150,0
DA:1151,0
DA:1152,0
DA:1153,0
DA:1154,0
DA:1155,0
DA:1156,0
DA:1157,0
DA:1158,0
DA:1159,0
DA:1160,0
DA:1161,0
DA:1162,0
DA:1164,0
DA:1165,0
DA:1166,0
DA:1167,0
DA:1168,0
DA:1170,0
DA:1172,0
DA:1173,0
DA:1174,0
DA:1175,0
DA:1176,0
DA:1177,0
DA:1178,0
DA:1179,0
DA:1180,0
DA:1181,0
DA:1182,0
DA:1183,0
DA:1184,0
DA:1185,0
DA:1186,0
DA:1187,0
DA:1188,0
DA:1190,0
DA:1191,0
DA:1192,0
DA:1193,0
DA:1196,0
DA:1197,0
DA:1198,0
DA:1199,0
DA:1200,0
DA:1201,0
DA:1202,0
DA:1203,0
DA:1204,0
DA:1205,0
DA:1206,0
DA:1207,0
DA:1208,0
DA:1209,0
DA:1210,0
DA:1211,0
DA:1212,0
DA:1213,0
DA:1214,0
DA:1215,0
DA:1216,0
DA:1217,0
DA:1218,0
DA:1219,0
DA:1220,0
DA:1221,0
DA:1222,0
DA:1223,0
DA:1224,0
DA:1225,0
DA:1227,0
DA:1230,0
DA:1234,0
DA:1235,0
DA:1236,0
DA:1237,0
DA:1238,0
DA:1239,0
DA:1240,0
DA:1241,0
DA:1244,0
DA:1245,0
DA:1246,0
DA:1247,0
DA:1248,0
DA:1249,0
DA:1250,0
DA:1251,0
DA:1252,0
DA:1253,0
DA:1254,0
DA:1255,0
DA:1256,0
DA:1259,0
DA:1262,0
DA:1263,0
DA:1264,0
DA:1265,0
DA:1266,0
DA:1268,0
DA:1271,0
DA:1272,0
DA:1273,0
DA:1274,0
DA:1275,0
DA:1276,0
DA:1277,0
DA:1278,0
DA:1279,0
DA:1280,0
DA:1281,0
DA:1282,0
DA:1283,0
DA:1284,0
DA:1285,0
DA:1286,0
DA:1287,0
DA:1288,0
DA:1289,0
DA:1290,0
DA:1291,0
DA:1292,0
DA:1293,0
DA:1294,0
DA:1295,0
DA:1296,0
DA:1297,0
DA:1298,0
DA:1299,0
DA:1300,0
DA:1301,0
DA:1302,0
DA:1304,0
DA:1305,0
DA:1306,0
DA:1307,0
DA:1308,0
DA:1309,0
DA:1310,0
DA:1311,0
DA:1313,0
DA:1315,0
DA:1316,0
DA:1318,0
DA:1320,0
DA:1321,0
DA:1322,0
DA:1323,0
DA:1324,0
DA:1325,0
DA:1326,0
DA:1327,0
DA:1328,0
DA:1329,0
DA:1330,0
DA:1331,0
DA:1332,0
DA:1333,0
DA:1334,0
DA:1335,0
DA:1336,0
DA:1337,0
DA:1338,0
DA:1339,0
DA:1340,0
DA:1341,0
DA:1342,0
DA:1343,0
DA:1344,0
DA:1345,0
DA:1346,0
DA:1347,0
DA:1348,0
DA:1349,0
DA:1350,0
DA:1352,0
DA:1353,0
DA:1354,0
DA:1355,0
DA:1356,0
DA:1359,0
DA:1360,0
DA:1361,0
DA:1362,0
DA:1363,0
DA:1364,0
DA:1365,0
DA:1366,0
DA:1367,0
DA:1368,0
DA:1369,0
DA:1370,0
DA:1371,0
DA:1372,0
DA:1373,0
DA:1374,0
DA:1375,0
DA:1377,0
DA:1378,0
DA:1379,0
DA:1380,0
DA:1381,0
DA:1382,0
DA:1383,0
DA:1384,0
DA:1385,0
DA:1386,0
DA:1387,0
DA:1389,0
DA:1390,0
DA:1391,0
DA:1392,0
DA:1393,0
DA:1394,0
DA:1395,0
DA:1396,0
DA:1397,0
DA:1398,0
DA:1399,0
DA:1400,0
DA:1401,0
DA:1402,0
DA:1403,0
DA:1404,0
DA:1405,0
DA:1406,0
DA:1407,0
DA:1408,0
DA:1409,0
DA:1411,0
DA:1412,0
DA:1415,0
DA:1416,0
DA:1417,0
DA:1418,0
DA:1419,0
DA:1420,0
DA:1421,0
DA:1422,0
DA:1423,0
DA:1424,0
DA:1425,0
DA:1426,0
DA:1427,0
DA:1429,0
DA:1430,0
DA:1431,0
DA:1432,0
DA:1433,0
DA:1434,0
DA:1435,0
DA:1436,0
DA:1437,0
DA:1438,0
DA:1439,0
DA:1440,0
DA:1441,0
DA:1442,0
DA:1443,0
DA:1444,0
DA:1445,0
DA:1446,0
DA:1447,0
DA:1448,0
DA:1449,0
DA:1450,0
DA:1451,0
DA:1452,0
DA:1453,0
DA:1454,0
DA:1455,0
DA:1456,0
DA:1457,0
DA:1458,0
DA:1459,0
DA:1460,0
DA:1461,0
DA:1462,0
DA:1463,0
DA:1465,0
DA:1468,0
DA:1469,0
DA:1470,0
DA:1471,0
DA:1472,0
DA:1473,0
DA:1474,0
DA:1475,0
DA:1476,0
DA:1477,0
DA:1478,0
DA:1479,0
DA:1481,0
DA:1482,0
DA:1485,0
DA:1486,0
DA:1487,0
DA:1488,0
DA:1489,0
DA:1490,0
DA:1491,0
DA:1492,0
DA:1493,0
DA:1494,0
DA:1495,0
DA:1496,0
DA:1497,0
DA:1498,0
DA:1499,0
DA:1500,0
DA:1501,0
DA:1502,0
DA:1503,0
DA:1504,0
DA:1505,0
DA:1506,0
DA:1507,0
DA:1508,0
DA:1509,0
DA:1510,0
DA:1511,0
DA:1512,0
DA:1513,0
DA:1514,0
DA:1515,0
DA:1516,0
DA:1517,0
DA:1518,0
DA:1519,0
DA:1520,0
DA:1521,0
DA:1522,0
DA:1523,0
DA:1524,0
DA:1525,0
DA:1526,0
DA:1527,0
DA:1528,0
DA:1529,0
DA:1530,0
DA:1531,0
DA:1532,0
DA:1533,0
DA:1534,0
DA:1535,0
DA:1536,0
DA:1537,0
DA:1538,0
DA:1539,0
DA:1540,0
DA:1541,0
DA:1542,0
DA:1544,0
DA:1545,0
DA:1547,0
DA:1549,0
DA:1550,0
DA:1551,0
DA:1553,0
DA:1555,0
DA:1556,0
DA:1557,0
DA:1558,0
DA:1560,0
DA:1561,0
DA:1563,0
DA:1565,0
DA:1566,0
DA:1567,0
DA:1568,0
DA:1571,0
DA:1572,0
DA:1573,0
DA:1574,0
DA:1575,0
DA:1576,0
DA:1577,0
DA:1578,0
DA:1579,0
DA:1580,0
DA:1581,0
DA:1582,0
DA:1583,0
DA:1584,0
DA:1585,0
DA:1586,0
DA:1587,0
DA:1588,0
DA:1589,0
DA:1590,0
DA:1591,0
DA:1592,0
DA:1593,0
DA:1595,0
DA:1596,0
DA:1597,0
DA:1598,0
DA:1599,0
DA:1600,0
DA:1601,0
DA:1602,0
DA:1603,0
DA:1604,0
DA:1605,0
DA:1606,0
DA:1609,0
DA:1610,0
DA:1611,0
DA:1613,0
DA:1614,0
DA:1615,0
DA:1616,0
DA:1617,0
DA:1618,0
DA:1620,0
DA:1623,74
DA:1624,74
DA:1626,10
DA:1629,18
DA:1630,10
DA:1631,9
DA:1633,1
DA:1636,54
DA:1638,74
DA:1641,115
DA:1642,115
DA:1643,115
DA:1644,115
DA:1645,115
DA:1646,115
DA:1647,115
DA:1648,115
DA:1649,0
DA:1650,0
DA:1651,0
DA:1652,0
DA:1654,0
DA:1656,0
DA:1657,0
DA:1659,115
DA:1660,115
DA:1661,1178
DA:1662,1178
DA:1663,0
DA:1665,1178
DA:1667,1178
DA:1668,115
DA:1671,115
DA:1672,26
DA:1673,89
DA:1674,0
DA:1675,89
DA:1676,11
DA:1677,11
DA:1678,11
DA:1679,11
DA:1680,11
DA:1681,11
DA:1682,380
DA:1683,380
DA:1684,0
DA:1686,380
DA:1688,380
DA:1689,11
DA:1690,11
DA:1692,78
DA:1693,78
DA:1694,78
DA:1695,78
DA:1696,78
DA:1697,78
DA:1698,2194
DA:1699,2194
DA:1700,0
DA:1702,2194
DA:1704,2194
DA:1705,78
DA:1706,78
DA:1708,115
DA:1711,164
DA:1712,164
DA:1713,164
DA:1714,0
DA:1715,0
DA:1717,0
DA:1719,164
DA:1720,164
DA:1721,0
DA:1722,164
DA:1723,0
DA:1724,0
DA:1725,0
DA:1726,0
DA:1727,0
DA:1729,0
DA:1731,0
DA:1732,0
DA:1733,0
DA:1734,0
DA:1735,0
DA:1736,0
DA:1737,0
DA:1738,0
DA:1739,0
DA:1741,164
DA:1742,164
DA:1743,164
DA:1744,164
DA:1746,164
DA:1749,6
DA:1750,6
DA:1751,6
DA:1752,6
DA:1753,6
DA:1754,6
DA:1755,6
DA:1756,6
DA:1757,6
DA:1758,6
DA:1759,6
DA:1760,6
DA:1761,6
DA:1762,39
DA:1763,39
DA:1765,6
DA:1766,3
DA:1767,3
DA:1768,0
DA:1769,0
DA:1772,6
DA:1773,6
DA:1774,6
DA:1775,6
DA:1776,6
DA:1777,6
DA:1778,6
DA:1779,6
DA:1780,6
DA:1781,6
DA:1782,3
DA:1783,3
DA:1784,3
DA:1785,3
DA:1786,3
DA:1787,3
DA:1788,5
DA:1789,6
DA:1790,2
DA:1791,2
DA:1792,2
DA:1793,2
DA:1794,4
DA:1795,4
DA:1796,4
DA:1797,4
DA:1798,4
DA:1800,33
DA:1801,33
DA:1802,33
DA:1805,3
DA:1806,3
DA:1807,3
DA:1808,6
DA:1809,6
DA:1810,6
DA:1811,6
DA:1812,6
DA:1813,6
DA:1814,6
DA:1815,6
DA:1816,6
DA:1817,6
DA:1818,6
DA:1819,36
DA:1820,36
DA:1821,36
DA:1822,36
DA:1823,6
DA:1824,6
DA:1825,74
DA:1826,74
DA:1827,74
DA:1828,74
DA:1829,69
DA:1830,74
DA:1833,69
DA:1835,58
DA:1836,58
DA:1837,58
DA:1838,58
DA:1839,58
DA:1840,58
DA:1841,58
DA:1842,58
DA:1843,58
DA:1844,58
DA:1846,16
DA:1853,0
DA:1854,0
DA:1855,0
DA:1856,0
DA:1857,0
DA:1858,0
DA:1859,0
DA:1860,0
DA:1861,0
DA:1862,0
DA:1864,6
DA:1865,6
DA:1866,1
DA:1867,4
DA:1868,1
DA:1869,0
DA:1871,6
DA:1872,6
DA:1873,6
DA:1874,6
DA:1875,0
DA:1876,6
DA:1877,6
DA:1878,6
DA:1879,6
DA:1880,0
DA:1881,0
DA:1882,0
DA:1884,0
DA:1886,0
DA:1887,0
DA:1888,0
DA:1889,0
DA:1890,0
DA:1891,0
DA:1892,0
DA:1893,0
DA:1894,0
DA:1895,0
DA:1896,0
DA:1897,0
DA:1898,0
DA:1899,6
DA:1900,6
DA:1901,6
DA:1902,6
DA:1903,6
DA:1904,6
DA:1905,48
DA:1906,48
DA:1907,48
DA:1908,48
DA:1909,48
DA:1910,48
DA:1911,48
DA:1912,47
DA:1913,47
DA:1914,47
DA:1915,48
DA:1916,48
DA:1917,48
DA:1918,48
DA:1921,6
DA:1922,6
DA:1923,6
DA:1924,6
DA:1925,47
DA:1926,47
DA:1927,612
DA:1928,47
DA:1929,47
DA:1930,47
DA:1931,47
DA:1932,46
DA:1934,1
DA:1935,1
DA:1936,2
DA:1937,1
DA:1939,47
DA:1940,41
DA:1941,41
DA:1942,41
DA:1943,41
DA:1944,41
DA:1945,41
DA:1946,41
DA:1951,6
DA:1952,6
DA:1953,0
DA:1955,6
DA:1957,6
DA:1958,6
DA:1959,6
DA:1960,6
DA:1961,6
DA:1962,6
DA:1963,6
DA:1969,6
DA:1970,0
DA:1971,0
DA:1973,0
DA:1974,0
DA:1975,0
DA:1976,0
DA:1977,0
DA:1978,0
DA:1979,0
DA:1981,0
DA:1983,0
DA:1984,0
DA:1985,0
DA:1986,0
DA:1987,0
DA:1988,0
DA:1989,0
DA:1990,0
DA:1991,0
DA:1992,0
DA:1994,6
DA:1995,6
DA:1996,6
DA:1997,1
DA:1998,5
DA:1999,5
DA:2000,5
DA:2003,10
DA:2004,20
DA:2005,10
DA:2006,10
DA:2007,0
DA:2008,10
DA:2009,10
DA:2010,10
DA:2011,10
DA:2012,10
DA:2013,10
DA:2014,10
DA:2015,10
DA:2016,10
DA:2017,10
DA:2018,10
DA:2019,10
DA:2020,0
DA:2021,10
DA:2023,10
DA:2025,10
DA:2026,6
DA:2028,8
DA:2030,10
DA:2031,10
DA:2032,10
DA:2033,10
DA:2034,10
DA:2035,10
DA:2036,10
DA:2038,0
DA:2042,6
DA:2044,1
DA:2045,13
DA:2046,1
DA:2047,1
DA:2050,5
DA:2052,6
DA:2055,0
DA:2056,0
DA:2057,0
DA:2058,0
DA:2059,0
DA:2060,0
DA:2061,0
DA:2062,0
DA:2063,0
DA:2065,0
DA:2068,0
DA:2069,0
DA:2070,0
DA:2071,0
DA:2072,0
DA:2073,0
DA:2074,0
DA:2075,0
DA:2076,0
DA:2077,0
DA:2078,0
DA:2079,0
DA:2080,0
DA:2081,0
DA:2083,0
DA:2085,0
DA:2086,0
DA:2087,0
DA:2088,0
DA:2089,0
DA:2090,0
DA:2092,0
DA:2093,0
DA:2094,0
DA:2096,0
DA:2097,0
DA:2098,0
DA:2099,0
DA:2100,0
DA:2101,0
DA:2102,0
DA:2103,0
DA:2104,0
DA:2105,0
DA:2106,0
DA:2107,0
DA:2110,0
DA:2111,0
DA:2112,0
DA:2113,0
DA:2114,0
DA:2115,0
DA:2118,0
DA:2120,0
DA:2121,0
DA:2122,0
DA:2123,0
DA:2124,0
DA:2126,0
DA:2127,0
DA:2128,0
DA:2129,0
DA:2130,0
DA:2131,0
DA:2132,0
DA:2133,0
DA:2134,0
DA:2136,0
DA:2137,0
DA:2138,0
DA:2139,0
DA:2140,0
DA:2141,0
DA:2142,0
DA:2143,0
DA:2144,0
DA:2147,0
DA:2148,0
DA:2151,0
DA:2152,0
DA:2153,0
DA:2154,0
DA:2155,0
DA:2156,0
DA:2157,0
DA:2158,0
DA:2159,0
DA:2160,0
DA:2161,0
DA:2162,0
DA:2163,0
DA:2164,0
DA:2166,0
DA:2167,0
DA:2168,0
DA:2169,0
DA:2170,0
DA:2171,0
DA:2172,0
DA:2173,0
DA:2174,0
DA:2176,0
DA:2211,1
DA:2212,1
DA:2213,1
DA:2214,1
DA:2215,1
DA:2216,1
DA:2217,1
DA:2218,1
DA:2219,1
DA:2220,1
DA:2221,1
DA:2222,1
DA:2223,1
DA:2224,1
DA:2225,1
DA:2226,1
DA:2227,1
DA:2228,1
DA:2229,1
DA:2230,1
DA:2231,1
DA:2232,1
DA:2233,1
DA:2234,1
DA:2235,1
DA:2236,1
DA:2237,1
DA:2238,1
DA:2239,1
DA:2240,1
DA:2241,1
DA:2242,1
DA:2243,1
DA:2244,1
DA:2245,1
DA:2246,1
DA:2247,1
DA:2248,1
DA:2249,1
DA:2250,1
DA:2251,1
DA:2252,1
DA:2253,1
DA:2254,1
DA:2255,1
DA:2256,1
DA:2257,1
DA:2258,1
DA:2259,1
DA:2260,1
DA:2261,1
DA:2262,1
DA:2263,1
DA:2264,1
DA:2265,1
DA:2266,1
DA:2267,1
DA:2268,1
DA:2269,1
DA:2270,1
DA:2271,1
DA:2272,1
DA:2273,1
DA:2274,1
DA:2275,1
DA:2276,1
DA:2277,1
DA:2278,1
DA:2279,1
DA:2280,1
DA:2281,1
DA:2282,1
DA:2283,1
DA:2284,1
DA:2285,1
DA:2286,1
DA:2287,1
DA:2288,1
DA:2289,1
DA:2290,1
DA:2291,1
DA:2292,1
DA:2293,1
DA:2294,1
DA:2295,1
DA:2296,1
DA:2297,1
DA:2298,1
DA:2299,1
DA:2300,1
DA:2301,1
DA:2302,1
DA:2303,1
DA:2304,1
DA:2305,1
DA:2306,1
DA:2307,1
DA:2308,1
DA:2309,1
DA:2310,1
DA:2311,1
DA:2312,1
DA:2313,1
DA:2314,1
DA:2315,1
DA:2316,1
DA:2317,1
DA:2318,1
DA:2319,1
DA:2320,1
DA:2321,1
DA:2322,1
DA:2323,1
DA:2324,1
DA:2325,1
DA:2326,1
DA:2327,1
DA:2328,1
DA:2329,1
DA:2330,1
DA:2331,1
DA:2332,1
DA:2333,1
DA:2334,1
DA:2335,1
DA:2336,1
DA:2337,1
DA:2338,1
DA:2339,1
DA:2340,1
DA:2341,1
DA:2342,1
DA:2343,1
DA:2344,1
DA:2345,1
DA:2346,1
DA:2347,1
DA:2348,1
DA:2349,1
DA:2350,1
DA:2351,1
DA:2352,1
DA:2353,1
DA:2354,1
DA:2355,1
DA:2356,1
DA:2357,1
DA:2358,1
DA:2359,1
DA:2360,1
DA:2361,1
DA:2362,1
DA:2363,1
DA:2364,1
DA:2365,1
DA:2366,1
DA:2367,1
DA:2368,1
DA:2369,1
DA:2370,1
DA:2371,1
DA:2372,1
DA:2373,1
DA:2374,1
DA:2375,1
DA:2376,1
DA:2377,1
DA:2378,1
DA:2379,1
DA:2380,1
DA:2381,1
DA:2382,1
DA:2383,1
DA:2384,1
DA:2385,1
DA:2386,1
DA:2387,1
DA:2388,1
DA:2389,1
DA:2390,1
DA:2391,1
DA:2392,1
DA:2393,1
DA:2394,1
DA:2395,1
DA:2396,1
DA:2397,1
DA:2398,1
DA:2399,1
DA:2400,1
DA:2401,1
DA:2402,1
DA:2403,1
DA:2404,1
DA:2405,1
DA:2406,1
DA:2407,1
DA:2408,1
DA:2409,1
DA:2410,1
DA:2411,1
DA:2412,1
DA:2413,1
DA:2414,1
DA:2415,1
DA:2416,1
DA:2417,1
DA:2418,1
DA:2419,1
DA:2420,1
DA:2421,1
DA:2422,1
DA:2423,1
DA:2424,1
DA:2425,1
DA:2426,1
DA:2427,1
DA:2428,1
DA:2429,1
DA:2430,1
DA:2431,1
DA:2432,1
DA:2433,1
DA:2434,1
DA:2435,1
DA:2436,1
DA:2437,1
DA:2438,1
DA:2439,1
DA:2440,1
DA:2441,1
DA:2442,1
DA:2443,1
DA:2444,1
DA:2445,1
DA:2446,1
DA:2447,1
DA:2448,1
DA:2449,1
DA:2450,1
DA:2451,1
DA:2452,1
DA:2453,1
DA:2454,1
DA:2455,1
DA:2456,1
DA:2457,1
DA:2458,1
DA:2459,1
DA:2460,1
DA:2461,1
DA:2462,1
DA:2463,1
DA:2464,1
DA:2465,1
DA:2466,1
DA:2467,1
DA:2468,1
DA:2469,1
DA:2470,1
DA:2471,1
DA:2472,1
DA:2473,1
DA:2474,1
DA:2475,1
DA:2476,1
DA:2477,1
DA:2478,1
DA:2479,1
DA:2480,1
DA:2481,1
DA:2482,1
DA:2483,1
DA:2484,1
DA:2485,1
DA:2486,1
DA:2487,1
DA:2488,1
DA:2489,1
DA:2490,1
DA:2491,1
DA:2492,1
DA:2493,1
DA:2494,1
DA:2495,1
DA:2496,1
DA:2497,1
DA:2498,1
DA:2499,1
DA:2500,1
DA:2501,1
DA:2502,1
DA:2503,1
DA:2504,1
DA:2505,1
DA:2506,1
DA:2507,1
DA:2508,1
DA:2509,1
DA:2510,1
DA:2511,1
DA:2512,1
DA:2513,1
DA:2514,1
DA:2515,1
DA:2516,1
DA:2517,1
DA:2518,1
DA:2519,1
DA:2520,1
DA:2521,1
DA:2522,1
DA:2523,1
DA:2524,1
DA:2525,1
DA:2526,1
DA:2527,1
DA:2528,1
DA:2529,1
DA:2530,1
DA:2531,1
DA:2532,1
DA:2533,1
DA:2534,1
DA:2535,1
DA:2536,1
DA:2537,1
DA:2538,0
DA:2539,1
DA:2540,1
DA:2543,1
DA:2544,1
DA:2547,1
DA:2548,1
DA:2549,1
DA:2550,1
DA:2551,1
DA:2552,1
DA:2553,1
DA:2554,1
DA:2555,1
DA:2556,1
DA:2557,1
DA:2558,1
DA:2559,1
DA:2560,1
DA:2561,1
DA:2562,1
DA:2563,1
DA:2564,1
DA:2565,1
DA:2566,1
DA:2567,1
DA:2568,1
DA:2569,1
DA:2570,1
DA:2571,1
DA:2572,1
DA:2573,1
DA:2574,1
DA:2575,1
DA:2576,1
DA:2577,1
DA:2578,1
DA:2579,1
DA:2580,1
DA:2581,1
DA:2582,1
DA:2583,1
DA:2584,1
DA:2585,1
DA:2586,1
DA:2587,1
DA:2588,1
DA:2589,1
DA:2590,1
DA:2591,1
DA:2592,1
DA:2593,1
DA:2594,1
DA:2595,1
DA:2596,1
DA:2597,1
DA:2598,1
DA:2599,1
DA:2600,1
DA:2601,1
DA:2602,1
DA:2603,1
DA:2604,1
DA:2605,1
DA:2606,1
DA:2607,1
DA:2608,1
DA:2609,1
DA:2610,1
DA:2611,1
DA:2612,1
DA:2613,1
DA:2614,1
DA:2615,1
DA:2616,1
DA:2617,1
DA:2618,1
DA:2619,1
DA:2620,1
DA:2621,1
DA:2622,1
DA:2623,1
DA:2624,1
DA:2625,1
DA:2626,1
DA:2627,1
DA:2628,1
DA:2629,1
DA:2630,1
DA:2631,1
DA:2632,1
DA:2633,1
DA:2634,1
DA:2635,1
DA:2636,1
DA:2637,1
DA:2638,1
DA:2639,1
DA:2640,1
DA:2641,1
DA:2642,1
DA:2643,1
DA:2644,1
DA:2645,1
DA:2646,1
DA:2647,1
DA:2648,1
DA:2649,1
DA:2650,1
DA:2651,1
DA:2652,1
DA:2653,1
DA:2654,1
DA:2655,1
DA:2656,1
DA:2657,1
DA:2658,1
DA:2659,1
DA:2660,1
DA:2661,1
DA:2662,1
DA:2663,1
DA:2664,1
DA:2665,1
DA:2666,1
DA:2667,1
DA:2668,1
DA:2669,1
DA:2670,1
DA:2671,1
DA:2672,1
DA:2673,1
DA:2674,1
DA:2675,1
DA:2676,1
DA:2677,1
DA:2678,1
DA:2679,1
DA:2680,1
DA:2681,1
DA:2682,1
DA:2683,1
DA:2684,1
DA:2685,1
DA:2686,1
DA:2687,1
DA:2688,1
DA:2689,1
DA:2690,1
DA:2691,1
DA:2692,1
DA:2693,1
DA:2694,1
DA:2695,1
DA:2696,1
DA:2697,1
DA:2698,1
DA:2699,1
DA:2700,1
DA:2701,1
DA:2702,1
DA:2703,1
DA:2704,1
DA:2705,1
DA:2706,1
DA:2707,1
DA:2708,1
DA:2709,1
DA:2710,1
DA:2711,1
DA:2712,1
DA:2713,1
DA:2714,1
DA:2715,1
DA:2716,1
DA:2717,1
DA:2718,1
DA:2719,1
DA:2720,1
DA:2721,1
DA:2722,1
DA:2723,1
DA:2724,1
DA:2725,1
DA:2726,1
DA:2727,1
DA:2728,1
DA:2729,1
DA:2730,1
DA:2731,1
DA:2732,1
DA:2733,1
DA:2734,1
DA:2735,1
DA:2736,1
DA:2737,1
DA:2738,1
DA:2739,1
DA:2740,1
DA:2741,1
DA:2742,1
DA:2743,1
DA:2744,1
DA:2745,1
DA:2746,1
DA:2747,1
DA:2748,1
DA:2749,1
DA:2750,1
DA:2751,1
DA:2752,1
DA:2753,1
DA:2754,1
DA:2755,1
DA:2756,1
DA:2757,1
DA:2758,1
DA:2759,1
DA:2760,1
DA:2761,1
DA:2762,1
DA:2763,1
DA:2764,1
DA:2765,1
DA:2766,1
DA:2767,1
DA:2768,1
DA:2769,1
DA:2770,1
DA:2771,1
DA:2772,1
DA:2773,1
DA:2774,1
DA:2775,1
DA:2776,1
DA:2777,1
DA:2778,1
DA:2779,1
DA:2780,1
DA:2781,1
DA:2782,1
DA:2783,1
DA:2784,1
DA:2785,1
DA:2786,1
DA:2787,1
DA:2788,1
DA:2789,1
DA:2790,1
DA:2791,1
DA:2792,1
DA:2793,1
DA:2794,1
DA:2795,1
DA:2796,1
DA:2797,1
DA:2798,1
DA:2799,1
DA:2800,1
DA:2801,1
DA:2802,1
DA:2803,1
DA:2804,1
DA:2805,1
DA:2806,1
DA:2807,1
DA:2808,1
DA:2809,1
DA:2810,1
DA:2811,1
DA:2812,1
DA:2813,1
DA:2814,1
DA:2815,1
DA:2816,1
DA:2817,1
DA:2818,1
DA:2819,1
DA:2820,1
DA:2821,1
DA:2822,1
DA:2823,1
DA:2824,1
DA:2825,1
DA:2826,1
DA:2827,1
DA:2828,1
DA:2829,1
DA:2830,1
DA:2831,1
DA:2832,1
DA:2833,1
DA:2834,1
DA:2835,1
DA:2836,1
DA:2837,1
DA:2838,1
DA:2839,1
DA:2840,1
DA:2841,1
DA:2842,1
DA:2843,1
DA:2844,1
DA:2845,1
DA:2846,1
DA:2847,1
DA:2848,1
DA:2849,1
DA:2850,1
DA:2851,1
DA:2852,1
DA:2853,1
DA:2854,1
DA:2855,1
DA:2856,1
DA:2857,1
DA:2858,1
DA:2859,1
DA:2860,1
DA:2861,1
DA:2862,1
DA:2863,1
DA:2864,1
DA:2865,1
DA:2866,1
DA:2867,1
DA:2868,0
DA:2869,1
DA:2870,1
DA:2873,1
DA:2874,1
DA:2877,1
DA:2878,1
DA:2879,1
DA:2880,1
DA:2881,1
DA:2882,1
DA:2883,1
DA:2884,1
DA:2885,1
DA:2886,1
DA:2887,1
DA:2888,1
DA:2889,1
DA:2890,1
DA:2891,1
DA:2892,1
DA:2893,1
DA:2894,1
DA:2895,1
DA:2896,1
DA:2897,1
DA:2898,1
DA:2899,1
DA:2900,1
DA:2901,1
DA:2902,1
DA:2903,1
DA:2904,1
DA:2905,1
DA:2906,1
DA:2907,1
DA:2908,1
DA:2909,1
DA:2910,1
DA:2911,1
DA:2912,1
DA:2913,1
DA:2914,1
DA:2915,1
DA:2916,1
DA:2917,1
DA:2918,1
DA:2919,1
DA:2920,1
DA:2921,1
DA:2922,1
DA:2923,1
DA:2924,1
DA:2925,1
DA:2926,1
DA:2927,1
DA:2928,1
DA:2929,1
DA:2930,1
DA:2931,1
DA:2932,1
DA:2933,1
DA:2934,1
DA:2935,1
DA:2936,1
DA:2937,1
DA:2938,1
DA:2939,1
DA:2940,1
DA:2941,1
DA:2942,1
DA:2943,1
DA:2944,1
DA:2945,1
DA:2946,1
DA:2947,1
DA:2948,1
DA:2949,1
DA:2950,1
DA:2951,1
DA:2952,1
DA:2953,1
DA:2954,1
DA:2955,1
DA:2956,1
DA:2957,1
DA:2958,1
DA:2959,1
DA:2960,1
DA:2961,1
DA:2962,1
DA:2963,1
DA:2964,1
DA:2965,1
DA:2966,1
DA:2967,1
DA:2968,1
DA:2969,1
DA:2970,1
DA:2971,1
DA:2972,1
DA:2973,1
DA:2974,1
DA:2975,1
DA:2976,1
DA:2977,1
DA:2978,1
DA:2979,1
DA:2980,1
DA:2981,1
DA:2982,1
DA:2983,1
DA:2984,1
DA:2985,1
DA:2986,1
DA:2987,1
DA:2988,1
DA:2989,1
DA:2990,1
DA:2991,1
DA:2992,1
DA:2993,1
DA:2994,1
DA:2995,1
DA:2996,1
DA:2997,1
DA:2998,1
DA:2999,1
DA:3000,1
DA:3001,1
DA:3002,1
DA:3003,1
DA:3004,1
DA:3005,1
DA:3006,1
DA:3007,1
DA:3008,1
DA:3009,1
DA:3010,1
DA:3011,1
DA:3012,1
DA:3013,1
DA:3014,1
DA:3015,1
DA:3016,1
DA:3017,1
DA:3018,1
DA:3019,1
DA:3020,1
DA:3021,1
DA:3022,1
DA:3023,1
DA:3024,1
DA:3025,1
DA:3026,1
DA:3027,1
DA:3028,1
DA:3029,1
DA:3030,1
DA:3031,1
DA:3032,1
DA:3033,1
DA:3034,1
DA:3035,1
DA:3036,1
DA:3037,1
DA:3038,1
DA:3039,1
DA:3040,1
DA:3041,1
DA:3042,1
DA:3043,1
DA:3044,1
DA:3045,1
DA:3046,1
DA:3047,1
DA:3048,1
DA:3049,1
DA:3050,1
DA:3051,1
DA:3052,1
DA:3053,1
DA:3054,1
DA:3055,1
DA:3056,1
DA:3057,1
DA:3058,1
DA:3059,1
DA:3060,1
DA:3061,1
DA:3062,1
DA:3063,1
DA:3064,1
DA:3065,1
DA:3066,1
DA:3067,1
DA:3068,1
DA:3069,1
DA:3070,1
DA:3071,1
DA:3072,1
DA:3073,1
DA:3074,1
DA:3075,1
DA:3076,1
DA:3077,1
DA:3078,1
DA:3079,1
DA:3080,1
DA:3081,1
DA:3082,1
DA:3083,1
DA:3084,1
DA:3085,1
DA:3086,1
DA:3087,1
DA:3088,1
DA:3089,1
DA:3090,1
DA:3091,1
DA:3092,1
DA:3093,1
DA:3094,1
DA:3095,1
DA:3096,1
DA:3097,1
DA:3098,1
DA:3099,1
DA:3100,1
DA:3101,1
DA:3102,1
DA:3103,1
DA:3104,1
DA:3105,1
DA:3106,1
DA:3107,1
DA:3108,1
DA:3109,1
DA:3110,1
DA:3111,1
DA:3112,1
DA:3113,1
DA:3114,1
DA:3115,1
DA:3116,1
DA:3117,1
DA:3118,1
DA:3119,1
DA:3120,1
DA:3121,1
DA:3122,1
DA:3123,1
DA:3124,1
DA:3125,1
DA:3126,1
DA:3127,1
DA:3128,1
DA:3129,1
DA:3130,1
DA:3131,1
DA:3132,1
DA:3133,1
DA:3134,1
DA:3135,1
DA:3136,1
DA:3137,1
DA:3138,1
DA:3139,1
DA:3140,1
DA:3141,1
DA:3142,1
DA:3143,1
DA:3144,1
DA:3145,1
DA:3146,1
DA:3147,1
DA:3148,1
DA:3149,1
DA:3150,1
DA:3151,1
DA:3152,1
DA:3153,1
DA:3154,1
DA:3155,1
DA:3156,1
DA:3157,1
DA:3158,1
DA:3159,1
DA:3160,1
DA:3161,1
DA:3162,1
DA:3163,1
DA:3164,1
DA:3165,1
DA:3166,1
DA:3167,1
DA:3168,1
DA:3169,1
DA:3170,1
DA:3171,1
DA:3172,1
DA:3173,1
DA:3174,1
DA:3175,1
DA:3176,1
DA:3177,1
DA:3178,1
DA:3179,1
DA:3180,1
DA:3181,1
DA:3182,1
DA:3183,1
DA:3184,1
DA:3185,1
DA:3186,1
DA:3187,1
DA:3188,1
DA:3189,1
DA:3190,1
DA:3191,1
DA:3192,1
DA:3193,1
DA:3194,1
DA:3195,1
DA:3196,1
DA:3197,1
DA:3198,1
DA:3199,0
DA:3200,1
DA:3201,1
DA:3204,1
DA:3205,1
DA:3208,1
DA:3209,1
DA:3210,1
DA:3211,1
DA:3212,1
DA:3213,1
DA:3214,1
DA:3215,1
DA:3216,1
DA:3217,1
DA:3218,1
DA:3219,1
DA:3220,1
DA:3221,1
DA:3222,1
DA:3223,1
DA:3224,1
DA:3225,1
DA:3226,1
DA:3227,1
DA:3228,1
DA:3229,1
DA:3230,1
DA:3231,1
DA:3232,1
DA:3233,1
DA:3234,1
DA:3235,1
DA:3236,1
DA:3237,1
DA:3238,1
DA:3239,1
DA:3240,1
DA:3241,1
DA:3242,1
DA:3243,1
DA:3244,1
DA:3245,1
DA:3246,1
DA:3247,1
DA:3248,1
DA:3249,1
DA:3250,1
DA:3251,1
DA:3252,1
DA:3253,1
DA:3254,1
DA:3255,1
DA:3256,1
DA:3257,1
DA:3258,1
DA:3259,1
DA:3260,1
DA:3261,1
DA:3262,1
DA:3263,1
DA:3264,1
DA:3265,1
DA:3266,1
DA:3267,1
DA:3268,1
DA:3269,1
DA:3270,1
DA:3271,1
DA:3272,1
DA:3273,1
DA:3274,1
DA:3275,1
DA:3276,1
DA:3277,1
DA:3278,1
DA:3279,1
DA:3280,1
DA:3281,1
DA:3282,1
DA:3283,1
DA:3284,1
DA:3285,1
DA:3286,1
DA:3287,1
DA:3288,1
DA:3289,1
DA:3290,1
DA:3291,1
DA:3292,1
DA:3293,1
DA:3294,1
DA:3295,1
DA:3296,1
DA:3297,1
DA:3298,1
DA:3299,1
DA:3300,1
DA:3301,1
DA:3302,1
DA:3303,1
DA:3304,1
DA:3305,1
DA:3306,1
DA:3307,1
DA:3308,1
DA:3309,1
DA:3310,1
DA:3311,1
DA:3312,1
DA:3313,1
DA:3314,1
DA:3315,1
DA:3316,1
DA:3317,1
DA:3318,1
DA:3319,1
DA:3320,1
DA:3321,1
DA:3322,1
DA:3323,1
DA:3324,1
DA:3325,1
DA:3326,1
DA:3327,1
DA:3328,1
DA:3329,1
DA:3330,1
DA:3331,1
DA:3332,1
DA:3333,1
DA:3334,1
DA:3335,1
DA:3336,1
DA:3337,1
DA:3338,1
DA:3339,1
DA:3340,1
DA:3341,1
DA:3342,1
DA:3343,1
DA:3344,1
DA:3345,1
DA:3346,1
DA:3347,1
DA:3348,1
DA:3349,1
DA:3350,1
DA:3351,1
DA:3352,1
DA:3353,1
DA:3354,1
DA:3355,1
DA:3356,1
DA:3357,1
DA:3358,1
DA:3359,1
DA:3360,1
DA:3361,1
DA:3362,1
DA:3363,1
DA:3364,1
DA:3365,1
DA:3366,1
DA:3367,1
DA:3368,1
DA:3369,1
DA:3370,1
DA:3371,1
DA:3372,1
DA:3373,1
DA:3374,1
DA:3375,1
DA:3376,1
DA:3377,1
DA:3378,1
DA:3379,1
DA:3380,1
DA:3381,1
DA:3382,1
DA:3383,1
DA:3384,1
DA:3385,1
DA:3386,1
DA:3387,1
DA:3388,1
DA:3389,1
DA:3390,1
DA:3391,1
DA:3392,1
DA:3393,1
DA:3394,1
DA:3395,1
DA:3396,1
DA:3397,1
DA:3398,1
DA:3399,1
DA:3400,1
DA:3401,1
DA:3402,1
DA:3403,1
DA:3404,1
DA:3405,1
DA:3406,1
DA:3407,1
DA:3408,1
DA:3409,1
DA:3410,1
DA:3411,1
DA:3412,1
DA:3413,1
DA:3414,1
DA:3415,1
DA:3416,1
DA:3417,1
DA:3418,1
DA:3419,1
DA:3420,1
DA:3421,1
DA:3422,1
DA:3423,1
DA:3424,1
DA:3425,1
DA:3426,1
DA:3427,1
DA:3428,1
DA:3429,1
DA:3430,1
DA:3431,1
DA:3432,1
DA:3433,1
DA:3434,1
DA:3435,1
DA:3436,1
DA:3437,1
DA:3438,1
DA:3439,1
DA:3440,1
DA:3441,1
DA:3442,1
DA:3443,1
DA:3444,1
DA:3445,1
DA:3446,1
DA:3447,1
DA:3448,1
DA:3449,1
DA:3450,1
DA:3451,1
DA:3452,1
DA:3453,1
DA:3454,1
DA:3455,1
DA:3456,1
DA:3457,1
DA:3458,1
DA:3459,1
DA:3460,1
DA:3461,1
DA:3462,1
DA:3463,1
DA:3464,1
DA:3465,1
DA:3466,1
DA:3467,1
DA:3468,1
DA:3469,1
DA:3470,1
DA:3471,1
DA:3472,1
DA:3473,1
DA:3474,1
DA:3475,1
DA:3476,1
DA:3477,1
DA:3478,1
DA:3479,1
DA:3480,1
DA:3481,1
DA:3482,1
DA:3483,1
DA:3484,1
DA:3485,1
DA:3486,1
DA:3487,1
DA:3488,1
DA:3489,1
DA:3490,1
DA:3491,1
DA:3492,1
DA:3493,1
DA:3494,1
DA:3495,1
DA:3496,1
DA:3497,1
DA:3498,1
DA:3499,1
DA:3500,1
DA:3501,1
DA:3502,1
DA:3503,1
DA:3504,1
DA:3505,1
DA:3506,1
DA:3507,1
DA:3508,1
DA:3509,1
DA:3510,1
DA:3511,1
DA:3512,1
DA:3513,1
DA:3514,1
DA:3515,1
DA:3516,1
DA:3517,1
DA:3518,1
DA:3519,1
DA:3520,1
DA:3521,1
DA:3522,1
DA:3523,1
DA:3524,1
DA:3525,1
DA:3526,1
DA:3527,1
DA:3528,1
DA:3529,1
DA:3530,1
DA:3531,1
DA:3532,1
DA:3533,1
DA:3534,1
DA:3535,1
DA:3536,1
DA:3537,1
DA:3538,1
DA:3539,1
DA:3540,1
DA:3541,1
DA:3542,1
DA:3543,1
DA:3544,1
DA:3545,1
DA:3546,1
DA:3547,1
DA:3548,1
DA:3549,1
DA:3550,1
DA:3551,1
DA:3552,1
DA:3553,1
DA:3554,1
DA:3555,1
DA:3556,1
DA:3557,1
DA:3558,1
DA:3559,1
DA:3560,1
DA:3561,1
DA:3562,1
DA:3563,1
DA:3564,1
DA:3565,1
DA:3566,1
DA:3567,1
DA:3568,1
DA:3569,1
DA:3570,1
DA:3571,1
DA:3572,1
DA:3573,1
DA:3574,2
DA:3575,2
DA:3576,26
DA:3577,26
DA:3578,26
DA:3579,24
DA:3580,24
DA:3581,2
DA:3582,2
DA:3584,2
DA:3585,2
DA:3586,1
DA:3587,1
DA:3588,2
DA:3591,1
DA:3592,1
DA:3593,1
DA:3594,1
DA:3595,1
DA:3596,1
DA:3597,1
DA:3598,1
DA:3599,1
DA:3600,1
DA:3601,1
DA:3602,1
DA:3603,1
DA:3604,0
DA:3605,1
DA:3606,1
DA:3609,1
DA:3610,1
DA:3613,1
DA:3614,1
DA:3615,1
DA:3616,1
DA:3617,1
DA:3618,1
DA:3619,1
DA:3620,1
DA:3621,1
DA:3622,1
DA:3623,1
DA:3624,1
DA:3625,1
DA:3626,1
DA:3627,1
DA:3628,1
DA:3629,1
DA:3630,1
DA:3631,1
DA:3632,1
DA:3633,1
DA:3634,1
DA:3635,1
DA:3636,1
DA:3637,1
DA:3638,1
DA:3639,1
DA:3640,1
DA:3641,1
DA:3642,1
DA:3643,1
DA:3644,1
DA:3645,1
DA:3646,1
DA:3647,1
DA:3648,1
DA:3649,1
DA:3650,1
DA:3651,1
DA:3652,1
DA:3653,1
DA:3654,1
DA:3655,1
DA:3656,1
DA:3657,1
DA:3658,1
DA:3659,1
DA:3660,1
DA:3661,1
DA:3662,1
DA:3663,1
DA:3664,1
DA:3665,1
DA:3666,1
DA:3667,1
DA:3668,1
DA:3669,1
DA:3670,1
DA:3671,1
DA:3672,1
DA:3673,1
DA:3674,1
DA:3675,1
DA:3676,1
DA:3677,1
DA:3678,1
DA:3679,1
DA:3680,1
DA:3681,1
DA:3682,1
DA:3683,1
DA:3684,1
DA:3685,1
DA:3686,1
DA:3687,1
DA:3688,1
DA:3689,1
DA:3690,1
DA:3691,1
DA:3692,1
DA:3693,1
DA:3694,1
DA:3695,1
DA:3696,1
DA:3697,1
DA:3698,1
DA:3699,1
DA:3700,1
DA:3701,1
DA:3702,1
DA:3703,1
DA:3704,1
DA:3705,1
DA:3706,1
DA:3707,1
DA:3708,1
DA:3709,1
DA:3710,1
DA:3711,1
DA:3712,1
DA:3713,1
DA:3714,1
DA:3715,1
DA:3716,1
DA:3717,1
DA:3718,1
DA:3719,1
DA:3720,1
DA:3721,1
DA:3722,1
DA:3723,1
DA:3724,1
DA:3725,1
DA:3726,1
DA:3727,1
DA:3728,1
DA:3729,1
DA:3730,1
DA:3731,1
DA:3732,1
DA:3733,1
DA:3734,1
DA:3735,1
DA:3736,1
DA:3737,1
DA:3738,1
DA:3739,1
DA:3740,1
DA:3741,1
DA:3742,1
DA:3743,1
DA:3744,1
DA:3745,1
DA:3746,1
DA:3747,1
DA:3748,1
DA:3749,1
DA:3750,1
DA:3751,1
DA:3752,1
DA:3753,1
DA:3754,1
DA:3755,1
DA:3756,1
DA:3757,1
DA:3758,1
DA:3759,1
DA:3760,1
DA:3761,1
DA:3762,1
DA:3763,1
DA:3764,1
DA:3765,1
DA:3766,1
DA:3767,1
DA:3768,1
DA:3769,1
DA:3770,1
DA:3771,1
DA:3772,1
DA:3773,1
DA:3774,1
DA:3775,1
DA:3776,1
DA:3777,1
DA:3778,1
DA:3779,1
DA:3780,1
DA:3781,1
DA:3782,1
DA:3783,1
DA:3784,1
DA:3785,1
DA:3786,1
DA:3787,1
DA:3788,1
DA:3789,1
DA:3790,1
DA:3791,1
DA:3792,1
DA:3793,1
DA:3794,1
DA:3795,1
DA:3796,1
DA:3797,1
DA:3798,1
DA:3799,1
DA:3800,1
DA:3801,1
DA:3802,1
DA:3803,1
DA:3804,1
DA:3805,1
DA:3806,1
DA:3807,1
DA:3808,1
DA:3809,1
DA:3810,1
DA:3811,1
DA:3812,1
DA:3813,1
DA:3814,1
DA:3815,1
DA:3816,1
DA:3817,1
DA:3818,1
DA:3819,1
DA:3820,1
DA:3821,1
DA:3822,1
DA:3823,1
DA:3824,1
DA:3825,1
DA:3826,1
DA:3827,1
DA:3828,1
DA:3829,1
DA:3830,1
DA:3831,1
DA:3832,1
DA:3833,1
DA:3834,1
DA:3835,1
DA:3836,1
DA:3837,1
DA:3838,1
DA:3839,1
DA:3840,1
DA:3841,1
DA:3842,1
DA:3843,1
DA:3844,1
DA:3845,1
DA:3846,1
DA:3847,1
DA:3848,1
DA:3849,1
DA:3850,1
DA:3851,1
DA:3852,1
DA:3853,1
DA:3854,1
DA:3855,1
DA:3856,1
DA:3857,1
DA:3858,1
DA:3859,1
DA:3860,1
DA:3861,1
DA:3862,1
DA:3863,1
DA:3864,1
DA:3865,1
DA:3866,1
DA:3867,1
DA:3868,1
DA:3869,1
DA:3870,1
DA:3871,1
DA:3872,1
DA:3873,1
DA:3874,1
DA:3875,1
DA:3876,1
DA:3877,1
DA:3878,1
DA:3879,1
DA:3880,1
DA:3881,1
DA:3882,1
DA:3883,1
DA:3884,1
DA:3885,1
DA:3886,1
DA:3887,1
DA:3888,1
DA:3889,1
DA:3890,1
DA:3891,1
DA:3892,1
DA:3893,1
DA:3894,1
DA:3895,1
DA:3896,1
DA:3897,1
DA:3898,1
DA:3899,1
DA:3900,1
DA:3901,1
DA:3902,1
DA:3903,1
DA:3904,1
DA:3905,1
DA:3906,1
DA:3907,1
DA:3908,13
DA:3909,13
DA:3910,13
DA:3911,12
DA:3912,12
DA:3913,1
DA:3914,1
DA:3916,1
DA:3917,1
DA:3918,0
DA:3919,1
DA:3920,1
DA:3923,1
DA:3924,1
DA:3925,1
DA:3926,1
DA:3927,1
DA:3928,1
DA:3929,1
DA:3930,1
DA:3931,1
DA:3932,1
DA:3933,1
DA:3934,1
DA:3935,1
DA:3936,0
DA:3937,1
DA:3938,1
DA:3941,1
DA:3942,1
DA:3944,1
DA:3945,1
DA:3946,1
DA:3947,1
DA:3948,1
DA:3949,1
DA:3950,0
DA:3951,0
DA:3953,1
DA:3957,1
DA:3958,1
DA:3959,1
DA:3960,1
DA:3963,1
DA:3964,1
DA:3965,1
DA:3966,1
DA:3967,1
DA:3968,1
DA:3969,1
DA:3970,1
DA:3971,1
DA:3972,1
DA:3973,1
DA:3974,1
DA:3975,1
DA:3976,1
DA:3977,1
DA:3978,1
DA:3979,1
DA:3980,1
DA:3981,1
DA:3982,1
DA:3983,1
DA:3984,1
DA:3985,1
DA:3986,1
DA:3987,1
DA:3988,1
DA:3989,1
DA:3990,1
DA:3991,1
DA:3992,1
DA:3993,1
DA:3994,1
DA:3995,1
DA:3996,1
DA:3997,1
DA:3998,1
DA:3999,1
DA:4000,1
DA:4001,1
DA:4002,1
DA:4003,1
DA:4004,1
DA:4005,1
DA:4006,1
DA:4007,1
DA:4008,1
DA:4009,1
DA:4010,1
DA:4011,1
DA:4012,1
DA:4013,1
DA:4014,1
DA:4015,1
DA:4016,1
DA:4017,1
DA:4018,1
DA:4019,1
DA:4020,1
DA:4021,1
DA:4022,1
DA:4023,1
DA:4024,1
DA:4025,1
DA:4026,1
DA:4027,1
DA:4028,1
DA:4029,1
DA:4030,1
DA:4031,1
DA:4032,1
DA:4033,1
DA:4034,1
DA:4035,1
DA:4036,1
DA:4037,1
DA:4038,1
DA:4039,1
DA:4040,1
DA:4041,1
DA:4042,1
DA:4043,1
DA:4044,1
DA:4045,1
DA:4046,1
DA:4047,1
DA:4048,1
DA:4049,1
DA:4050,1
DA:4051,1
DA:4052,1
DA:4053,1
DA:4054,1
DA:4055,1
DA:4056,1
DA:4057,1
DA:4058,1
DA:4059,1
DA:4060,1
DA:4061,1
DA:4062,1
DA:4063,1
DA:4064,1
DA:4065,1
DA:4066,1
DA:4067,1
DA:4068,1
DA:4069,1
DA:4070,1
DA:4071,1
DA:4072,1
DA:4073,1
DA:4074,1
DA:4075,1
DA:4076,1
DA:4077,1
DA:4078,1
DA:4079,1
DA:4080,1
DA:4081,1
DA:4082,1
DA:4083,1
DA:4084,1
DA:4085,1
DA:4086,1
DA:4087,1
DA:4088,1
DA:4089,1
DA:4090,1
DA:4091,1
DA:4092,1
DA:4093,1
DA:4094,1
DA:4095,1
DA:4096,1
DA:4097,1
DA:4098,1
DA:4099,1
DA:4100,1
DA:4101,1
DA:4102,1
DA:4103,1
DA:4104,1
DA:4105,1
DA:4106,1
DA:4107,1
DA:4108,1
DA:4109,1
DA:4110,1
DA:4111,1
DA:4112,1
DA:4113,1
DA:4114,1
DA:4115,1
DA:4116,1
DA:4117,1
DA:4118,1
DA:4119,1
DA:4120,1
DA:4121,1
DA:4122,1
DA:4123,1
DA:4124,1
DA:4125,1
DA:4126,1
DA:4127,1
DA:4128,1
DA:4129,1
DA:4130,1
DA:4131,1
DA:4132,1
DA:4133,1
DA:4134,1
DA:4135,1
DA:4136,1
DA:4137,1
DA:4138,1
DA:4139,1
DA:4140,1
DA:4141,1
DA:4142,1
DA:4143,1
DA:4144,1
DA:4145,1
DA:4146,1
DA:4147,1
DA:4148,1
DA:4149,1
DA:4150,1
DA:4151,1
DA:4152,1
DA:4153,1
DA:4154,1
DA:4155,1
DA:4156,1
DA:4157,1
DA:4158,1
DA:4159,1
DA:4160,1
DA:4161,1
DA:4162,1
DA:4163,1
DA:4164,1
DA:4165,1
DA:4166,1
DA:4167,1
DA:4168,1
DA:4169,1
DA:4170,1
DA:4171,1
DA:4172,1
DA:4173,1
DA:4174,1
DA:4175,1
DA:4176,1
DA:4177,1
DA:4178,1
DA:4179,1
DA:4180,1
DA:4181,1
DA:4182,1
DA:4183,1
DA:4184,1
DA:4185,1
DA:4186,1
DA:4187,1
DA:4188,1
DA:4189,1
DA:4190,1
DA:4191,1
DA:4192,1
DA:4193,1
DA:4194,1
DA:4195,1
DA:4196,1
DA:4197,1
DA:4198,1
DA:4199,1
DA:4200,1
DA:4201,1
DA:4202,1
DA:4203,1
DA:4204,1
DA:4205,1
DA:4206,1
DA:4207,1
DA:4208,1
DA:4209,1
DA:4210,1
DA:4211,1
DA:4212,1
DA:4213,1
DA:4214,1
DA:4215,1
DA:4216,1
DA:4217,1
DA:4218,1
DA:4219,1
DA:4220,1
DA:4221,1
DA:4222,1
DA:4223,1
DA:4224,1
DA:4225,1
DA:4226,1
DA:4227,1
DA:4228,1
DA:4229,0
DA:4230,1
DA:4231,1
DA:4234,1
DA:4235,1
DA:4238,1
DA:4239,1
DA:4240,1
DA:4241,1
DA:4242,1
DA:4243,1
DA:4244,1
DA:4245,1
DA:4246,1
DA:4247,1
DA:4248,1
DA:4249,1
DA:4250,1
DA:4251,1
DA:4252,1
DA:4253,1
DA:4254,1
DA:4255,1
DA:4256,1
DA:4257,1
DA:4258,1
DA:4259,1
DA:4260,1
DA:4261,1
DA:4262,1
DA:4263,1
DA:4264,1
DA:4265,1
DA:4266,1
DA:4267,1
DA:4268,1
DA:4269,1
DA:4270,1
DA:4271,1
DA:4272,1
DA:4273,1
DA:4274,1
DA:4275,1
DA:4276,1
DA:4277,1
DA:4278,1
DA:4279,1
DA:4280,1
DA:4281,1
DA:4282,1
DA:4283,1
DA:4284,1
DA:4285,1
DA:4286,1
DA:4287,1
DA:4288,1
DA:4289,1
DA:4290,1
DA:4291,1
DA:4292,1
DA:4293,1
DA:4294,1
DA:4295,1
DA:4296,1
DA:4297,1
DA:4298,1
DA:4299,1
DA:4300,1
DA:4301,1
DA:4302,1
DA:4303,1
DA:4304,1
DA:4305,1
DA:4306,1
DA:4307,1
DA:4308,1
DA:4309,1
DA:4310,1
DA:4311,1
DA:4312,1
DA:4313,1
DA:4314,1
DA:4315,1
DA:4316,1
DA:4317,1
DA:4318,1
DA:4319,1
DA:4320,1
DA:4321,1
DA:4322,1
DA:4323,1
DA:4324,1
DA:4325,1
DA:4326,1
DA:4327,1
DA:4328,1
DA:4329,1
DA:4330,1
DA:4331,1
DA:4332,1
DA:4333,1
DA:4334,1
DA:4335,1
DA:4336,1
DA:4337,1
DA:4338,1
DA:4339,1
DA:4340,1
DA:4341,1
DA:4342,1
DA:4343,1
DA:4344,1
DA:4345,1
DA:4346,1
DA:4347,1
DA:4348,1
DA:4349,1
DA:4350,1
DA:4351,1
DA:4352,1
DA:4353,1
DA:4354,1
DA:4355,1
DA:4356,1
DA:4357,1
DA:4358,1
DA:4359,1
DA:4360,1
DA:4361,1
DA:4362,1
DA:4363,1
DA:4364,1
DA:4365,1
DA:4366,1
DA:4367,1
DA:4368,1
DA:4369,1
DA:4370,1
DA:4371,1
DA:4372,1
DA:4373,1
DA:4374,1
DA:4375,1
DA:4376,1
DA:4377,1
DA:4378,1
DA:4379,1
DA:4380,1
DA:4381,1
DA:4382,1
DA:4383,1
DA:4384,1
DA:4385,1
DA:4386,1
DA:4387,1
DA:4388,1
DA:4389,1
DA:4390,1
DA:4391,1
DA:4392,1
DA:4393,1
DA:4394,1
DA:4395,1
DA:4396,1
DA:4397,1
DA:4398,1
DA:4399,1
DA:4400,1
DA:4401,1
DA:4402,1
DA:4403,1
DA:4404,1
DA:4405,1
DA:4406,1
DA:4407,1
DA:4408,1
DA:4409,1
DA:4410,1
DA:4411,1
DA:4412,1
DA:4413,1
DA:4414,1
DA:4415,1
DA:4416,1
DA:4417,1
DA:4418,1
DA:4419,1
DA:4420,1
DA:4421,1
DA:4422,1
DA:4423,1
DA:4424,1
DA:4425,1
DA:4426,1
DA:4427,1
DA:4428,1
DA:4429,1
DA:4430,1
DA:4431,1
DA:4432,1
DA:4433,1
DA:4434,1
DA:4435,1
DA:4436,1
DA:4437,1
DA:4438,1
DA:4439,1
DA:4440,1
DA:4441,1
DA:4442,1
DA:4443,1
DA:4444,1
DA:4445,1
DA:4446,1
DA:4447,1
DA:4448,1
DA:4449,1
DA:4450,1
DA:4451,1
DA:4452,1
DA:4453,1
DA:4454,1
DA:4455,1
DA:4456,1
DA:4457,1
DA:4458,1
DA:4459,1
DA:4460,1
DA:4461,1
DA:4462,1
DA:4463,1
DA:4464,1
DA:4465,1
DA:4466,1
DA:4467,1
DA:4468,1
DA:4469,1
DA:4470,1
DA:4471,1
DA:4472,1
DA:4473,1
DA:4474,1
DA:4475,1
DA:4476,1
DA:4477,1
DA:4478,1
DA:4479,1
DA:4480,1
DA:4481,1
DA:4482,1
DA:4483,1
DA:4484,1
DA:4485,1
DA:4486,1
DA:4487,1
DA:4488,1
DA:4489,1
DA:4490,1
DA:4491,1
DA:4492,1
DA:4493,1
DA:4494,1
DA:4495,1
DA:4496,1
DA:4497,1
DA:4498,1
DA:4499,1
DA:4500,1
DA:4501,1
DA:4502,1
DA:4503,1
DA:4504,1
DA:4505,0
DA:4506,1
DA:4507,1
DA:4510,1
DA:4511,1
BRF:0
BRH:0
LF:4115
LH:2913
end_of_record
SF:D:\opensource\hayabusa\src\debug\checkpoint_process_timer.rs
FN:25,_RNvMNtNtCs5DPfXlAluY4_8hayabusa5debug24checkpoint_process_timerNtB2_22CheckPointProcessTimer23create_checkpoint_timer
FN:33,_RNvMNtNtCs5DPfXlAluY4_8hayabusa5debug24checkpoint_process_timerNtB2_22CheckPointProcessTimer14set_checkpoint
FN:38,_RNvMNtNtCs5DPfXlAluY4_8hayabusa5debug24checkpoint_process_timerNtB2_22CheckPointProcessTimer14rap_checkpoint
FN:64,_RNvMNtNtCs5DPfXlAluY4_8hayabusa5debug24checkpoint_process_timerNtB2_22CheckPointProcessTimer21output_stocked_result
FN:74,_RNvMNtNtCs5DPfXlAluY4_8hayabusa5debug24checkpoint_process_timerNtB2_22CheckPointProcessTimer29calculate_all_stocked_results
FN:25,_RNvMNtNtCsNhz5SapXcJ_8hayabusa5debug24checkpoint_process_timerNtB2_22CheckPointProcessTimer23create_checkpoint_timer
FN:33,_RNvMNtNtCsNhz5SapXcJ_8hayabusa5debug24checkpoint_process_timerNtB2_22CheckPointProcessTimer14set_checkpoint
FN:38,_RNvMNtNtCsNhz5SapXcJ_8hayabusa5debug24checkpoint_process_timerNtB2_22CheckPointProcessTimer14rap_checkpoint
FN:64,_RNvMNtNtCsNhz5SapXcJ_8hayabusa5debug24checkpoint_process_timerNtB2_22CheckPointProcessTimer21output_stocked_result
FN:74,_RNvMNtNtCsNhz5SapXcJ_8hayabusa5debug24checkpoint_process_timerNtB2_22CheckPointProcessTimer29calculate_all_stocked_results
FN:97,_RNvNtNtNtCsNhz5SapXcJ_8hayabusa5debug24checkpoint_process_timer5testss_20test_set_check_point
FN:105,_RNvNtNtNtCsNhz5SapXcJ_8hayabusa5debug24checkpoint_process_timer5testss_19test_rap_checkpoint
FN:124,_RNvNtNtNtCsNhz5SapXcJ_8hayabusa5debug24checkpoint_process_timer5testss_34test_calculate_all_stocked_results
FNDA:1,_RNvMNtNtCs5DPfXlAluY4_8hayabusa5debug24checkpoint_process_timerNtB2_22CheckPointProcessTimer23create_checkpoint_timer
FNDA:22,_RNvMNtNtCs5DPfXlAluY4_8hayabusa5debug24checkpoint_process_timerNtB2_22CheckPointProcessTimer14set_checkpoint
FNDA:12,_RNvMNtNtCs5DPfXlAluY4_8hayabusa5debug24checkpoint_process_timerNtB2_22CheckPointProcessTimer14rap_checkpoint
FNDA:0,_RNvMNtNtCs5DPfXlAluY4_8hayabusa5debug24checkpoint_process_timerNtB2_22CheckPointProcessTimer21output_stocked_result
FNDA:5,_RNvMNtNtCs5DPfXlAluY4_8hayabusa5debug24checkpoint_process_timerNtB2_22CheckPointProcessTimer29calculate_all_stocked_results
FNDA:1,_RNvMNtNtCsNhz5SapXcJ_8hayabusa5debug24checkpoint_process_timerNtB2_22CheckPointProcessTimer23create_checkpoint_timer
FNDA:5,_RNvMNtNtCsNhz5SapXcJ_8hayabusa5debug24checkpoint_process_timerNtB2_22CheckPointProcessTimer14set_checkpoint
FNDA:4,_RNvMNtNtCsNhz5SapXcJ_8hayabusa5debug24checkpoint_process_timerNtB2_22CheckPointProcessTimer14rap_checkpoint
FNDA:1,_RNvMNtNtCsNhz5SapXcJ_8hayabusa5debug24checkpoint_process_timerNtB2_22CheckPointProcessTimer21output_stocked_result
FNDA:1,_RNvMNtNtCsNhz5SapXcJ_8hayabusa5debug24checkpoint_process_timerNtB2_22CheckPointProcessTimer29calculate_all_stocked_results
FNDA:1,_RNvNtNtNtCsNhz5SapXcJ_8hayabusa5debug24checkpoint_process_timer5testss_20test_set_check_point
FNDA:1,_RNvNtNtNtCsNhz5SapXcJ_8hayabusa5debug24checkpoint_process_timer5testss_19test_rap_checkpoint
FNDA:1,_RNvNtNtNtCsNhz5SapXcJ_8hayabusa5debug24checkpoint_process_timer5testss_34test_calculate_all_stocked_results
FNF:8
FNH:8
DA:25,2
DA:26,2
DA:27,2
DA:28,2
DA:29,2
DA:30,2
DA:33,27
DA:34,27
DA:35,27
DA:38,16
DA:39,16
DA:40,1
DA:41,15
DA:42,15
DA:43,15
DA:44,15
DA:45,15
DA:46,15
DA:47,15
DA:48,12
DA:49,0
DA:50,0
DA:51,0
DA:52,0
DA:53,15
DA:54,15
DA:55,15
DA:56,15
DA:57,15
DA:58,15
DA:59,15
DA:60,15
DA:61,16
DA:64,1
DA:65,1
DA:66,1
DA:67,1
DA:68,1
DA:69,1
DA:70,1
DA:71,1
DA:72,1
DA:74,6
DA:75,6
DA:76,6
DA:77,41
DA:78,41
DA:79,41
DA:80,41
DA:81,6
DA:82,6
DA:83,6
DA:84,6
DA:85,6
DA:86,6
DA:87,6
DA:97,1
DA:98,1
DA:99,1
DA:100,1
DA:101,1
DA:102,1
DA:105,1
DA:106,1
DA:107,1
DA:108,1
DA:109,1
DA:110,1
DA:111,1
DA:112,1
DA:113,1
DA:114,1
DA:115,1
DA:116,1
DA:117,1
DA:118,1
DA:120,1
DA:121,1
DA:124,1
DA:125,1
DA:126,1
DA:127,1
DA:128,1
DA:129,1
DA:130,1
DA:131,1
DA:132,1
DA:133,1
DA:134,1
DA:135,1
DA:136,1
DA:137,1
DA:138,1
DA:139,1
DA:140,1
DA:141,1
DA:142,1
DA:143,1
DA:145,1
DA:146,1
BRF:0
BRH:0
LF:100
LH:96
end_of_record
SF:D:\opensource\hayabusa\src\detections\configs.rs
FN:50,_RNvXNtNtCs5DPfXlAluY4_8hayabusa10detections7configsNtB2_12ConfigReaderNtNtCshEwRaVhoEM3_4core7default7Default7default
FN:97,_RNvMs_NtNtCs5DPfXlAluY4_8hayabusa10detections7configsNtB4_12StoredStatic18create_static_data
FN:162,_RNCNvMs_NtNtCs5DPfXlAluY4_8hayabusa10detections7configsNtB6_12StoredStatic18create_static_data0Ba_
FN:165,_RNCNvMs_NtNtCs5DPfXlAluY4_8hayabusa10detections7configsNtB6_12StoredStatic18create_static_datas_0Ba_
FN:168,_RNCNvMs_NtNtCs5DPfXlAluY4_8hayabusa10detections7configsNtB6_12StoredStatic18create_static_datas0_0Ba_
FN:174,_RNCNvMs_NtNtCs5DPfXlAluY4_8hayabusa10detections7configsNtB6_12StoredStatic18create_static_datas1_0Ba_
FN:185,_RNCNvMs_NtNtCs5DPfXlAluY4_8hayabusa10detections7configsNtB6_12StoredStatic18create_static_datas2_0Ba_
FN:198,_RNCNvMs_NtNtCs5DPfXlAluY4_8hayabusa10detections7configsNtB6_12StoredStatic18create_static_datas3_0Ba_
FN:241,_RNCNvMs_NtNtCs5DPfXlAluY4_8hayabusa10detections7configsNtB6_12StoredStatic18create_static_datas4_0Ba_
FN:301,_RNCNvMs_NtNtCs5DPfXlAluY4_8hayabusa10detections7configsNtB6_12StoredStatic18create_static_datas5_0Ba_
FN:326,_RNCNvMs_NtNtCs5DPfXlAluY4_8hayabusa10detections7configsNtB6_12StoredStatic18create_static_datas6_0Ba_
FN:494,_RNCNvMs_NtNtCs5DPfXlAluY4_8hayabusa10detections7configsNtB6_12StoredStatic18create_static_datas7_0Ba_
FN:541,_RNCNvMs_NtNtCs5DPfXlAluY4_8hayabusa10detections7configsNtB6_12StoredStatic18create_static_datas8_0Ba_
FN:549,_RNCNvMs_NtNtCs5DPfXlAluY4_8hayabusa10detections7configsNtB6_12StoredStatic18create_static_datas9_0Ba_
FN:556,_RNCNvMs_NtNtCs5DPfXlAluY4_8hayabusa10detections7configsNtB6_12StoredStatic18create_static_datasa_0Ba_
FN:570,_RNCNvMs_NtNtCs5DPfXlAluY4_8hayabusa10detections7configsNtB6_12StoredStatic18create_static_datasb_0Ba_
FN:585,_RNCNvMs_NtNtCs5DPfXlAluY4_8hayabusa10detections7configsNtB6_12StoredStatic18create_static_datasc_0Ba_
FN:587,_RNCNvMs_NtNtCs5DPfXlAluY4_8hayabusa10detections7configsNtB6_12StoredStatic18create_static_datasd_0Ba_
FN:590,_RNCNvMs_NtNtCs5DPfXlAluY4_8hayabusa10detections7configsNtB6_12StoredStatic18create_static_datase_0Ba_
FN:604,_RNCNvMs_NtNtCs5DPfXlAluY4_8hayabusa10detections7configsNtB6_12StoredStatic18create_static_datasf_0Ba_
FN:617,_RNCNvMs_NtNtCs5DPfXlAluY4_8hayabusa10detections7configsNtB6_12StoredStatic18create_static_datasg_0Ba_
FN:642,_RNCNvMs_NtNtCs5DPfXlAluY4_8hayabusa10detections7configsNtB6_12StoredStatic18create_static_datash_0Ba_
FN:655,_RNCNvMs_NtNtCs5DPfXlAluY4_8hayabusa10detections7configsNtB6_12StoredStatic18create_static_datasi_0Ba_
FN:704,_RNvMs_NtNtCs5DPfXlAluY4_8hayabusa10detections7configsNtB4_12StoredStatic19get_default_details
FN:715,_RNCNvMs_NtNtCs5DPfXlAluY4_8hayabusa10detections7configsNtB6_12StoredStatic19get_default_details0Ba_
FN:761,_RNvNtNtCs5DPfXlAluY4_8hayabusa10detections7configs19check_thread_number
FN:885,_RNvMs0_NtNtCs5DPfXlAluY4_8hayabusa10detections7configsNtB5_6Action8to_usize
FN:905,_RNvMs0_NtNtCs5DPfXlAluY4_8hayabusa10detections7configsNtB5_6Action15get_action_name
FN:1728,_RNvMs1_NtNtCs5DPfXlAluY4_8hayabusa10detections7configsNtB5_12ConfigReader3new
FN:1752,_RNvXs2_NtNtCs5DPfXlAluY4_8hayabusa10detections7configsNtB5_9TargetIdsNtNtCshEwRaVhoEM3_4core7default7Default7default
FN:1758,_RNvMs3_NtNtCs5DPfXlAluY4_8hayabusa10detections7configsNtB5_9TargetIds3new
FN:1764,_RNvMs3_NtNtCs5DPfXlAluY4_8hayabusa10detections7configsNtB5_9TargetIds9is_target
FN:1773,_RNvNtNtCs5DPfXlAluY4_8hayabusa10detections7configs15load_target_ids
FN:1802,_RNvMs4_NtNtCs5DPfXlAluY4_8hayabusa10detections7configsNtB5_15TargetEventTime3new
FN:1804,_RNCNvMs4_NtNtCs5DPfXlAluY4_8hayabusa10detections7configsNtB7_15TargetEventTime3new0Bb_
FN:1807,_RNCNCNvMs4_NtNtCs5DPfXlAluY4_8hayabusa10detections7configsNtB9_15TargetEventTime3new00Bd_
FN:1823,_RNCNvMs4_NtNtCs5DPfXlAluY4_8hayabusa10detections7configsNtB7_15TargetEventTime3news_0Bb_
FN:1851,_RNCNCNvMs4_NtNtCs5DPfXlAluY4_8hayabusa10detections7configsNtB9_15TargetEventTime3news_00Bd_
FN:1861,_RNCNCNvMs4_NtNtCs5DPfXlAluY4_8hayabusa10detections7configsNtB9_15TargetEventTime3news_0s_0Bd_
FN:1862,_RNCNCNvMs4_NtNtCs5DPfXlAluY4_8hayabusa10detections7configsNtB9_15TargetEventTime3news_0s0_0Bd_
FN:1863,_RNCNCNvMs4_NtNtCs5DPfXlAluY4_8hayabusa10detections7configsNtB9_15TargetEventTime3news_0s1_0Bd_
FN:1868,_RNCNCNvMs4_NtNtCs5DPfXlAluY4_8hayabusa10detections7configsNtB9_15TargetEventTime3news_0s2_0Bd_
FN:1873,_RNCNCNvMs4_NtNtCs5DPfXlAluY4_8hayabusa10detections7configsNtB9_15TargetEventTime3news_0s3_0Bd_
FN:2021,_RNvMs4_NtNtCs5DPfXlAluY4_8hayabusa10detections7configsNtB5_15TargetEventTime3set
FN:2033,_RNvMs4_NtNtCs5DPfXlAluY4_8hayabusa10detections7configsNtB5_15TargetEventTime16is_parse_success
FN:2037,_RNvMs4_NtNtCs5DPfXlAluY4_8hayabusa10detections7configsNtB5_15TargetEventTime9is_target
FN:2062,_RNvMs5_NtNtCs5DPfXlAluY4_8hayabusa10detections7configsNtB5_19EventKeyAliasConfig3new
FN:2069,_RNvMs5_NtNtCs5DPfXlAluY4_8hayabusa10detections7configsNtB5_19EventKeyAliasConfig13get_event_key
FN:2073,_RNvMs5_NtNtCs5DPfXlAluY4_8hayabusa10detections7configsNtB5_19EventKeyAliasConfig19get_event_key_split
FN:2079,_RNvXs6_NtNtCs5DPfXlAluY4_8hayabusa10detections7configsNtB5_19EventKeyAliasConfigNtNtCshEwRaVhoEM3_4core7default7Default7default
FN:2084,_RNvNtNtCs5DPfXlAluY4_8hayabusa10detections7configs19load_eventkey_alias
FN:2094,_RNCNvNtNtCs5DPfXlAluY4_8hayabusa10detections7configs19load_eventkey_alias0B7_
FN:2111,_RNCNCNvNtNtCs5DPfXlAluY4_8hayabusa10detections7configs19load_eventkey_alias00B9_
FN:2119,_RNvNtNtCs5DPfXlAluY4_8hayabusa10detections7configs19load_pivot_keywords
FN:2128,_RNCNvNtNtCs5DPfXlAluY4_8hayabusa10detections7configs19load_pivot_keywords0B7_
FN:2158,_RNvNtNtCs5DPfXlAluY4_8hayabusa10detections7configs21get_target_extensions
FN:2169,_RNvNtNtCs5DPfXlAluY4_8hayabusa10detections7configs25convert_option_vecs_to_hs
FN:2174,_RNvNtNtCs5DPfXlAluY4_8hayabusa10detections7configs22extract_search_options
FN:2207,_RNvNtNtCs5DPfXlAluY4_8hayabusa10detections7configs22extract_output_options
FN:2556,_RNvXs7_NtNtCs5DPfXlAluY4_8hayabusa10detections7configsNtB5_9EventInfoNtNtCshEwRaVhoEM3_4core7default7Default7default
FN:2562,_RNvMs8_NtNtCs5DPfXlAluY4_8hayabusa10detections7configsNtB5_9EventInfo3new
FN:2573,_RNvXs9_NtNtCs5DPfXlAluY4_8hayabusa10detections7configsNtB5_15EventInfoConfigNtNtCshEwRaVhoEM3_4core7default7Default7default
FN:2579,_RNvMsa_NtNtCs5DPfXlAluY4_8hayabusa10detections7configsNtB5_15EventInfoConfig3new
FN:2584,_RNvMsa_NtNtCs5DPfXlAluY4_8hayabusa10detections7configsNtB5_15EventInfoConfig12get_event_id
FN:2590,_RNvNtNtCs5DPfXlAluY4_8hayabusa10detections7configs19load_eventcode_info
FN:2602,_RNCNvNtNtCs5DPfXlAluY4_8hayabusa10detections7configs19load_eventcode_info0B7_
FN:2622,_RNvNtNtCs5DPfXlAluY4_8hayabusa10detections7configs31create_control_chat_replace_map
FN:2625,_RNCNvNtNtCs5DPfXlAluY4_8hayabusa10detections7configs31create_control_chat_replace_map0B7_
FN:931,_RNCNvXsz_NtNtCs5DPfXlAluY4_8hayabusa10detections7configsNtB7_18DetectCommonOptionNtNtCsgalAmTtUVqh_12clap_builder6derive14FromArgMatches20from_arg_matches_mut0Bb_
FN:935,_RNCNvXsz_NtNtCs5DPfXlAluY4_8hayabusa10detections7configsNtB7_18DetectCommonOptionNtNtCsgalAmTtUVqh_12clap_builder6derive14FromArgMatches20from_arg_matches_muts_0Bb_
FN:949,_RNCNvXsz_NtNtCs5DPfXlAluY4_8hayabusa10detections7configsNtB7_18DetectCommonOptionNtNtCsgalAmTtUVqh_12clap_builder6derive14FromArgMatches20from_arg_matches_muts0_0Bb_
FN:961,_RNCNvXsz_NtNtCs5DPfXlAluY4_8hayabusa10detections7configsNtB7_18DetectCommonOptionNtNtCsgalAmTtUVqh_12clap_builder6derive14FromArgMatches20from_arg_matches_muts1_0Bb_
FN:965,_RNCNvXsz_NtNtCs5DPfXlAluY4_8hayabusa10detections7configsNtB7_18DetectCommonOptionNtNtCsgalAmTtUVqh_12clap_builder6derive14FromArgMatches20from_arg_matches_muts2_0Bb_
FN:969,_RNCNvXsz_NtNtCs5DPfXlAluY4_8hayabusa10detections7configsNtB7_18DetectCommonOptionNtNtCsgalAmTtUVqh_12clap_builder6derive14FromArgMatches20from_arg_matches_muts3_0Bb_
FN:973,_RNCNvXsz_NtNtCs5DPfXlAluY4_8hayabusa10detections7configsNtB7_18DetectCommonOptionNtNtCsgalAmTtUVqh_12clap_builder6derive14FromArgMatches20from_arg_matches_muts4_0Bb_
FN:931,_RNCNvXsz_NtNtCs5DPfXlAluY4_8hayabusa10detections7configsNtB7_18DetectCommonOptionNtNtCsgalAmTtUVqh_12clap_builder6derive14FromArgMatches27update_from_arg_matches_mut0Bb_
FN:935,_RNCNvXsz_NtNtCs5DPfXlAluY4_8hayabusa10detections7configsNtB7_18DetectCommonOptionNtNtCsgalAmTtUVqh_12clap_builder6derive14FromArgMatches27update_from_arg_matches_muts_0Bb_
FN:949,_RNCNvXsz_NtNtCs5DPfXlAluY4_8hayabusa10detections7configsNtB7_18DetectCommonOptionNtNtCsgalAmTtUVqh_12clap_builder6derive14FromArgMatches27update_from_arg_matches_muts0_0Bb_
FN:961,_RNCNvXsz_NtNtCs5DPfXlAluY4_8hayabusa10detections7configsNtB7_18DetectCommonOptionNtNtCsgalAmTtUVqh_12clap_builder6derive14FromArgMatches27update_from_arg_matches_muts1_0Bb_
FN:965,_RNCNvXsz_NtNtCs5DPfXlAluY4_8hayabusa10detections7configsNtB7_18DetectCommonOptionNtNtCsgalAmTtUVqh_12clap_builder6derive14FromArgMatches27update_from_arg_matches_muts2_0Bb_
FN:969,_RNCNvXsz_NtNtCs5DPfXlAluY4_8hayabusa10detections7configsNtB7_18DetectCommonOptionNtNtCsgalAmTtUVqh_12clap_builder6derive14FromArgMatches27update_from_arg_matches_muts3_0Bb_
FN:973,_RNCNvXsz_NtNtCs5DPfXlAluY4_8hayabusa10detections7configsNtB7_18DetectCommonOptionNtNtCsgalAmTtUVqh_12clap_builder6derive14FromArgMatches27update_from_arg_matches_muts4_0Bb_
FN:1004,_RNCNvXsH_NtNtCs5DPfXlAluY4_8hayabusa10detections7configsNtB7_12SearchOptionNtNtCsgalAmTtUVqh_12clap_builder6derive14FromArgMatches20from_arg_matches_mut0Bb_
FN:1025,_RNCNvXsH_NtNtCs5DPfXlAluY4_8hayabusa10detections7configsNtB7_12SearchOptionNtNtCsgalAmTtUVqh_12clap_builder6derive14FromArgMatches20from_arg_matches_muts_0Bb_
FN:1037,_RNCNvXsH_NtNtCs5DPfXlAluY4_8hayabusa10detections7configsNtB7_12SearchOptionNtNtCsgalAmTtUVqh_12clap_builder6derive14FromArgMatches20from_arg_matches_muts0_0Bb_
FN:1047,_RNCNvXsH_NtNtCs5DPfXlAluY4_8hayabusa10detections7configsNtB7_12SearchOptionNtNtCsgalAmTtUVqh_12clap_builder6derive14FromArgMatches20from_arg_matches_muts1_0Bb_
FN:1060,_RNCNvXsH_NtNtCs5DPfXlAluY4_8hayabusa10detections7configsNtB7_12SearchOptionNtNtCsgalAmTtUVqh_12clap_builder6derive14FromArgMatches20from_arg_matches_muts2_0Bb_
FN:1074,_RNCNvXsH_NtNtCs5DPfXlAluY4_8hayabusa10detections7configsNtB7_12SearchOptionNtNtCsgalAmTtUVqh_12clap_builder6derive14FromArgMatches20from_arg_matches_muts3_0Bb_
FN:1086,_RNCNvXsH_NtNtCs5DPfXlAluY4_8hayabusa10detections7configsNtB7_12SearchOptionNtNtCsgalAmTtUVqh_12clap_builder6derive14FromArgMatches20from_arg_matches_muts4_0Bb_
FN:1090,_RNCNvXsH_NtNtCs5DPfXlAluY4_8hayabusa10detections7configsNtB7_12SearchOptionNtNtCsgalAmTtUVqh_12clap_builder6derive14FromArgMatches20from_arg_matches_muts5_0Bb_
FN:1094,_RNCNvXsH_NtNtCs5DPfXlAluY4_8hayabusa10detections7configsNtB7_12SearchOptionNtNtCsgalAmTtUVqh_12clap_builder6derive14FromArgMatches20from_arg_matches_muts6_0Bb_
FN:1098,_RNCNvXsH_NtNtCs5DPfXlAluY4_8hayabusa10detections7configsNtB7_12SearchOptionNtNtCsgalAmTtUVqh_12clap_builder6derive14FromArgMatches20from_arg_matches_muts7_0Bb_
FN:1102,_RNCNvXsH_NtNtCs5DPfXlAluY4_8hayabusa10detections7configsNtB7_12SearchOptionNtNtCsgalAmTtUVqh_12clap_builder6derive14FromArgMatches20from_arg_matches_muts8_0Bb_
FN:1106,_RNCNvXsH_NtNtCs5DPfXlAluY4_8hayabusa10detections7configsNtB7_12SearchOptionNtNtCsgalAmTtUVqh_12clap_builder6derive14FromArgMatches20from_arg_matches_muts9_0Bb_
FN:1110,_RNCNvXsH_NtNtCs5DPfXlAluY4_8hayabusa10detections7configsNtB7_12SearchOptionNtNtCsgalAmTtUVqh_12clap_builder6derive14FromArgMatches20from_arg_matches_mutsa_0Bb_
FN:1114,_RNCNvXsH_NtNtCs5DPfXlAluY4_8hayabusa10detections7configsNtB7_12SearchOptionNtNtCsgalAmTtUVqh_12clap_builder6derive14FromArgMatches20from_arg_matches_mutsb_0Bb_
FN:1118,_RNCNvXsH_NtNtCs5DPfXlAluY4_8hayabusa10detections7configsNtB7_12SearchOptionNtNtCsgalAmTtUVqh_12clap_builder6derive14FromArgMatches20from_arg_matches_mutsc_0Bb_
FN:1122,_RNCNvXsH_NtNtCs5DPfXlAluY4_8hayabusa10detections7configsNtB7_12SearchOptionNtNtCsgalAmTtUVqh_12clap_builder6derive14FromArgMatches20from_arg_matches_mutsd_0Bb_
FN:1126,_RNCNvXsH_NtNtCs5DPfXlAluY4_8hayabusa10detections7configsNtB7_12SearchOptionNtNtCsgalAmTtUVqh_12clap_builder6derive14FromArgMatches20from_arg_matches_mutse_0Bb_
FN:1130,_RNCNvXsH_NtNtCs5DPfXlAluY4_8hayabusa10detections7configsNtB7_12SearchOptionNtNtCsgalAmTtUVqh_12clap_builder6derive14FromArgMatches20from_arg_matches_mutsf_0Bb_
FN:1134,_RNCNvXsH_NtNtCs5DPfXlAluY4_8hayabusa10detections7configsNtB7_12SearchOptionNtNtCsgalAmTtUVqh_12clap_builder6derive14FromArgMatches20from_arg_matches_mutsg_0Bb_
FN:1004,_RNCNvXsH_NtNtCs5DPfXlAluY4_8hayabusa10detections7configsNtB7_12SearchOptionNtNtCsgalAmTtUVqh_12clap_builder6derive14FromArgMatches27update_from_arg_matches_mut0Bb_
FN:1025,_RNCNvXsH_NtNtCs5DPfXlAluY4_8hayabusa10detections7configsNtB7_12SearchOptionNtNtCsgalAmTtUVqh_12clap_builder6derive14FromArgMatches27update_from_arg_matches_muts_0Bb_
FN:1037,_RNCNvXsH_NtNtCs5DPfXlAluY4_8hayabusa10detections7configsNtB7_12SearchOptionNtNtCsgalAmTtUVqh_12clap_builder6derive14FromArgMatches27update_from_arg_matches_muts0_0Bb_
FN:1047,_RNCNvXsH_NtNtCs5DPfXlAluY4_8hayabusa10detections7configsNtB7_12SearchOptionNtNtCsgalAmTtUVqh_12clap_builder6derive14FromArgMatches27update_from_arg_matches_muts1_0Bb_
FN:1060,_RNCNvXsH_NtNtCs5DPfXlAluY4_8hayabusa10detections7configsNtB7_12SearchOptionNtNtCsgalAmTtUVqh_12clap_builder6derive14FromArgMatches27update_from_arg_matches_muts2_0Bb_
FN:1074,_RNCNvXsH_NtNtCs5DPfXlAluY4_8hayabusa10detections7configsNtB7_12SearchOptionNtNtCsgalAmTtUVqh_12clap_builder6derive14FromArgMatches27update_from_arg_matches_muts3_0Bb_
FN:1086,_RNCNvXsH_NtNtCs5DPfXlAluY4_8hayabusa10detections7configsNtB7_12SearchOptionNtNtCsgalAmTtUVqh_12clap_builder6derive14FromArgMatches27update_from_arg_matches_muts4_0Bb_
FN:1090,_RNCNvXsH_NtNtCs5DPfXlAluY4_8hayabusa10detections7configsNtB7_12SearchOptionNtNtCsgalAmTtUVqh_12clap_builder6derive14FromArgMatches27update_from_arg_matches_muts5_0Bb_
FN:1094,_RNCNvXsH_NtNtCs5DPfXlAluY4_8hayabusa10detections7configsNtB7_12SearchOptionNtNtCsgalAmTtUVqh_12clap_builder6derive14FromArgMatches27update_from_arg_matches_muts6_0Bb_
FN:1098,_RNCNvXsH_NtNtCs5DPfXlAluY4_8hayabusa10detections7configsNtB7_12SearchOptionNtNtCsgalAmTtUVqh_12clap_builder6derive14FromArgMatches27update_from_arg_matches_muts7_0Bb_
FN:1102,_RNCNvXsH_NtNtCs5DPfXlAluY4_8hayabusa10detections7configsNtB7_12SearchOptionNtNtCsgalAmTtUVqh_12clap_builder6derive14FromArgMatches27update_from_arg_matches_muts8_0Bb_
FN:1106,_RNCNvXsH_NtNtCs5DPfXlAluY4_8hayabusa10detections7configsNtB7_12SearchOptionNtNtCsgalAmTtUVqh_12clap_builder6derive14FromArgMatches27update_from_arg_matches_muts9_0Bb_
FN:1110,_RNCNvXsH_NtNtCs5DPfXlAluY4_8hayabusa10detections7configsNtB7_12SearchOptionNtNtCsgalAmTtUVqh_12clap_builder6derive14FromArgMatches27update_from_arg_matches_mutsa_0Bb_
FN:1114,_RNCNvXsH_NtNtCs5DPfXlAluY4_8hayabusa10detections7configsNtB7_12SearchOptionNtNtCsgalAmTtUVqh_12clap_builder6derive14FromArgMatches27update_from_arg_matches_mutsb_0Bb_
FN:1118,_RNCNvXsH_NtNtCs5DPfXlAluY4_8hayabusa10detections7configsNtB7_12SearchOptionNtNtCsgalAmTtUVqh_12clap_builder6derive14FromArgMatches27update_from_arg_matches_mutsc_0Bb_
FN:1122,_RNCNvXsH_NtNtCs5DPfXlAluY4_8hayabusa10detections7configsNtB7_12SearchOptionNtNtCsgalAmTtUVqh_12clap_builder6derive14FromArgMatches27update_from_arg_matches_mutsd_0Bb_
FN:1126,_RNCNvXsH_NtNtCs5DPfXlAluY4_8hayabusa10detections7configsNtB7_12SearchOptionNtNtCsgalAmTtUVqh_12clap_builder6derive14FromArgMatches27update_from_arg_matches_mutse_0Bb_
FN:1130,_RNCNvXsH_NtNtCs5DPfXlAluY4_8hayabusa10detections7configsNtB7_12SearchOptionNtNtCsgalAmTtUVqh_12clap_builder6derive14FromArgMatches27update_from_arg_matches_mutsf_0Bb_
FN:1134,_RNCNvXsH_NtNtCs5DPfXlAluY4_8hayabusa10detections7configsNtB7_12SearchOptionNtNtCsgalAmTtUVqh_12clap_builder6derive14FromArgMatches27update_from_arg_matches_mutsg_0Bb_
FN:1153,_RNCNvXsL_NtNtCs5DPfXlAluY4_8hayabusa10detections7configsNtB7_12UpdateOptionNtNtCsgalAmTtUVqh_12clap_builder6derive14FromArgMatches20from_arg_matches_mut0Bb_
FN:1153,_RNCNvXsL_NtNtCs5DPfXlAluY4_8hayabusa10detections7configsNtB7_12UpdateOptionNtNtCsgalAmTtUVqh_12clap_builder6derive14FromArgMatches27update_from_arg_matches_mut0Bb_
FN:1171,_RNCNvXsP_NtNtCs5DPfXlAluY4_8hayabusa10detections7configsNtB7_17LevelTuningOptionNtNtCsgalAmTtUVqh_12clap_builder6derive14FromArgMatches20from_arg_matches_mut0Bb_
FN:1171,_RNCNvXsP_NtNtCs5DPfXlAluY4_8hayabusa10detections7configsNtB7_17LevelTuningOptionNtNtCsgalAmTtUVqh_12clap_builder6derive14FromArgMatches27update_from_arg_matches_mut0Bb_
FN:1191,_RNCNvXsT_NtNtCs5DPfXlAluY4_8hayabusa10detections7configsNtB7_16EidMetricsOptionNtNtCsgalAmTtUVqh_12clap_builder6derive14FromArgMatches20from_arg_matches_mut0Bb_
FN:1195,_RNCNvXsT_NtNtCs5DPfXlAluY4_8hayabusa10detections7configsNtB7_16EidMetricsOptionNtNtCsgalAmTtUVqh_12clap_builder6derive14FromArgMatches20from_arg_matches_muts_0Bb_
FN:1199,_RNCNvXsT_NtNtCs5DPfXlAluY4_8hayabusa10detections7configsNtB7_16EidMetricsOptionNtNtCsgalAmTtUVqh_12clap_builder6derive14FromArgMatches20from_arg_matches_muts0_0Bb_
FN:1203,_RNCNvXsT_NtNtCs5DPfXlAluY4_8hayabusa10detections7configsNtB7_16EidMetricsOptionNtNtCsgalAmTtUVqh_12clap_builder6derive14FromArgMatches20from_arg_matches_muts1_0Bb_
FN:1207,_RNCNvXsT_NtNtCs5DPfXlAluY4_8hayabusa10detections7configsNtB7_16EidMetricsOptionNtNtCsgalAmTtUVqh_12clap_builder6derive14FromArgMatches20from_arg_matches_muts2_0Bb_
FN:1211,_RNCNvXsT_NtNtCs5DPfXlAluY4_8hayabusa10detections7configsNtB7_16EidMetricsOptionNtNtCsgalAmTtUVqh_12clap_builder6derive14FromArgMatches20from_arg_matches_muts3_0Bb_
FN:1215,_RNCNvXsT_NtNtCs5DPfXlAluY4_8hayabusa10detections7configsNtB7_16EidMetricsOptionNtNtCsgalAmTtUVqh_12clap_builder6derive14FromArgMatches20from_arg_matches_muts4_0Bb_
FN:1219,_RNCNvXsT_NtNtCs5DPfXlAluY4_8hayabusa10detections7configsNtB7_16EidMetricsOptionNtNtCsgalAmTtUVqh_12clap_builder6derive14FromArgMatches20from_arg_matches_muts5_0Bb_
FN:1191,_RNCNvXsT_NtNtCs5DPfXlAluY4_8hayabusa10detections7configsNtB7_16EidMetricsOptionNtNtCsgalAmTtUVqh_12clap_builder6derive14FromArgMatches27update_from_arg_matches_mut0Bb_
FN:1195,_RNCNvXsT_NtNtCs5DPfXlAluY4_8hayabusa10detections7configsNtB7_16EidMetricsOptionNtNtCsgalAmTtUVqh_12clap_builder6derive14FromArgMatches27update_from_arg_matches_muts_0Bb_
FN:1199,_RNCNvXsT_NtNtCs5DPfXlAluY4_8hayabusa10detections7configsNtB7_16EidMetricsOptionNtNtCsgalAmTtUVqh_12clap_builder6derive14FromArgMatches27update_from_arg_matches_muts0_0Bb_
FN:1203,_RNCNvXsT_NtNtCs5DPfXlAluY4_8hayabusa10detections7configsNtB7_16EidMetricsOptionNtNtCsgalAmTtUVqh_12clap_builder6derive14FromArgMatches27update_from_arg_matches_muts1_0Bb_
FN:1207,_RNCNvXsT_NtNtCs5DPfXlAluY4_8hayabusa10detections7configsNtB7_16EidMetricsOptionNtNtCsgalAmTtUVqh_12clap_builder6derive14FromArgMatches27update_from_arg_matches_muts2_0Bb_
FN:1211,_RNCNvXsT_NtNtCs5DPfXlAluY4_8hayabusa10detections7configsNtB7_16EidMetricsOptionNtNtCsgalAmTtUVqh_12clap_builder6derive14FromArgMatches27update_from_arg_matches_muts3_0Bb_
FN:1215,_RNCNvXsT_NtNtCs5DPfXlAluY4_8hayabusa10detections7configsNtB7_16EidMetricsOptionNtNtCsgalAmTtUVqh_12clap_builder6derive14FromArgMatches27update_from_arg_matches_muts4_0Bb_
FN:1219,_RNCNvXsT_NtNtCs5DPfXlAluY4_8hayabusa10detections7configsNtB7_16EidMetricsOptionNtNtCsgalAmTtUVqh_12clap_builder6derive14FromArgMatches27update_from_arg_matches_muts5_0Bb_
FN:1238,_RNCNvXsX_NtNtCs5DPfXlAluY4_8hayabusa10detections7configsNtB7_18PivotKeywordOptionNtNtCsgalAmTtUVqh_12clap_builder6derive14FromArgMatches20from_arg_matches_mut0Bb_
FN:1242,_RNCNvXsX_NtNtCs5DPfXlAluY4_8hayabusa10detections7configsNtB7_18PivotKeywordOptionNtNtCsgalAmTtUVqh_12clap_builder6derive14FromArgMatches20from_arg_matches_muts_0Bb_
FN:1246,_RNCNvXsX_NtNtCs5DPfXlAluY4_8hayabusa10detections7configsNtB7_18PivotKeywordOptionNtNtCsgalAmTtUVqh_12clap_builder6derive14FromArgMatches20from_arg_matches_muts0_0Bb_
FN:1250,_RNCNvXsX_NtNtCs5DPfXlAluY4_8hayabusa10detections7configsNtB7_18PivotKeywordOptionNtNtCsgalAmTtUVqh_12clap_builder6derive14FromArgMatches20from_arg_matches_muts1_0Bb_
FN:1254,_RNCNvXsX_NtNtCs5DPfXlAluY4_8hayabusa10detections7configsNtB7_18PivotKeywordOptionNtNtCsgalAmTtUVqh_12clap_builder6derive14FromArgMatches20from_arg_matches_muts2_0Bb_
FN:1258,_RNCNvXsX_NtNtCs5DPfXlAluY4_8hayabusa10detections7configsNtB7_18PivotKeywordOptionNtNtCsgalAmTtUVqh_12clap_builder6derive14FromArgMatches20from_arg_matches_muts3_0Bb_
FN:1272,_RNCNvXsX_NtNtCs5DPfXlAluY4_8hayabusa10detections7configsNtB7_18PivotKeywordOptionNtNtCsgalAmTtUVqh_12clap_builder6derive14FromArgMatches20from_arg_matches_muts4_0Bb_
FN:1288,_RNCNvXsX_NtNtCs5DPfXlAluY4_8hayabusa10detections7configsNtB7_18PivotKeywordOptionNtNtCsgalAmTtUVqh_12clap_builder6derive14FromArgMatches20from_arg_matches_muts5_0Bb_
FN:1300,_RNCNvXsX_NtNtCs5DPfXlAluY4_8hayabusa10detections7configsNtB7_18PivotKeywordOptionNtNtCsgalAmTtUVqh_12clap_builder6derive14FromArgMatches20from_arg_matches_muts6_0Bb_
FN:1304,_RNCNvXsX_NtNtCs5DPfXlAluY4_8hayabusa10detections7configsNtB7_18PivotKeywordOptionNtNtCsgalAmTtUVqh_12clap_builder6derive14FromArgMatches20from_arg_matches_muts7_0Bb_
FN:1308,_RNCNvXsX_NtNtCs5DPfXlAluY4_8hayabusa10detections7configsNtB7_18PivotKeywordOptionNtNtCsgalAmTtUVqh_12clap_builder6derive14FromArgMatches20from_arg_matches_muts8_0Bb_
FN:1315,_RNCNvXsX_NtNtCs5DPfXlAluY4_8hayabusa10detections7configsNtB7_18PivotKeywordOptionNtNtCsgalAmTtUVqh_12clap_builder6derive14FromArgMatches20from_arg_matches_muts9_0Bb_
FN:1319,_RNCNvXsX_NtNtCs5DPfXlAluY4_8hayabusa10detections7configsNtB7_18PivotKeywordOptionNtNtCsgalAmTtUVqh_12clap_builder6derive14FromArgMatches20from_arg_matches_mutsa_0Bb_
FN:1238,_RNCNvXsX_NtNtCs5DPfXlAluY4_8hayabusa10detections7configsNtB7_18PivotKeywordOptionNtNtCsgalAmTtUVqh_12clap_builder6derive14FromArgMatches27update_from_arg_matches_mut0Bb_
FN:1242,_RNCNvXsX_NtNtCs5DPfXlAluY4_8hayabusa10detections7configsNtB7_18PivotKeywordOptionNtNtCsgalAmTtUVqh_12clap_builder6derive14FromArgMatches27update_from_arg_matches_muts_0Bb_
FN:1246,_RNCNvXsX_NtNtCs5DPfXlAluY4_8hayabusa10detections7configsNtB7_18PivotKeywordOptionNtNtCsgalAmTtUVqh_12clap_builder6derive14FromArgMatches27update_from_arg_matches_muts0_0Bb_
FN:1250,_RNCNvXsX_NtNtCs5DPfXlAluY4_8hayabusa10detections7configsNtB7_18PivotKeywordOptionNtNtCsgalAmTtUVqh_12clap_builder6derive14FromArgMatches27update_from_arg_matches_muts1_0Bb_
FN:1254,_RNCNvXsX_NtNtCs5DPfXlAluY4_8hayabusa10detections7configsNtB7_18PivotKeywordOptionNtNtCsgalAmTtUVqh_12clap_builder6derive14FromArgMatches27update_from_arg_matches_muts2_0Bb_
FN:1258,_RNCNvXsX_NtNtCs5DPfXlAluY4_8hayabusa10detections7configsNtB7_18PivotKeywordOptionNtNtCsgalAmTtUVqh_12clap_builder6derive14FromArgMatches27update_from_arg_matches_muts3_0Bb_
FN:1272,_RNCNvXsX_NtNtCs5DPfXlAluY4_8hayabusa10detections7configsNtB7_18PivotKeywordOptionNtNtCsgalAmTtUVqh_12clap_builder6derive14FromArgMatches27update_from_arg_matches_muts4_0Bb_
FN:1288,_RNCNvXsX_NtNtCs5DPfXlAluY4_8hayabusa10detections7configsNtB7_18PivotKeywordOptionNtNtCsgalAmTtUVqh_12clap_builder6derive14FromArgMatches27update_from_arg_matches_muts5_0Bb_
FN:1300,_RNCNvXsX_NtNtCs5DPfXlAluY4_8hayabusa10detections7configsNtB7_18PivotKeywordOptionNtNtCsgalAmTtUVqh_12clap_builder6derive14FromArgMatches27update_from_arg_matches_muts6_0Bb_
FN:1304,_RNCNvXsX_NtNtCs5DPfXlAluY4_8hayabusa10detections7configsNtB7_18PivotKeywordOptionNtNtCsgalAmTtUVqh_12clap_builder6derive14FromArgMatches27update_from_arg_matches_muts7_0Bb_
FN:1308,_RNCNvXsX_NtNtCs5DPfXlAluY4_8hayabusa10detections7configsNtB7_18PivotKeywordOptionNtNtCsgalAmTtUVqh_12clap_builder6derive14FromArgMatches27update_from_arg_matches_muts8_0Bb_
FN:1315,_RNCNvXsX_NtNtCs5DPfXlAluY4_8hayabusa10detections7configsNtB7_18PivotKeywordOptionNtNtCsgalAmTtUVqh_12clap_builder6derive14FromArgMatches27update_from_arg_matches_muts9_0Bb_
FN:1319,_RNCNvXsX_NtNtCs5DPfXlAluY4_8hayabusa10detections7configsNtB7_18PivotKeywordOptionNtNtCsgalAmTtUVqh_12clap_builder6derive14FromArgMatches27update_from_arg_matches_mutsa_0Bb_
FN:1339,_RNCNvXs11_NtNtCs5DPfXlAluY4_8hayabusa10detections7configsNtB8_18LogonSummaryOptionNtNtCsgalAmTtUVqh_12clap_builder6derive14FromArgMatches20from_arg_matches_mut0Bc_
FN:1343,_RNCNvXs11_NtNtCs5DPfXlAluY4_8hayabusa10detections7configsNtB8_18LogonSummaryOptionNtNtCsgalAmTtUVqh_12clap_builder6derive14FromArgMatches20from_arg_matches_muts_0Bc_
FN:1347,_RNCNvXs11_NtNtCs5DPfXlAluY4_8hayabusa10detections7configsNtB8_18LogonSummaryOptionNtNtCsgalAmTtUVqh_12clap_builder6derive14FromArgMatches20from_arg_matches_muts0_0Bc_
FN:1351,_RNCNvXs11_NtNtCs5DPfXlAluY4_8hayabusa10detections7configsNtB8_18LogonSummaryOptionNtNtCsgalAmTtUVqh_12clap_builder6derive14FromArgMatches20from_arg_matches_muts1_0Bc_
FN:1355,_RNCNvXs11_NtNtCs5DPfXlAluY4_8hayabusa10detections7configsNtB8_18LogonSummaryOptionNtNtCsgalAmTtUVqh_12clap_builder6derive14FromArgMatches20from_arg_matches_muts2_0Bc_
FN:1359,_RNCNvXs11_NtNtCs5DPfXlAluY4_8hayabusa10detections7configsNtB8_18LogonSummaryOptionNtNtCsgalAmTtUVqh_12clap_builder6derive14FromArgMatches20from_arg_matches_muts3_0Bc_
FN:1363,_RNCNvXs11_NtNtCs5DPfXlAluY4_8hayabusa10detections7configsNtB8_18LogonSummaryOptionNtNtCsgalAmTtUVqh_12clap_builder6derive14FromArgMatches20from_arg_matches_muts4_0Bc_
FN:1367,_RNCNvXs11_NtNtCs5DPfXlAluY4_8hayabusa10detections7configsNtB8_18LogonSummaryOptionNtNtCsgalAmTtUVqh_12clap_builder6derive14FromArgMatches20from_arg_matches_muts5_0Bc_
FN:1339,_RNCNvXs11_NtNtCs5DPfXlAluY4_8hayabusa10detections7configsNtB8_18LogonSummaryOptionNtNtCsgalAmTtUVqh_12clap_builder6derive14FromArgMatches27update_from_arg_matches_mut0Bc_
FN:1343,_RNCNvXs11_NtNtCs5DPfXlAluY4_8hayabusa10detections7configsNtB8_18LogonSummaryOptionNtNtCsgalAmTtUVqh_12clap_builder6derive14FromArgMatches27update_from_arg_matches_muts_0Bc_
FN:1347,_RNCNvXs11_NtNtCs5DPfXlAluY4_8hayabusa10detections7configsNtB8_18LogonSummaryOptionNtNtCsgalAmTtUVqh_12clap_builder6derive14FromArgMatches27update_from_arg_matches_muts0_0Bc_
FN:1351,_RNCNvXs11_NtNtCs5DPfXlAluY4_8hayabusa10detections7configsNtB8_18LogonSummaryOptionNtNtCsgalAmTtUVqh_12clap_builder6derive14FromArgMatches27update_from_arg_matches_muts1_0Bc_
FN:1355,_RNCNvXs11_NtNtCs5DPfXlAluY4_8hayabusa10detections7configsNtB8_18LogonSummaryOptionNtNtCsgalAmTtUVqh_12clap_builder6derive14FromArgMatches27update_from_arg_matches_muts2_0Bc_
FN:1359,_RNCNvXs11_NtNtCs5DPfXlAluY4_8hayabusa10detections7configsNtB8_18LogonSummaryOptionNtNtCsgalAmTtUVqh_12clap_builder6derive14FromArgMatches27update_from_arg_matches_muts3_0Bc_
FN:1363,_RNCNvXs11_NtNtCs5DPfXlAluY4_8hayabusa10detections7configsNtB8_18LogonSummaryOptionNtNtCsgalAmTtUVqh_12clap_builder6derive14FromArgMatches27update_from_arg_matches_muts4_0Bc_
FN:1367,_RNCNvXs11_NtNtCs5DPfXlAluY4_8hayabusa10detections7configsNtB8_18LogonSummaryOptionNtNtCsgalAmTtUVqh_12clap_builder6derive14FromArgMatches27update_from_arg_matches_muts5_0Bc_
FN:1394,_RNCNvXs15_NtNtCs5DPfXlAluY4_8hayabusa10detections7configsNtB8_12OutputOptionNtNtCsgalAmTtUVqh_12clap_builder6derive14FromArgMatches20from_arg_matches_mut0Bc_
FN:1398,_RNCNvXs15_NtNtCs5DPfXlAluY4_8hayabusa10detections7configsNtB8_12OutputOptionNtNtCsgalAmTtUVqh_12clap_builder6derive14FromArgMatches20from_arg_matches_muts_0Bc_
FN:1402,_RNCNvXs15_NtNtCs5DPfXlAluY4_8hayabusa10detections7configsNtB8_12OutputOptionNtNtCsgalAmTtUVqh_12clap_builder6derive14FromArgMatches20from_arg_matches_muts0_0Bc_
FN:1406,_RNCNvXs15_NtNtCs5DPfXlAluY4_8hayabusa10detections7configsNtB8_12OutputOptionNtNtCsgalAmTtUVqh_12clap_builder6derive14FromArgMatches20from_arg_matches_muts1_0Bc_
FN:1410,_RNCNvXs15_NtNtCs5DPfXlAluY4_8hayabusa10detections7configsNtB8_12OutputOptionNtNtCsgalAmTtUVqh_12clap_builder6derive14FromArgMatches20from_arg_matches_muts2_0Bc_
FN:1414,_RNCNvXs15_NtNtCs5DPfXlAluY4_8hayabusa10detections7configsNtB8_12OutputOptionNtNtCsgalAmTtUVqh_12clap_builder6derive14FromArgMatches20from_arg_matches_muts3_0Bc_
FN:1418,_RNCNvXs15_NtNtCs5DPfXlAluY4_8hayabusa10detections7configsNtB8_12OutputOptionNtNtCsgalAmTtUVqh_12clap_builder6derive14FromArgMatches20from_arg_matches_muts4_0Bc_
FN:1431,_RNCNvXs15_NtNtCs5DPfXlAluY4_8hayabusa10detections7configsNtB8_12OutputOptionNtNtCsgalAmTtUVqh_12clap_builder6derive14FromArgMatches20from_arg_matches_muts5_0Bc_
FN:1447,_RNCNvXs15_NtNtCs5DPfXlAluY4_8hayabusa10detections7configsNtB8_12OutputOptionNtNtCsgalAmTtUVqh_12clap_builder6derive14FromArgMatches20from_arg_matches_muts6_0Bc_
FN:1459,_RNCNvXs15_NtNtCs5DPfXlAluY4_8hayabusa10detections7configsNtB8_12OutputOptionNtNtCsgalAmTtUVqh_12clap_builder6derive14FromArgMatches20from_arg_matches_muts7_0Bc_
FN:1463,_RNCNvXs15_NtNtCs5DPfXlAluY4_8hayabusa10detections7configsNtB8_12OutputOptionNtNtCsgalAmTtUVqh_12clap_builder6derive14FromArgMatches20from_arg_matches_muts8_0Bc_
FN:1467,_RNCNvXs15_NtNtCs5DPfXlAluY4_8hayabusa10detections7configsNtB8_12OutputOptionNtNtCsgalAmTtUVqh_12clap_builder6derive14FromArgMatches20from_arg_matches_muts9_0Bc_
FN:1471,_RNCNvXs15_NtNtCs5DPfXlAluY4_8hayabusa10detections7configsNtB8_12OutputOptionNtNtCsgalAmTtUVqh_12clap_builder6derive14FromArgMatches20from_arg_matches_mutsa_0Bc_
FN:1475,_RNCNvXs15_NtNtCs5DPfXlAluY4_8hayabusa10detections7configsNtB8_12OutputOptionNtNtCsgalAmTtUVqh_12clap_builder6derive14FromArgMatches20from_arg_matches_mutsb_0Bc_
FN:1482,_RNCNvXs15_NtNtCs5DPfXlAluY4_8hayabusa10detections7configsNtB8_12OutputOptionNtNtCsgalAmTtUVqh_12clap_builder6derive14FromArgMatches20from_arg_matches_mutsc_0Bc_
FN:1486,_RNCNvXs15_NtNtCs5DPfXlAluY4_8hayabusa10detections7configsNtB8_12OutputOptionNtNtCsgalAmTtUVqh_12clap_builder6derive14FromArgMatches20from_arg_matches_mutsd_0Bc_
FN:1490,_RNCNvXs15_NtNtCs5DPfXlAluY4_8hayabusa10detections7configsNtB8_12OutputOptionNtNtCsgalAmTtUVqh_12clap_builder6derive14FromArgMatches20from_arg_matches_mutse_0Bc_
FN:1494,_RNCNvXs15_NtNtCs5DPfXlAluY4_8hayabusa10detections7configsNtB8_12OutputOptionNtNtCsgalAmTtUVqh_12clap_builder6derive14FromArgMatches20from_arg_matches_mutsf_0Bc_
FN:1498,_RNCNvXs15_NtNtCs5DPfXlAluY4_8hayabusa10detections7configsNtB8_12OutputOptionNtNtCsgalAmTtUVqh_12clap_builder6derive14FromArgMatches20from_arg_matches_mutsg_0Bc_
FN:1502,_RNCNvXs15_NtNtCs5DPfXlAluY4_8hayabusa10detections7configsNtB8_12OutputOptionNtNtCsgalAmTtUVqh_12clap_builder6derive14FromArgMatches20from_arg_matches_mutsh_0Bc_
FN:1506,_RNCNvXs15_NtNtCs5DPfXlAluY4_8hayabusa10detections7configsNtB8_12OutputOptionNtNtCsgalAmTtUVqh_12clap_builder6derive14FromArgMatches20from_arg_matches_mutsi_0Bc_
FN:1510,_RNCNvXs15_NtNtCs5DPfXlAluY4_8hayabusa10detections7configsNtB8_12OutputOptionNtNtCsgalAmTtUVqh_12clap_builder6derive14FromArgMatches20from_arg_matches_mutsj_0Bc_
FN:1523,_RNCNvXs15_NtNtCs5DPfXlAluY4_8hayabusa10detections7configsNtB8_12OutputOptionNtNtCsgalAmTtUVqh_12clap_builder6derive14FromArgMatches20from_arg_matches_mutsk_0Bc_
FN:1531,_RNCNvXs15_NtNtCs5DPfXlAluY4_8hayabusa10detections7configsNtB8_12OutputOptionNtNtCsgalAmTtUVqh_12clap_builder6derive14FromArgMatches20from_arg_matches_mutsl_0Bc_
FN:1535,_RNCNvXs15_NtNtCs5DPfXlAluY4_8hayabusa10detections7configsNtB8_12OutputOptionNtNtCsgalAmTtUVqh_12clap_builder6derive14FromArgMatches20from_arg_matches_mutsm_0Bc_
FN:1539,_RNCNvXs15_NtNtCs5DPfXlAluY4_8hayabusa10detections7configsNtB8_12OutputOptionNtNtCsgalAmTtUVqh_12clap_builder6derive14FromArgMatches20from_arg_matches_mutsn_0Bc_
FN:1543,_RNCNvXs15_NtNtCs5DPfXlAluY4_8hayabusa10detections7configsNtB8_12OutputOptionNtNtCsgalAmTtUVqh_12clap_builder6derive14FromArgMatches20from_arg_matches_mutso_0Bc_
FN:1553,_RNCNvXs15_NtNtCs5DPfXlAluY4_8hayabusa10detections7configsNtB8_12OutputOptionNtNtCsgalAmTtUVqh_12clap_builder6derive14FromArgMatches20from_arg_matches_mutsp_0Bc_
FN:1557,_RNCNvXs15_NtNtCs5DPfXlAluY4_8hayabusa10detections7configsNtB8_12OutputOptionNtNtCsgalAmTtUVqh_12clap_builder6derive14FromArgMatches20from_arg_matches_mutsq_0Bc_
FN:1561,_RNCNvXs15_NtNtCs5DPfXlAluY4_8hayabusa10detections7configsNtB8_12OutputOptionNtNtCsgalAmTtUVqh_12clap_builder6derive14FromArgMatches20from_arg_matches_mutsr_0Bc_
FN:1565,_RNCNvXs15_NtNtCs5DPfXlAluY4_8hayabusa10detections7configsNtB8_12OutputOptionNtNtCsgalAmTtUVqh_12clap_builder6derive14FromArgMatches20from_arg_matches_mutss_0Bc_
FN:1394,_RNCNvXs15_NtNtCs5DPfXlAluY4_8hayabusa10detections7configsNtB8_12OutputOptionNtNtCsgalAmTtUVqh_12clap_builder6derive14FromArgMatches27update_from_arg_matches_mut0Bc_
FN:1398,_RNCNvXs15_NtNtCs5DPfXlAluY4_8hayabusa10detections7configsNtB8_12OutputOptionNtNtCsgalAmTtUVqh_12clap_builder6derive14FromArgMatches27update_from_arg_matches_muts_0Bc_
FN:1402,_RNCNvXs15_NtNtCs5DPfXlAluY4_8hayabusa10detections7configsNtB8_12OutputOptionNtNtCsgalAmTtUVqh_12clap_builder6derive14FromArgMatches27update_from_arg_matches_muts0_0Bc_
FN:1406,_RNCNvXs15_NtNtCs5DPfXlAluY4_8hayabusa10detections7configsNtB8_12OutputOptionNtNtCsgalAmTtUVqh_12clap_builder6derive14FromArgMatches27update_from_arg_matches_muts1_0Bc_
FN:1410,_RNCNvXs15_NtNtCs5DPfXlAluY4_8hayabusa10detections7configsNtB8_12OutputOptionNtNtCsgalAmTtUVqh_12clap_builder6derive14FromArgMatches27update_from_arg_matches_muts2_0Bc_
FN:1414,_RNCNvXs15_NtNtCs5DPfXlAluY4_8hayabusa10detections7configsNtB8_12OutputOptionNtNtCsgalAmTtUVqh_12clap_builder6derive14FromArgMatches27update_from_arg_matches_muts3_0Bc_
FN:1418,_RNCNvXs15_NtNtCs5DPfXlAluY4_8hayabusa10detections7configsNtB8_12OutputOptionNtNtCsgalAmTtUVqh_12clap_builder6derive14FromArgMatches27update_from_arg_matches_muts4_0Bc_
FN:1431,_RNCNvXs15_NtNtCs5DPfXlAluY4_8hayabusa10detections7configsNtB8_12OutputOptionNtNtCsgalAmTtUVqh_12clap_builder6derive14FromArgMatches27update_from_arg_matches_muts5_0Bc_
FN:1447,_RNCNvXs15_NtNtCs5DPfXlAluY4_8hayabusa10detections7configsNtB8_12OutputOptionNtNtCsgalAmTtUVqh_12clap_builder6derive14FromArgMatches27update_from_arg_matches_muts6_0Bc_
FN:1459,_RNCNvXs15_NtNtCs5DPfXlAluY4_8hayabusa10detections7configsNtB8_12OutputOptionNtNtCsgalAmTtUVqh_12clap_builder6derive14FromArgMatches27update_from_arg_matches_muts7_0Bc_
FN:1463,_RNCNvXs15_NtNtCs5DPfXlAluY4_8hayabusa10detections7configsNtB8_12OutputOptionNtNtCsgalAmTtUVqh_12clap_builder6derive14FromArgMatches27update_from_arg_matches_muts8_0Bc_
FN:1467,_RNCNvXs15_NtNtCs5DPfXlAluY4_8hayabusa10detections7configsNtB8_12OutputOptionNtNtCsgalAmTtUVqh_12clap_builder6derive14FromArgMatches27update_from_arg_matches_muts9_0Bc_
FN:1471,_RNCNvXs15_NtNtCs5DPfXlAluY4_8hayabusa10detections7configsNtB8_12OutputOptionNtNtCsgalAmTtUVqh_12clap_builder6derive14FromArgMatches27update_from_arg_matches_mutsa_0Bc_
FN:1475,_RNCNvXs15_NtNtCs5DPfXlAluY4_8hayabusa10detections7configsNtB8_12OutputOptionNtNtCsgalAmTtUVqh_12clap_builder6derive14FromArgMatches27update_from_arg_matches_mutsb_0Bc_
FN:1482,_RNCNvXs15_NtNtCs5DPfXlAluY4_8hayabusa10detections7configsNtB8_12OutputOptionNtNtCsgalAmTtUVqh_12clap_builder6derive14FromArgMatches27update_from_arg_matches_mutsc_0Bc_
FN:1486,_RNCNvXs15_NtNtCs5DPfXlAluY4_8hayabusa10detections7configsNtB8_12OutputOptionNtNtCsgalAmTtUVqh_12clap_builder6derive14FromArgMatches27update_from_arg_matches_mutsd_0Bc_
FN:1490,_RNCNvXs15_NtNtCs5DPfXlAluY4_8hayabusa10detections7configsNtB8_12OutputOptionNtNtCsgalAmTtUVqh_12clap_builder6derive14FromArgMatches27update_from_arg_matches_mutse_0Bc_
FN:1494,_RNCNvXs15_NtNtCs5DPfXlAluY4_8hayabusa10detections7configsNtB8_12OutputOptionNtNtCsgalAmTtUVqh_12clap_builder6derive14FromArgMatches27update_from_arg_matches_mutsf_0Bc_
FN:1498,_RNCNvXs15_NtNtCs5DPfXlAluY4_8hayabusa10detections7configsNtB8_12OutputOptionNtNtCsgalAmTtUVqh_12clap_builder6derive14FromArgMatches27update_from_arg_matches_mutsg_0Bc_
FN:1502,_RNCNvXs15_NtNtCs5DPfXlAluY4_8hayabusa10detections7configsNtB8_12OutputOptionNtNtCsgalAmTtUVqh_12clap_builder6derive14FromArgMatches27update_from_arg_matches_mutsh_0Bc_
FN:1506,_RNCNvXs15_NtNtCs5DPfXlAluY4_8hayabusa10detections7configsNtB8_12OutputOptionNtNtCsgalAmTtUVqh_12clap_builder6derive14FromArgMatches27update_from_arg_matches_mutsi_0Bc_
FN:1510,_RNCNvXs15_NtNtCs5DPfXlAluY4_8hayabusa10detections7configsNtB8_12OutputOptionNtNtCsgalAmTtUVqh_12clap_builder6derive14FromArgMatches27update_from_arg_matches_mutsj_0Bc_
FN:1523,_RNCNvXs15_NtNtCs5DPfXlAluY4_8hayabusa10detections7configsNtB8_12OutputOptionNtNtCsgalAmTtUVqh_12clap_builder6derive14FromArgMatches27update_from_arg_matches_mutsk_0Bc_
FN:1531,_RNCNvXs15_NtNtCs5DPfXlAluY4_8hayabusa10detections7configsNtB8_12OutputOptionNtNtCsgalAmTtUVqh_12clap_builder6derive14FromArgMatches27update_from_arg_matches_mutsl_0Bc_
FN:1535,_RNCNvXs15_NtNtCs5DPfXlAluY4_8hayabusa10detections7configsNtB8_12OutputOptionNtNtCsgalAmTtUVqh_12clap_builder6derive14FromArgMatches27update_from_arg_matches_mutsm_0Bc_
FN:1539,_RNCNvXs15_NtNtCs5DPfXlAluY4_8hayabusa10detections7configsNtB8_12OutputOptionNtNtCsgalAmTtUVqh_12clap_builder6derive14FromArgMatches27update_from_arg_matches_mutsn_0Bc_
FN:1543,_RNCNvXs15_NtNtCs5DPfXlAluY4_8hayabusa10detections7configsNtB8_12OutputOptionNtNtCsgalAmTtUVqh_12clap_builder6derive14FromArgMatches27update_from_arg_matches_mutso_0Bc_
FN:1553,_RNCNvXs15_NtNtCs5DPfXlAluY4_8hayabusa10detections7configsNtB8_12OutputOptionNtNtCsgalAmTtUVqh_12clap_builder6derive14FromArgMatches27update_from_arg_matches_mutsp_0Bc_
FN:1557,_RNCNvXs15_NtNtCs5DPfXlAluY4_8hayabusa10detections7configsNtB8_12OutputOptionNtNtCsgalAmTtUVqh_12clap_builder6derive14FromArgMatches27update_from_arg_matches_mutsq_0Bc_
FN:1561,_RNCNvXs15_NtNtCs5DPfXlAluY4_8hayabusa10detections7configsNtB8_12OutputOptionNtNtCsgalAmTtUVqh_12clap_builder6derive14FromArgMatches27update_from_arg_matches_mutsr_0Bc_
FN:1565,_RNCNvXs15_NtNtCs5DPfXlAluY4_8hayabusa10detections7configsNtB8_12OutputOptionNtNtCsgalAmTtUVqh_12clap_builder6derive14FromArgMatches27update_from_arg_matches_mutss_0Bc_
FN:1572,_RNCNvXs1a_NtNtCs5DPfXlAluY4_8hayabusa10detections7configsNtB8_13CommonOptionsNtNtCsgalAmTtUVqh_12clap_builder6derive14FromArgMatches20from_arg_matches_mut0Bc_
FN:1576,_RNCNvXs1a_NtNtCs5DPfXlAluY4_8hayabusa10detections7configsNtB8_13CommonOptionsNtNtCsgalAmTtUVqh_12clap_builder6derive14FromArgMatches20from_arg_matches_muts_0Bc_
FN:1572,_RNCNvXs1a_NtNtCs5DPfXlAluY4_8hayabusa10detections7configsNtB8_13CommonOptionsNtNtCsgalAmTtUVqh_12clap_builder6derive14FromArgMatches27update_from_arg_matches_mut0Bc_
FN:1576,_RNCNvXs1a_NtNtCs5DPfXlAluY4_8hayabusa10detections7configsNtB8_13CommonOptionsNtNtCsgalAmTtUVqh_12clap_builder6derive14FromArgMatches27update_from_arg_matches_muts_0Bc_
FN:1596,_RNCNvXs1e_NtNtCs5DPfXlAluY4_8hayabusa10detections7configsNtB8_11InputOptionNtNtCsgalAmTtUVqh_12clap_builder6derive14FromArgMatches20from_arg_matches_mut0Bc_
FN:1600,_RNCNvXs1e_NtNtCs5DPfXlAluY4_8hayabusa10detections7configsNtB8_11InputOptionNtNtCsgalAmTtUVqh_12clap_builder6derive14FromArgMatches20from_arg_matches_muts_0Bc_
FN:1596,_RNCNvXs1e_NtNtCs5DPfXlAluY4_8hayabusa10detections7configsNtB8_11InputOptionNtNtCsgalAmTtUVqh_12clap_builder6derive14FromArgMatches27update_from_arg_matches_mut0Bc_
FN:1600,_RNCNvXs1e_NtNtCs5DPfXlAluY4_8hayabusa10detections7configsNtB8_11InputOptionNtNtCsgalAmTtUVqh_12clap_builder6derive14FromArgMatches27update_from_arg_matches_muts_0Bc_
FN:1614,_RNCNvXs1i_NtNtCs5DPfXlAluY4_8hayabusa10detections7configsNtB8_15CsvOutputOptionNtNtCsgalAmTtUVqh_12clap_builder6derive14FromArgMatches20from_arg_matches_mut0Bc_
FN:1614,_RNCNvXs1i_NtNtCs5DPfXlAluY4_8hayabusa10detections7configsNtB8_15CsvOutputOptionNtNtCsgalAmTtUVqh_12clap_builder6derive14FromArgMatches27update_from_arg_matches_mut0Bc_
FN:1643,_RNCNvXs1m_NtNtCs5DPfXlAluY4_8hayabusa10detections7configsNtB8_16JSONOutputOptionNtNtCsgalAmTtUVqh_12clap_builder6derive14FromArgMatches20from_arg_matches_mut0Bc_
FN:1643,_RNCNvXs1m_NtNtCs5DPfXlAluY4_8hayabusa10detections7configsNtB8_16JSONOutputOptionNtNtCsgalAmTtUVqh_12clap_builder6derive14FromArgMatches27update_from_arg_matches_mut0Bc_
FN:1670,_RNCNvXs1q_NtNtCs5DPfXlAluY4_8hayabusa10detections7configsNtB8_21ComputerMetricsOptionNtNtCsgalAmTtUVqh_12clap_builder6derive14FromArgMatches20from_arg_matches_mut0Bc_
FN:1674,_RNCNvXs1q_NtNtCs5DPfXlAluY4_8hayabusa10detections7configsNtB8_21ComputerMetricsOptionNtNtCsgalAmTtUVqh_12clap_builder6derive14FromArgMatches20from_arg_matches_muts_0Bc_
FN:1688,_RNCNvXs1q_NtNtCs5DPfXlAluY4_8hayabusa10detections7configsNtB8_21ComputerMetricsOptionNtNtCsgalAmTtUVqh_12clap_builder6derive14FromArgMatches20from_arg_matches_muts0_0Bc_
FN:1700,_RNCNvXs1q_NtNtCs5DPfXlAluY4_8hayabusa10detections7configsNtB8_21ComputerMetricsOptionNtNtCsgalAmTtUVqh_12clap_builder6derive14FromArgMatches20from_arg_matches_muts1_0Bc_
FN:1704,_RNCNvXs1q_NtNtCs5DPfXlAluY4_8hayabusa10detections7configsNtB8_21ComputerMetricsOptionNtNtCsgalAmTtUVqh_12clap_builder6derive14FromArgMatches20from_arg_matches_muts2_0Bc_
FN:1708,_RNCNvXs1q_NtNtCs5DPfXlAluY4_8hayabusa10detections7configsNtB8_21ComputerMetricsOptionNtNtCsgalAmTtUVqh_12clap_builder6derive14FromArgMatches20from_arg_matches_muts3_0Bc_
FN:1670,_RNCNvXs1q_NtNtCs5DPfXlAluY4_8hayabusa10detections7configsNtB8_21ComputerMetricsOptionNtNtCsgalAmTtUVqh_12clap_builder6derive14FromArgMatches27update_from_arg_matches_mut0Bc_
FN:1674,_RNCNvXs1q_NtNtCs5DPfXlAluY4_8hayabusa10detections7configsNtB8_21ComputerMetricsOptionNtNtCsgalAmTtUVqh_12clap_builder6derive14FromArgMatches27update_from_arg_matches_muts_0Bc_
FN:1688,_RNCNvXs1q_NtNtCs5DPfXlAluY4_8hayabusa10detections7configsNtB8_21ComputerMetricsOptionNtNtCsgalAmTtUVqh_12clap_builder6derive14FromArgMatches27update_from_arg_matches_muts0_0Bc_
FN:1700,_RNCNvXs1q_NtNtCs5DPfXlAluY4_8hayabusa10detections7configsNtB8_21ComputerMetricsOptionNtNtCsgalAmTtUVqh_12clap_builder6derive14FromArgMatches27update_from_arg_matches_muts1_0Bc_
FN:1704,_RNCNvXs1q_NtNtCs5DPfXlAluY4_8hayabusa10detections7configsNtB8_21ComputerMetricsOptionNtNtCsgalAmTtUVqh_12clap_builder6derive14FromArgMatches27update_from_arg_matches_muts2_0Bc_
FN:1708,_RNCNvXs1q_NtNtCs5DPfXlAluY4_8hayabusa10detections7configsNtB8_21ComputerMetricsOptionNtNtCsgalAmTtUVqh_12clap_builder6derive14FromArgMatches27update_from_arg_matches_muts3_0Bc_
FN:1724,_RNCNvXs1w_NtNtCs5DPfXlAluY4_8hayabusa10detections7configsNtB8_6ConfigNtNtCsgalAmTtUVqh_12clap_builder6derive14FromArgMatches20from_arg_matches_mut0Bc_
FN:1724,_RNCNvXs1w_NtNtCs5DPfXlAluY4_8hayabusa10detections7configsNtB8_6ConfigNtNtCsgalAmTtUVqh_12clap_builder6derive14FromArgMatches27update_from_arg_matches_mut0Bc_
FN:2672,_RNvNtNtNtCsNhz5SapXcJ_8hayabusa10detections7configs5testss_24target_event_time_filter
FN:2687,_RNvNtNtNtCsNhz5SapXcJ_8hayabusa10detections7configs5testss_42target_event_time_filter_containes_on_time
FN:2697,_RNvNtNtNtCsNhz5SapXcJ_8hayabusa10detections7configs5testss_26test_get_target_extensions
FN:2709,_RNvNtNtNtCsNhz5SapXcJ_8hayabusa10detections7configs5testss_20no_target_extensions
FN:2719,_RNvNtNtNtCsNhz5SapXcJ_8hayabusa10detections7configs5testss_36test_create_control_char_replace_map
FN:2721,_RNCNvNtNtNtCsNhz5SapXcJ_8hayabusa10detections7configs5testss_36test_create_control_char_replace_map0B9_
FN:2736,_RNvNtNtNtCsNhz5SapXcJ_8hayabusa10detections7configs5testss_24test_timeline_offset_csv
FN:2812,_RNvNtNtNtCsNhz5SapXcJ_8hayabusa10detections7configs5testss_25test_timeline_offset_json
FN:2888,_RNvNtNtNtCsNhz5SapXcJ_8hayabusa10detections7configs5testss_27test_timeline_offset_search
FN:2935,_RNvNtNtNtCsNhz5SapXcJ_8hayabusa10detections7configs5testss_32test_timeline_offset_eid_metrics
FN:2979,_RNvNtNtNtCsNhz5SapXcJ_8hayabusa10detections7configs5testss_34test_timeline_offset_logon_summary
FN:3029,_RNvNtNtNtCsNhz5SapXcJ_8hayabusa10detections7configs5testss_26test_timeline_offset_pivot
FN:50,_RNvXNtNtCsNhz5SapXcJ_8hayabusa10detections7configsNtB2_12ConfigReaderNtNtCshEwRaVhoEM3_4core7default7Default7default
FN:905,_RNvMs0_NtNtCsNhz5SapXcJ_8hayabusa10detections7configsNtB5_6Action15get_action_name
FN:931,_RNCNvXsz_NtNtCsNhz5SapXcJ_8hayabusa10detections7configsNtB7_18DetectCommonOptionNtNtCsgalAmTtUVqh_12clap_builder6derive14FromArgMatches20from_arg_matches_mut0Bb_
FN:935,_RNCNvXsz_NtNtCsNhz5SapXcJ_8hayabusa10detections7configsNtB7_18DetectCommonOptionNtNtCsgalAmTtUVqh_12clap_builder6derive14FromArgMatches20from_arg_matches_muts_0Bb_
FN:949,_RNCNvXsz_NtNtCsNhz5SapXcJ_8hayabusa10detections7configsNtB7_18DetectCommonOptionNtNtCsgalAmTtUVqh_12clap_builder6derive14FromArgMatches20from_arg_matches_muts0_0Bb_
FN:961,_RNCNvXsz_NtNtCsNhz5SapXcJ_8hayabusa10detections7configsNtB7_18DetectCommonOptionNtNtCsgalAmTtUVqh_12clap_builder6derive14FromArgMatches20from_arg_matches_muts1_0Bb_
FN:965,_RNCNvXsz_NtNtCsNhz5SapXcJ_8hayabusa10detections7configsNtB7_18DetectCommonOptionNtNtCsgalAmTtUVqh_12clap_builder6derive14FromArgMatches20from_arg_matches_muts2_0Bb_
FN:969,_RNCNvXsz_NtNtCsNhz5SapXcJ_8hayabusa10detections7configsNtB7_18DetectCommonOptionNtNtCsgalAmTtUVqh_12clap_builder6derive14FromArgMatches20from_arg_matches_muts3_0Bb_
FN:973,_RNCNvXsz_NtNtCsNhz5SapXcJ_8hayabusa10detections7configsNtB7_18DetectCommonOptionNtNtCsgalAmTtUVqh_12clap_builder6derive14FromArgMatches20from_arg_matches_muts4_0Bb_
FN:931,_RNCNvXsz_NtNtCsNhz5SapXcJ_8hayabusa10detections7configsNtB7_18DetectCommonOptionNtNtCsgalAmTtUVqh_12clap_builder6derive14FromArgMatches27update_from_arg_matches_mut0Bb_
FN:935,_RNCNvXsz_NtNtCsNhz5SapXcJ_8hayabusa10detections7configsNtB7_18DetectCommonOptionNtNtCsgalAmTtUVqh_12clap_builder6derive14FromArgMatches27update_from_arg_matches_muts_0Bb_
FN:949,_RNCNvXsz_NtNtCsNhz5SapXcJ_8hayabusa10detections7configsNtB7_18DetectCommonOptionNtNtCsgalAmTtUVqh_12clap_builder6derive14FromArgMatches27update_from_arg_matches_muts0_0Bb_
FN:961,_RNCNvXsz_NtNtCsNhz5SapXcJ_8hayabusa10detections7configsNtB7_18DetectCommonOptionNtNtCsgalAmTtUVqh_12clap_builder6derive14FromArgMatches27update_from_arg_matches_muts1_0Bb_
FN:965,_RNCNvXsz_NtNtCsNhz5SapXcJ_8hayabusa10detections7configsNtB7_18DetectCommonOptionNtNtCsgalAmTtUVqh_12clap_builder6derive14FromArgMatches27update_from_arg_matches_muts2_0Bb_
FN:969,_RNCNvXsz_NtNtCsNhz5SapXcJ_8hayabusa10detections7configsNtB7_18DetectCommonOptionNtNtCsgalAmTtUVqh_12clap_builder6derive14FromArgMatches27update_from_arg_matches_muts3_0Bb_
FN:973,_RNCNvXsz_NtNtCsNhz5SapXcJ_8hayabusa10detections7configsNtB7_18DetectCommonOptionNtNtCsgalAmTtUVqh_12clap_builder6derive14FromArgMatches27update_from_arg_matches_muts4_0Bb_
FN:1004,_RNCNvXsH_NtNtCsNhz5SapXcJ_8hayabusa10detections7configsNtB7_12SearchOptionNtNtCsgalAmTtUVqh_12clap_builder6derive14FromArgMatches20from_arg_matches_mut0Bb_
FN:1025,_RNCNvXsH_NtNtCsNhz5SapXcJ_8hayabusa10detections7configsNtB7_12SearchOptionNtNtCsgalAmTtUVqh_12clap_builder6derive14FromArgMatches20from_arg_matches_muts_0Bb_
FN:1037,_RNCNvXsH_NtNtCsNhz5SapXcJ_8hayabusa10detections7configsNtB7_12SearchOptionNtNtCsgalAmTtUVqh_12clap_builder6derive14FromArgMatches20from_arg_matches_muts0_0Bb_
FN:1047,_RNCNvXsH_NtNtCsNhz5SapXcJ_8hayabusa10detections7configsNtB7_12SearchOptionNtNtCsgalAmTtUVqh_12clap_builder6derive14FromArgMatches20from_arg_matches_muts1_0Bb_
FN:1060,_RNCNvXsH_NtNtCsNhz5SapXcJ_8hayabusa10detections7configsNtB7_12SearchOptionNtNtCsgalAmTtUVqh_12clap_builder6derive14FromArgMatches20from_arg_matches_muts2_0Bb_
FN:1074,_RNCNvXsH_NtNtCsNhz5SapXcJ_8hayabusa10detections7configsNtB7_12SearchOptionNtNtCsgalAmTtUVqh_12clap_builder6derive14FromArgMatches20from_arg_matches_muts3_0Bb_
FN:1086,_RNCNvXsH_NtNtCsNhz5SapXcJ_8hayabusa10detections7configsNtB7_12SearchOptionNtNtCsgalAmTtUVqh_12clap_builder6derive14FromArgMatches20from_arg_matches_muts4_0Bb_
FN:1090,_RNCNvXsH_NtNtCsNhz5SapXcJ_8hayabusa10detections7configsNtB7_12SearchOptionNtNtCsgalAmTtUVqh_12clap_builder6derive14FromArgMatches20from_arg_matches_muts5_0Bb_
FN:1094,_RNCNvXsH_NtNtCsNhz5SapXcJ_8hayabusa10detections7configsNtB7_12SearchOptionNtNtCsgalAmTtUVqh_12clap_builder6derive14FromArgMatches20from_arg_matches_muts6_0Bb_
FN:1098,_RNCNvXsH_NtNtCsNhz5SapXcJ_8hayabusa10detections7configsNtB7_12SearchOptionNtNtCsgalAmTtUVqh_12clap_builder6derive14FromArgMatches20from_arg_matches_muts7_0Bb_
FN:1102,_RNCNvXsH_NtNtCsNhz5SapXcJ_8hayabusa10detections7configsNtB7_12SearchOptionNtNtCsgalAmTtUVqh_12clap_builder6derive14FromArgMatches20from_arg_matches_muts8_0Bb_
FN:1106,_RNCNvXsH_NtNtCsNhz5SapXcJ_8hayabusa10detections7configsNtB7_12SearchOptionNtNtCsgalAmTtUVqh_12clap_builder6derive14FromArgMatches20from_arg_matches_muts9_0Bb_
FN:1110,_RNCNvXsH_NtNtCsNhz5SapXcJ_8hayabusa10detections7configsNtB7_12SearchOptionNtNtCsgalAmTtUVqh_12clap_builder6derive14FromArgMatches20from_arg_matches_mutsa_0Bb_
FN:1114,_RNCNvXsH_NtNtCsNhz5SapXcJ_8hayabusa10detections7configsNtB7_12SearchOptionNtNtCsgalAmTtUVqh_12clap_builder6derive14FromArgMatches20from_arg_matches_mutsb_0Bb_
FN:1118,_RNCNvXsH_NtNtCsNhz5SapXcJ_8hayabusa10detections7configsNtB7_12SearchOptionNtNtCsgalAmTtUVqh_12clap_builder6derive14FromArgMatches20from_arg_matches_mutsc_0Bb_
FN:1122,_RNCNvXsH_NtNtCsNhz5SapXcJ_8hayabusa10detections7configsNtB7_12SearchOptionNtNtCsgalAmTtUVqh_12clap_builder6derive14FromArgMatches20from_arg_matches_mutsd_0Bb_
FN:1126,_RNCNvXsH_NtNtCsNhz5SapXcJ_8hayabusa10detections7configsNtB7_12SearchOptionNtNtCsgalAmTtUVqh_12clap_builder6derive14FromArgMatches20from_arg_matches_mutse_0Bb_
FN:1130,_RNCNvXsH_NtNtCsNhz5SapXcJ_8hayabusa10detections7configsNtB7_12SearchOptionNtNtCsgalAmTtUVqh_12clap_builder6derive14FromArgMatches20from_arg_matches_mutsf_0Bb_
FN:1134,_RNCNvXsH_NtNtCsNhz5SapXcJ_8hayabusa10detections7configsNtB7_12SearchOptionNtNtCsgalAmTtUVqh_12clap_builder6derive14FromArgMatches20from_arg_matches_mutsg_0Bb_
FN:1004,_RNCNvXsH_NtNtCsNhz5SapXcJ_8hayabusa10detections7configsNtB7_12SearchOptionNtNtCsgalAmTtUVqh_12clap_builder6derive14FromArgMatches27update_from_arg_matches_mut0Bb_
FN:1025,_RNCNvXsH_NtNtCsNhz5SapXcJ_8hayabusa10detections7configsNtB7_12SearchOptionNtNtCsgalAmTtUVqh_12clap_builder6derive14FromArgMatches27update_from_arg_matches_muts_0Bb_
FN:1037,_RNCNvXsH_NtNtCsNhz5SapXcJ_8hayabusa10detections7configsNtB7_12SearchOptionNtNtCsgalAmTtUVqh_12clap_builder6derive14FromArgMatches27update_from_arg_matches_muts0_0Bb_
FN:1047,_RNCNvXsH_NtNtCsNhz5SapXcJ_8hayabusa10detections7configsNtB7_12SearchOptionNtNtCsgalAmTtUVqh_12clap_builder6derive14FromArgMatches27update_from_arg_matches_muts1_0Bb_
FN:1060,_RNCNvXsH_NtNtCsNhz5SapXcJ_8hayabusa10detections7configsNtB7_12SearchOptionNtNtCsgalAmTtUVqh_12clap_builder6derive14FromArgMatches27update_from_arg_matches_muts2_0Bb_
FN:1074,_RNCNvXsH_NtNtCsNhz5SapXcJ_8hayabusa10detections7configsNtB7_12SearchOptionNtNtCsgalAmTtUVqh_12clap_builder6derive14FromArgMatches27update_from_arg_matches_muts3_0Bb_
FN:1086,_RNCNvXsH_NtNtCsNhz5SapXcJ_8hayabusa10detections7configsNtB7_12SearchOptionNtNtCsgalAmTtUVqh_12clap_builder6derive14FromArgMatches27update_from_arg_matches_muts4_0Bb_
FN:1090,_RNCNvXsH_NtNtCsNhz5SapXcJ_8hayabusa10detections7configsNtB7_12SearchOptionNtNtCsgalAmTtUVqh_12clap_builder6derive14FromArgMatches27update_from_arg_matches_muts5_0Bb_
FN:1094,_RNCNvXsH_NtNtCsNhz5SapXcJ_8hayabusa10detections7configsNtB7_12SearchOptionNtNtCsgalAmTtUVqh_12clap_builder6derive14FromArgMatches27update_from_arg_matches_muts6_0Bb_
FN:1098,_RNCNvXsH_NtNtCsNhz5SapXcJ_8hayabusa10detections7configsNtB7_12SearchOptionNtNtCsgalAmTtUVqh_12clap_builder6derive14FromArgMatches27update_from_arg_matches_muts7_0Bb_
FN:1102,_RNCNvXsH_NtNtCsNhz5SapXcJ_8hayabusa10detections7configsNtB7_12SearchOptionNtNtCsgalAmTtUVqh_12clap_builder6derive14FromArgMatches27update_from_arg_matches_muts8_0Bb_
FN:1106,_RNCNvXsH_NtNtCsNhz5SapXcJ_8hayabusa10detections7configsNtB7_12SearchOptionNtNtCsgalAmTtUVqh_12clap_builder6derive14FromArgMatches27update_from_arg_matches_muts9_0Bb_
FN:1110,_RNCNvXsH_NtNtCsNhz5SapXcJ_8hayabusa10detections7configsNtB7_12SearchOptionNtNtCsgalAmTtUVqh_12clap_builder6derive14FromArgMatches27update_from_arg_matches_mutsa_0Bb_
FN:1114,_RNCNvXsH_NtNtCsNhz5SapXcJ_8hayabusa10detections7configsNtB7_12SearchOptionNtNtCsgalAmTtUVqh_12clap_builder6derive14FromArgMatches27update_from_arg_matches_mutsb_0Bb_
FN:1118,_RNCNvXsH_NtNtCsNhz5SapXcJ_8hayabusa10detections7configsNtB7_12SearchOptionNtNtCsgalAmTtUVqh_12clap_builder6derive14FromArgMatches27update_from_arg_matches_mutsc_0Bb_
FN:1122,_RNCNvXsH_NtNtCsNhz5SapXcJ_8hayabusa10detections7configsNtB7_12SearchOptionNtNtCsgalAmTtUVqh_12clap_builder6derive14FromArgMatches27update_from_arg_matches_mutsd_0Bb_
FN:1126,_RNCNvXsH_NtNtCsNhz5SapXcJ_8hayabusa10detections7configsNtB7_12SearchOptionNtNtCsgalAmTtUVqh_12clap_builder6derive14FromArgMatches27update_from_arg_matches_mutse_0Bb_
FN:1130,_RNCNvXsH_NtNtCsNhz5SapXcJ_8hayabusa10detections7configsNtB7_12SearchOptionNtNtCsgalAmTtUVqh_12clap_builder6derive14FromArgMatches27update_from_arg_matches_mutsf_0Bb_
FN:1134,_RNCNvXsH_NtNtCsNhz5SapXcJ_8hayabusa10detections7configsNtB7_12SearchOptionNtNtCsgalAmTtUVqh_12clap_builder6derive14FromArgMatches27update_from_arg_matches_mutsg_0Bb_
FN:1153,_RNCNvXsL_NtNtCsNhz5SapXcJ_8hayabusa10detections7configsNtB7_12UpdateOptionNtNtCsgalAmTtUVqh_12clap_builder6derive14FromArgMatches20from_arg_matches_mut0Bb_
FN:1153,_RNCNvXsL_NtNtCsNhz5SapXcJ_8hayabusa10detections7configsNtB7_12UpdateOptionNtNtCsgalAmTtUVqh_12clap_builder6derive14FromArgMatches27update_from_arg_matches_mut0Bb_
FN:1171,_RNCNvXsP_NtNtCsNhz5SapXcJ_8hayabusa10detections7configsNtB7_17LevelTuningOptionNtNtCsgalAmTtUVqh_12clap_builder6derive14FromArgMatches20from_arg_matches_mut0Bb_
FN:1171,_RNCNvXsP_NtNtCsNhz5SapXcJ_8hayabusa10detections7configsNtB7_17LevelTuningOptionNtNtCsgalAmTtUVqh_12clap_builder6derive14FromArgMatches27update_from_arg_matches_mut0Bb_
FN:1191,_RNCNvXsT_NtNtCsNhz5SapXcJ_8hayabusa10detections7configsNtB7_16EidMetricsOptionNtNtCsgalAmTtUVqh_12clap_builder6derive14FromArgMatches20from_arg_matches_mut0Bb_
FN:1195,_RNCNvXsT_NtNtCsNhz5SapXcJ_8hayabusa10detections7configsNtB7_16EidMetricsOptionNtNtCsgalAmTtUVqh_12clap_builder6derive14FromArgMatches20from_arg_matches_muts_0Bb_
FN:1199,_RNCNvXsT_NtNtCsNhz5SapXcJ_8hayabusa10detections7configsNtB7_16EidMetricsOptionNtNtCsgalAmTtUVqh_12clap_builder6derive14FromArgMatches20from_arg_matches_muts0_0Bb_
FN:1203,_RNCNvXsT_NtNtCsNhz5SapXcJ_8hayabusa10detections7configsNtB7_16EidMetricsOptionNtNtCsgalAmTtUVqh_12clap_builder6derive14FromArgMatches20from_arg_matches_muts1_0Bb_
FN:1207,_RNCNvXsT_NtNtCsNhz5SapXcJ_8hayabusa10detections7configsNtB7_16EidMetricsOptionNtNtCsgalAmTtUVqh_12clap_builder6derive14FromArgMatches20from_arg_matches_muts2_0Bb_
FN:1211,_RNCNvXsT_NtNtCsNhz5SapXcJ_8hayabusa10detections7configsNtB7_16EidMetricsOptionNtNtCsgalAmTtUVqh_12clap_builder6derive14FromArgMatches20from_arg_matches_muts3_0Bb_
FN:1215,_RNCNvXsT_NtNtCsNhz5SapXcJ_8hayabusa10detections7configsNtB7_16EidMetricsOptionNtNtCsgalAmTtUVqh_12clap_builder6derive14FromArgMatches20from_arg_matches_muts4_0Bb_
FN:1219,_RNCNvXsT_NtNtCsNhz5SapXcJ_8hayabusa10detections7configsNtB7_16EidMetricsOptionNtNtCsgalAmTtUVqh_12clap_builder6derive14FromArgMatches20from_arg_matches_muts5_0Bb_
FN:1191,_RNCNvXsT_NtNtCsNhz5SapXcJ_8hayabusa10detections7configsNtB7_16EidMetricsOptionNtNtCsgalAmTtUVqh_12clap_builder6derive14FromArgMatches27update_from_arg_matches_mut0Bb_
FN:1195,_RNCNvXsT_NtNtCsNhz5SapXcJ_8hayabusa10detections7configsNtB7_16EidMetricsOptionNtNtCsgalAmTtUVqh_12clap_builder6derive14FromArgMatches27update_from_arg_matches_muts_0Bb_
FN:1199,_RNCNvXsT_NtNtCsNhz5SapXcJ_8hayabusa10detections7configsNtB7_16EidMetricsOptionNtNtCsgalAmTtUVqh_12clap_builder6derive14FromArgMatches27update_from_arg_matches_muts0_0Bb_
FN:1203,_RNCNvXsT_NtNtCsNhz5SapXcJ_8hayabusa10detections7configsNtB7_16EidMetricsOptionNtNtCsgalAmTtUVqh_12clap_builder6derive14FromArgMatches27update_from_arg_matches_muts1_0Bb_
FN:1207,_RNCNvXsT_NtNtCsNhz5SapXcJ_8hayabusa10detections7configsNtB7_16EidMetricsOptionNtNtCsgalAmTtUVqh_12clap_builder6derive14FromArgMatches27update_from_arg_matches_muts2_0Bb_
FN:1211,_RNCNvXsT_NtNtCsNhz5SapXcJ_8hayabusa10detections7configsNtB7_16EidMetricsOptionNtNtCsgalAmTtUVqh_12clap_builder6derive14FromArgMatches27update_from_arg_matches_muts3_0Bb_
FN:1215,_RNCNvXsT_NtNtCsNhz5SapXcJ_8hayabusa10detections7configsNtB7_16EidMetricsOptionNtNtCsgalAmTtUVqh_12clap_builder6derive14FromArgMatches27update_from_arg_matches_muts4_0Bb_
FN:1219,_RNCNvXsT_NtNtCsNhz5SapXcJ_8hayabusa10detections7configsNtB7_16EidMetricsOptionNtNtCsgalAmTtUVqh_12clap_builder6derive14FromArgMatches27update_from_arg_matches_muts5_0Bb_
FN:1238,_RNCNvXsX_NtNtCsNhz5SapXcJ_8hayabusa10detections7configsNtB7_18PivotKeywordOptionNtNtCsgalAmTtUVqh_12clap_builder6derive14FromArgMatches20from_arg_matches_mut0Bb_
FN:1242,_RNCNvXsX_NtNtCsNhz5SapXcJ_8hayabusa10detections7configsNtB7_18PivotKeywordOptionNtNtCsgalAmTtUVqh_12clap_builder6derive14FromArgMatches20from_arg_matches_muts_0Bb_
FN:1246,_RNCNvXsX_NtNtCsNhz5SapXcJ_8hayabusa10detections7configsNtB7_18PivotKeywordOptionNtNtCsgalAmTtUVqh_12clap_builder6derive14FromArgMatches20from_arg_matches_muts0_0Bb_
FN:1250,_RNCNvXsX_NtNtCsNhz5SapXcJ_8hayabusa10detections7configsNtB7_18PivotKeywordOptionNtNtCsgalAmTtUVqh_12clap_builder6derive14FromArgMatches20from_arg_matches_muts1_0Bb_
FN:1254,_RNCNvXsX_NtNtCsNhz5SapXcJ_8hayabusa10detections7configsNtB7_18PivotKeywordOptionNtNtCsgalAmTtUVqh_12clap_builder6derive14FromArgMatches20from_arg_matches_muts2_0Bb_
FN:1258,_RNCNvXsX_NtNtCsNhz5SapXcJ_8hayabusa10detections7configsNtB7_18PivotKeywordOptionNtNtCsgalAmTtUVqh_12clap_builder6derive14FromArgMatches20from_arg_matches_muts3_0Bb_
FN:1272,_RNCNvXsX_NtNtCsNhz5SapXcJ_8hayabusa10detections7configsNtB7_18PivotKeywordOptionNtNtCsgalAmTtUVqh_12clap_builder6derive14FromArgMatches20from_arg_matches_muts4_0Bb_
FN:1288,_RNCNvXsX_NtNtCsNhz5SapXcJ_8hayabusa10detections7configsNtB7_18PivotKeywordOptionNtNtCsgalAmTtUVqh_12clap_builder6derive14FromArgMatches20from_arg_matches_muts5_0Bb_
FN:1300,_RNCNvXsX_NtNtCsNhz5SapXcJ_8hayabusa10detections7configsNtB7_18PivotKeywordOptionNtNtCsgalAmTtUVqh_12clap_builder6derive14FromArgMatches20from_arg_matches_muts6_0Bb_
FN:1304,_RNCNvXsX_NtNtCsNhz5SapXcJ_8hayabusa10detections7configsNtB7_18PivotKeywordOptionNtNtCsgalAmTtUVqh_12clap_builder6derive14FromArgMatches20from_arg_matches_muts7_0Bb_
FN:1308,_RNCNvXsX_NtNtCsNhz5SapXcJ_8hayabusa10detections7configsNtB7_18PivotKeywordOptionNtNtCsgalAmTtUVqh_12clap_builder6derive14FromArgMatches20from_arg_matches_muts8_0Bb_
FN:1315,_RNCNvXsX_NtNtCsNhz5SapXcJ_8hayabusa10detections7configsNtB7_18PivotKeywordOptionNtNtCsgalAmTtUVqh_12clap_builder6derive14FromArgMatches20from_arg_matches_muts9_0Bb_
FN:1319,_RNCNvXsX_NtNtCsNhz5SapXcJ_8hayabusa10detections7configsNtB7_18PivotKeywordOptionNtNtCsgalAmTtUVqh_12clap_builder6derive14FromArgMatches20from_arg_matches_mutsa_0Bb_
FN:1238,_RNCNvXsX_NtNtCsNhz5SapXcJ_8hayabusa10detections7configsNtB7_18PivotKeywordOptionNtNtCsgalAmTtUVqh_12clap_builder6derive14FromArgMatches27update_from_arg_matches_mut0Bb_
FN:1242,_RNCNvXsX_NtNtCsNhz5SapXcJ_8hayabusa10detections7configsNtB7_18PivotKeywordOptionNtNtCsgalAmTtUVqh_12clap_builder6derive14FromArgMatches27update_from_arg_matches_muts_0Bb_
FN:1246,_RNCNvXsX_NtNtCsNhz5SapXcJ_8hayabusa10detections7configsNtB7_18PivotKeywordOptionNtNtCsgalAmTtUVqh_12clap_builder6derive14FromArgMatches27update_from_arg_matches_muts0_0Bb_
FN:1250,_RNCNvXsX_NtNtCsNhz5SapXcJ_8hayabusa10detections7configsNtB7_18PivotKeywordOptionNtNtCsgalAmTtUVqh_12clap_builder6derive14FromArgMatches27update_from_arg_matches_muts1_0Bb_
FN:1254,_RNCNvXsX_NtNtCsNhz5SapXcJ_8hayabusa10detections7configsNtB7_18PivotKeywordOptionNtNtCsgalAmTtUVqh_12clap_builder6derive14FromArgMatches27update_from_arg_matches_muts2_0Bb_
FN:1258,_RNCNvXsX_NtNtCsNhz5SapXcJ_8hayabusa10detections7configsNtB7_18PivotKeywordOptionNtNtCsgalAmTtUVqh_12clap_builder6derive14FromArgMatches27update_from_arg_matches_muts3_0Bb_
FN:1272,_RNCNvXsX_NtNtCsNhz5SapXcJ_8hayabusa10detections7configsNtB7_18PivotKeywordOptionNtNtCsgalAmTtUVqh_12clap_builder6derive14FromArgMatches27update_from_arg_matches_muts4_0Bb_
FN:1288,_RNCNvXsX_NtNtCsNhz5SapXcJ_8hayabusa10detections7configsNtB7_18PivotKeywordOptionNtNtCsgalAmTtUVqh_12clap_builder6derive14FromArgMatches27update_from_arg_matches_muts5_0Bb_
FN:1300,_RNCNvXsX_NtNtCsNhz5SapXcJ_8hayabusa10detections7configsNtB7_18PivotKeywordOptionNtNtCsgalAmTtUVqh_12clap_builder6derive14FromArgMatches27update_from_arg_matches_muts6_0Bb_
FN:1304,_RNCNvXsX_NtNtCsNhz5SapXcJ_8hayabusa10detections7configsNtB7_18PivotKeywordOptionNtNtCsgalAmTtUVqh_12clap_builder6derive14FromArgMatches27update_from_arg_matches_muts7_0Bb_
FN:1308,_RNCNvXsX_NtNtCsNhz5SapXcJ_8hayabusa10detections7configsNtB7_18PivotKeywordOptionNtNtCsgalAmTtUVqh_12clap_builder6derive14FromArgMatches27update_from_arg_matches_muts8_0Bb_
FN:1315,_RNCNvXsX_NtNtCsNhz5SapXcJ_8hayabusa10detections7configsNtB7_18PivotKeywordOptionNtNtCsgalAmTtUVqh_12clap_builder6derive14FromArgMatches27update_from_arg_matches_muts9_0Bb_
FN:1319,_RNCNvXsX_NtNtCsNhz5SapXcJ_8hayabusa10detections7configsNtB7_18PivotKeywordOptionNtNtCsgalAmTtUVqh_12clap_builder6derive14FromArgMatches27update_from_arg_matches_mutsa_0Bb_
FN:1339,_RNCNvXs11_NtNtCsNhz5SapXcJ_8hayabusa10detections7configsNtB8_18LogonSummaryOptionNtNtCsgalAmTtUVqh_12clap_builder6derive14FromArgMatches20from_arg_matches_mut0Bc_
FN:1343,_RNCNvXs11_NtNtCsNhz5SapXcJ_8hayabusa10detections7configsNtB8_18LogonSummaryOptionNtNtCsgalAmTtUVqh_12clap_builder6derive14FromArgMatches20from_arg_matches_muts_0Bc_
FN:1347,_RNCNvXs11_NtNtCsNhz5SapXcJ_8hayabusa10detections7configsNtB8_18LogonSummaryOptionNtNtCsgalAmTtUVqh_12clap_builder6derive14FromArgMatches20from_arg_matches_muts0_0Bc_
FN:1351,_RNCNvXs11_NtNtCsNhz5SapXcJ_8hayabusa10detections7configsNtB8_18LogonSummaryOptionNtNtCsgalAmTtUVqh_12clap_builder6derive14FromArgMatches20from_arg_matches_muts1_0Bc_
FN:1355,_RNCNvXs11_NtNtCsNhz5SapXcJ_8hayabusa10detections7configsNtB8_18LogonSummaryOptionNtNtCsgalAmTtUVqh_12clap_builder6derive14FromArgMatches20from_arg_matches_muts2_0Bc_
FN:1359,_RNCNvXs11_NtNtCsNhz5SapXcJ_8hayabusa10detections7configsNtB8_18LogonSummaryOptionNtNtCsgalAmTtUVqh_12clap_builder6derive14FromArgMatches20from_arg_matches_muts3_0Bc_
FN:1363,_RNCNvXs11_NtNtCsNhz5SapXcJ_8hayabusa10detections7configsNtB8_18LogonSummaryOptionNtNtCsgalAmTtUVqh_12clap_builder6derive14FromArgMatches20from_arg_matches_muts4_0Bc_
FN:1367,_RNCNvXs11_NtNtCsNhz5SapXcJ_8hayabusa10detections7configsNtB8_18LogonSummaryOptionNtNtCsgalAmTtUVqh_12clap_builder6derive14FromArgMatches20from_arg_matches_muts5_0Bc_
FN:1339,_RNCNvXs11_NtNtCsNhz5SapXcJ_8hayabusa10detections7configsNtB8_18LogonSummaryOptionNtNtCsgalAmTtUVqh_12clap_builder6derive14FromArgMatches27update_from_arg_matches_mut0Bc_
FN:1343,_RNCNvXs11_NtNtCsNhz5SapXcJ_8hayabusa10detections7configsNtB8_18LogonSummaryOptionNtNtCsgalAmTtUVqh_12clap_builder6derive14FromArgMatches27update_from_arg_matches_muts_0Bc_
FN:1347,_RNCNvXs11_NtNtCsNhz5SapXcJ_8hayabusa10detections7configsNtB8_18LogonSummaryOptionNtNtCsgalAmTtUVqh_12clap_builder6derive14FromArgMatches27update_from_arg_matches_muts0_0Bc_
FN:1351,_RNCNvXs11_NtNtCsNhz5SapXcJ_8hayabusa10detections7configsNtB8_18LogonSummaryOptionNtNtCsgalAmTtUVqh_12clap_builder6derive14FromArgMatches27update_from_arg_matches_muts1_0Bc_
FN:1355,_RNCNvXs11_NtNtCsNhz5SapXcJ_8hayabusa10detections7configsNtB8_18LogonSummaryOptionNtNtCsgalAmTtUVqh_12clap_builder6derive14FromArgMatches27update_from_arg_matches_muts2_0Bc_
FN:1359,_RNCNvXs11_NtNtCsNhz5SapXcJ_8hayabusa10detections7configsNtB8_18LogonSummaryOptionNtNtCsgalAmTtUVqh_12clap_builder6derive14FromArgMatches27update_from_arg_matches_muts3_0Bc_
FN:1363,_RNCNvXs11_NtNtCsNhz5SapXcJ_8hayabusa10detections7configsNtB8_18LogonSummaryOptionNtNtCsgalAmTtUVqh_12clap_builder6derive14FromArgMatches27update_from_arg_matches_muts4_0Bc_
FN:1367,_RNCNvXs11_NtNtCsNhz5SapXcJ_8hayabusa10detections7configsNtB8_18LogonSummaryOptionNtNtCsgalAmTtUVqh_12clap_builder6derive14FromArgMatches27update_from_arg_matches_muts5_0Bc_
FN:1394,_RNCNvXs15_NtNtCsNhz5SapXcJ_8hayabusa10detections7configsNtB8_12OutputOptionNtNtCsgalAmTtUVqh_12clap_builder6derive14FromArgMatches20from_arg_matches_mut0Bc_
FN:1398,_RNCNvXs15_NtNtCsNhz5SapXcJ_8hayabusa10detections7configsNtB8_12OutputOptionNtNtCsgalAmTtUVqh_12clap_builder6derive14FromArgMatches20from_arg_matches_muts_0Bc_
FN:1402,_RNCNvXs15_NtNtCsNhz5SapXcJ_8hayabusa10detections7configsNtB8_12OutputOptionNtNtCsgalAmTtUVqh_12clap_builder6derive14FromArgMatches20from_arg_matches_muts0_0Bc_
FN:1406,_RNCNvXs15_NtNtCsNhz5SapXcJ_8hayabusa10detections7configsNtB8_12OutputOptionNtNtCsgalAmTtUVqh_12clap_builder6derive14FromArgMatches20from_arg_matches_muts1_0Bc_
FN:1410,_RNCNvXs15_NtNtCsNhz5SapXcJ_8hayabusa10detections7configsNtB8_12OutputOptionNtNtCsgalAmTtUVqh_12clap_builder6derive14FromArgMatches20from_arg_matches_muts2_0Bc_
FN:1414,_RNCNvXs15_NtNtCsNhz5SapXcJ_8hayabusa10detections7configsNtB8_12OutputOptionNtNtCsgalAmTtUVqh_12clap_builder6derive14FromArgMatches20from_arg_matches_muts3_0Bc_
FN:1418,_RNCNvXs15_NtNtCsNhz5SapXcJ_8hayabusa10detections7configsNtB8_12OutputOptionNtNtCsgalAmTtUVqh_12clap_builder6derive14FromArgMatches20from_arg_matches_muts4_0Bc_
FN:1431,_RNCNvXs15_NtNtCsNhz5SapXcJ_8hayabusa10detections7configsNtB8_12OutputOptionNtNtCsgalAmTtUVqh_12clap_builder6derive14FromArgMatches20from_arg_matches_muts5_0Bc_
FN:1447,_RNCNvXs15_NtNtCsNhz5SapXcJ_8hayabusa10detections7configsNtB8_12OutputOptionNtNtCsgalAmTtUVqh_12clap_builder6derive14FromArgMatches20from_arg_matches_muts6_0Bc_
FN:1459,_RNCNvXs15_NtNtCsNhz5SapXcJ_8hayabusa10detections7configsNtB8_12OutputOptionNtNtCsgalAmTtUVqh_12clap_builder6derive14FromArgMatches20from_arg_matches_muts7_0Bc_
FN:1463,_RNCNvXs15_NtNtCsNhz5SapXcJ_8hayabusa10detections7configsNtB8_12OutputOptionNtNtCsgalAmTtUVqh_12clap_builder6derive14FromArgMatches20from_arg_matches_muts8_0Bc_
FN:1467,_RNCNvXs15_NtNtCsNhz5SapXcJ_8hayabusa10detections7configsNtB8_12OutputOptionNtNtCsgalAmTtUVqh_12clap_builder6derive14FromArgMatches20from_arg_matches_muts9_0Bc_
FN:1471,_RNCNvXs15_NtNtCsNhz5SapXcJ_8hayabusa10detections7configsNtB8_12OutputOptionNtNtCsgalAmTtUVqh_12clap_builder6derive14FromArgMatches20from_arg_matches_mutsa_0Bc_
FN:1475,_RNCNvXs15_NtNtCsNhz5SapXcJ_8hayabusa10detections7configsNtB8_12OutputOptionNtNtCsgalAmTtUVqh_12clap_builder6derive14FromArgMatches20from_arg_matches_mutsb_0Bc_
FN:1482,_RNCNvXs15_NtNtCsNhz5SapXcJ_8hayabusa10detections7configsNtB8_12OutputOptionNtNtCsgalAmTtUVqh_12clap_builder6derive14FromArgMatches20from_arg_matches_mutsc_0Bc_
FN:1486,_RNCNvXs15_NtNtCsNhz5SapXcJ_8hayabusa10detections7configsNtB8_12OutputOptionNtNtCsgalAmTtUVqh_12clap_builder6derive14FromArgMatches20from_arg_matches_mutsd_0Bc_
FN:1490,_RNCNvXs15_NtNtCsNhz5SapXcJ_8hayabusa10detections7configsNtB8_12OutputOptionNtNtCsgalAmTtUVqh_12clap_builder6derive14FromArgMatches20from_arg_matches_mutse_0Bc_
FN:1494,_RNCNvXs15_NtNtCsNhz5SapXcJ_8hayabusa10detections7configsNtB8_12OutputOptionNtNtCsgalAmTtUVqh_12clap_builder6derive14FromArgMatches20from_arg_matches_mutsf_0Bc_
FN:1498,_RNCNvXs15_NtNtCsNhz5SapXcJ_8hayabusa10detections7configsNtB8_12OutputOptionNtNtCsgalAmTtUVqh_12clap_builder6derive14FromArgMatches20from_arg_matches_mutsg_0Bc_
FN:1502,_RNCNvXs15_NtNtCsNhz5SapXcJ_8hayabusa10detections7configsNtB8_12OutputOptionNtNtCsgalAmTtUVqh_12clap_builder6derive14FromArgMatches20from_arg_matches_mutsh_0Bc_
FN:1506,_RNCNvXs15_NtNtCsNhz5SapXcJ_8hayabusa10detections7configsNtB8_12OutputOptionNtNtCsgalAmTtUVqh_12clap_builder6derive14FromArgMatches20from_arg_matches_mutsi_0Bc_
FN:1510,_RNCNvXs15_NtNtCsNhz5SapXcJ_8hayabusa10detections7configsNtB8_12OutputOptionNtNtCsgalAmTtUVqh_12clap_builder6derive14FromArgMatches20from_arg_matches_mutsj_0Bc_
FN:1523,_RNCNvXs15_NtNtCsNhz5SapXcJ_8hayabusa10detections7configsNtB8_12OutputOptionNtNtCsgalAmTtUVqh_12clap_builder6derive14FromArgMatches20from_arg_matches_mutsk_0Bc_
FN:1531,_RNCNvXs15_NtNtCsNhz5SapXcJ_8hayabusa10detections7configsNtB8_12OutputOptionNtNtCsgalAmTtUVqh_12clap_builder6derive14FromArgMatches20from_arg_matches_mutsl_0Bc_
FN:1535,_RNCNvXs15_NtNtCsNhz5SapXcJ_8hayabusa10detections7configsNtB8_12OutputOptionNtNtCsgalAmTtUVqh_12clap_builder6derive14FromArgMatches20from_arg_matches_mutsm_0Bc_
FN:1539,_RNCNvXs15_NtNtCsNhz5SapXcJ_8hayabusa10detections7configsNtB8_12OutputOptionNtNtCsgalAmTtUVqh_12clap_builder6derive14FromArgMatches20from_arg_matches_mutsn_0Bc_
FN:1543,_RNCNvXs15_NtNtCsNhz5SapXcJ_8hayabusa10detections7configsNtB8_12OutputOptionNtNtCsgalAmTtUVqh_12clap_builder6derive14FromArgMatches20from_arg_matches_mutso_0Bc_
FN:1553,_RNCNvXs15_NtNtCsNhz5SapXcJ_8hayabusa10detections7configsNtB8_12OutputOptionNtNtCsgalAmTtUVqh_12clap_builder6derive14FromArgMatches20from_arg_matches_mutsp_0Bc_
FN:1557,_RNCNvXs15_NtNtCsNhz5SapXcJ_8hayabusa10detections7configsNtB8_12OutputOptionNtNtCsgalAmTtUVqh_12clap_builder6derive14FromArgMatches20from_arg_matches_mutsq_0Bc_
FN:1561,_RNCNvXs15_NtNtCsNhz5SapXcJ_8hayabusa10detections7configsNtB8_12OutputOptionNtNtCsgalAmTtUVqh_12clap_builder6derive14FromArgMatches20from_arg_matches_mutsr_0Bc_
FN:1565,_RNCNvXs15_NtNtCsNhz5SapXcJ_8hayabusa10detections7configsNtB8_12OutputOptionNtNtCsgalAmTtUVqh_12clap_builder6derive14FromArgMatches20from_arg_matches_mutss_0Bc_
FN:1394,_RNCNvXs15_NtNtCsNhz5SapXcJ_8hayabusa10detections7configsNtB8_12OutputOptionNtNtCsgalAmTtUVqh_12clap_builder6derive14FromArgMatches27update_from_arg_matches_mut0Bc_
FN:1398,_RNCNvXs15_NtNtCsNhz5SapXcJ_8hayabusa10detections7configsNtB8_12OutputOptionNtNtCsgalAmTtUVqh_12clap_builder6derive14FromArgMatches27update_from_arg_matches_muts_0Bc_
FN:1402,_RNCNvXs15_NtNtCsNhz5SapXcJ_8hayabusa10detections7configsNtB8_12OutputOptionNtNtCsgalAmTtUVqh_12clap_builder6derive14FromArgMatches27update_from_arg_matches_muts0_0Bc_
FN:1406,_RNCNvXs15_NtNtCsNhz5SapXcJ_8hayabusa10detections7configsNtB8_12OutputOptionNtNtCsgalAmTtUVqh_12clap_builder6derive14FromArgMatches27update_from_arg_matches_muts1_0Bc_
FN:1410,_RNCNvXs15_NtNtCsNhz5SapXcJ_8hayabusa10detections7configsNtB8_12OutputOptionNtNtCsgalAmTtUVqh_12clap_builder6derive14FromArgMatches27update_from_arg_matches_muts2_0Bc_
FN:1414,_RNCNvXs15_NtNtCsNhz5SapXcJ_8hayabusa10detections7configsNtB8_12OutputOptionNtNtCsgalAmTtUVqh_12clap_builder6derive14FromArgMatches27update_from_arg_matches_muts3_0Bc_
FN:1418,_RNCNvXs15_NtNtCsNhz5SapXcJ_8hayabusa10detections7configsNtB8_12OutputOptionNtNtCsgalAmTtUVqh_12clap_builder6derive14FromArgMatches27update_from_arg_matches_muts4_0Bc_
FN:1431,_RNCNvXs15_NtNtCsNhz5SapXcJ_8hayabusa10detections7configsNtB8_12OutputOptionNtNtCsgalAmTtUVqh_12clap_builder6derive14FromArgMatches27update_from_arg_matches_muts5_0Bc_
FN:1447,_RNCNvXs15_NtNtCsNhz5SapXcJ_8hayabusa10detections7configsNtB8_12OutputOptionNtNtCsgalAmTtUVqh_12clap_builder6derive14FromArgMatches27update_from_arg_matches_muts6_0Bc_
FN:1459,_RNCNvXs15_NtNtCsNhz5SapXcJ_8hayabusa10detections7configsNtB8_12OutputOptionNtNtCsgalAmTtUVqh_12clap_builder6derive14FromArgMatches27update_from_arg_matches_muts7_0Bc_
FN:1463,_RNCNvXs15_NtNtCsNhz5SapXcJ_8hayabusa10detections7configsNtB8_12OutputOptionNtNtCsgalAmTtUVqh_12clap_builder6derive14FromArgMatches27update_from_arg_matches_muts8_0Bc_
FN:1467,_RNCNvXs15_NtNtCsNhz5SapXcJ_8hayabusa10detections7configsNtB8_12OutputOptionNtNtCsgalAmTtUVqh_12clap_builder6derive14FromArgMatches27update_from_arg_matches_muts9_0Bc_
FN:1471,_RNCNvXs15_NtNtCsNhz5SapXcJ_8hayabusa10detections7configsNtB8_12OutputOptionNtNtCsgalAmTtUVqh_12clap_builder6derive14FromArgMatches27update_from_arg_matches_mutsa_0Bc_
FN:1475,_RNCNvXs15_NtNtCsNhz5SapXcJ_8hayabusa10detections7configsNtB8_12OutputOptionNtNtCsgalAmTtUVqh_12clap_builder6derive14FromArgMatches27update_from_arg_matches_mutsb_0Bc_
FN:1482,_RNCNvXs15_NtNtCsNhz5SapXcJ_8hayabusa10detections7configsNtB8_12OutputOptionNtNtCsgalAmTtUVqh_12clap_builder6derive14FromArgMatches27update_from_arg_matches_mutsc_0Bc_
FN:1486,_RNCNvXs15_NtNtCsNhz5SapXcJ_8hayabusa10detections7configsNtB8_12OutputOptionNtNtCsgalAmTtUVqh_12clap_builder6derive14FromArgMatches27update_from_arg_matches_mutsd_0Bc_
FN:1490,_RNCNvXs15_NtNtCsNhz5SapXcJ_8hayabusa10detections7configsNtB8_12OutputOptionNtNtCsgalAmTtUVqh_12clap_builder6derive14FromArgMatches27update_from_arg_matches_mutse_0Bc_
FN:1494,_RNCNvXs15_NtNtCsNhz5SapXcJ_8hayabusa10detections7configsNtB8_12OutputOptionNtNtCsgalAmTtUVqh_12clap_builder6derive14FromArgMatches27update_from_arg_matches_mutsf_0Bc_
FN:1498,_RNCNvXs15_NtNtCsNhz5SapXcJ_8hayabusa10detections7configsNtB8_12OutputOptionNtNtCsgalAmTtUVqh_12clap_builder6derive14FromArgMatches27update_from_arg_matches_mutsg_0Bc_
FN:1502,_RNCNvXs15_NtNtCsNhz5SapXcJ_8hayabusa10detections7configsNtB8_12OutputOptionNtNtCsgalAmTtUVqh_12clap_builder6derive14FromArgMatches27update_from_arg_matches_mutsh_0Bc_
FN:1506,_RNCNvXs15_NtNtCsNhz5SapXcJ_8hayabusa10detections7configsNtB8_12OutputOptionNtNtCsgalAmTtUVqh_12clap_builder6derive14FromArgMatches27update_from_arg_matches_mutsi_0Bc_
FN:1510,_RNCNvXs15_NtNtCsNhz5SapXcJ_8hayabusa10detections7configsNtB8_12OutputOptionNtNtCsgalAmTtUVqh_12clap_builder6derive14FromArgMatches27update_from_arg_matches_mutsj_0Bc_
FN:1523,_RNCNvXs15_NtNtCsNhz5SapXcJ_8hayabusa10detections7configsNtB8_12OutputOptionNtNtCsgalAmTtUVqh_12clap_builder6derive14FromArgMatches27update_from_arg_matches_mutsk_0Bc_
FN:1531,_RNCNvXs15_NtNtCsNhz5SapXcJ_8hayabusa10detections7configsNtB8_12OutputOptionNtNtCsgalAmTtUVqh_12clap_builder6derive14FromArgMatches27update_from_arg_matches_mutsl_0Bc_
FN:1535,_RNCNvXs15_NtNtCsNhz5SapXcJ_8hayabusa10detections7configsNtB8_12OutputOptionNtNtCsgalAmTtUVqh_12clap_builder6derive14FromArgMatches27update_from_arg_matches_mutsm_0Bc_
FN:1539,_RNCNvXs15_NtNtCsNhz5SapXcJ_8hayabusa10detections7configsNtB8_12OutputOptionNtNtCsgalAmTtUVqh_12clap_builder6derive14FromArgMatches27update_from_arg_matches_mutsn_0Bc_
FN:1543,_RNCNvXs15_NtNtCsNhz5SapXcJ_8hayabusa10detections7configsNtB8_12OutputOptionNtNtCsgalAmTtUVqh_12clap_builder6derive14FromArgMatches27update_from_arg_matches_mutso_0Bc_
FN:1553,_RNCNvXs15_NtNtCsNhz5SapXcJ_8hayabusa10detections7configsNtB8_12OutputOptionNtNtCsgalAmTtUVqh_12clap_builder6derive14FromArgMatches27update_from_arg_matches_mutsp_0Bc_
FN:1557,_RNCNvXs15_NtNtCsNhz5SapXcJ_8hayabusa10detections7configsNtB8_12OutputOptionNtNtCsgalAmTtUVqh_12clap_builder6derive14FromArgMatches27update_from_arg_matches_mutsq_0Bc_
FN:1561,_RNCNvXs15_NtNtCsNhz5SapXcJ_8hayabusa10detections7configsNtB8_12OutputOptionNtNtCsgalAmTtUVqh_12clap_builder6derive14FromArgMatches27update_from_arg_matches_mutsr_0Bc_
FN:1565,_RNCNvXs15_NtNtCsNhz5SapXcJ_8hayabusa10detections7configsNtB8_12OutputOptionNtNtCsgalAmTtUVqh_12clap_builder6derive14FromArgMatches27update_from_arg_matches_mutss_0Bc_
FN:1572,_RNCNvXs1a_NtNtCsNhz5SapXcJ_8hayabusa10detections7configsNtB8_13CommonOptionsNtNtCsgalAmTtUVqh_12clap_builder6derive14FromArgMatches20from_arg_matches_mut0Bc_
FN:1576,_RNCNvXs1a_NtNtCsNhz5SapXcJ_8hayabusa10detections7configsNtB8_13CommonOptionsNtNtCsgalAmTtUVqh_12clap_builder6derive14FromArgMatches20from_arg_matches_muts_0Bc_
FN:1572,_RNCNvXs1a_NtNtCsNhz5SapXcJ_8hayabusa10detections7configsNtB8_13CommonOptionsNtNtCsgalAmTtUVqh_12clap_builder6derive14FromArgMatches27update_from_arg_matches_mut0Bc_
FN:1576,_RNCNvXs1a_NtNtCsNhz5SapXcJ_8hayabusa10detections7configsNtB8_13CommonOptionsNtNtCsgalAmTtUVqh_12clap_builder6derive14FromArgMatches27update_from_arg_matches_muts_0Bc_
FN:1596,_RNCNvXs1e_NtNtCsNhz5SapXcJ_8hayabusa10detections7configsNtB8_11InputOptionNtNtCsgalAmTtUVqh_12clap_builder6derive14FromArgMatches20from_arg_matches_mut0Bc_
FN:1600,_RNCNvXs1e_NtNtCsNhz5SapXcJ_8hayabusa10detections7configsNtB8_11InputOptionNtNtCsgalAmTtUVqh_12clap_builder6derive14FromArgMatches20from_arg_matches_muts_0Bc_
FN:1596,_RNCNvXs1e_NtNtCsNhz5SapXcJ_8hayabusa10detections7configsNtB8_11InputOptionNtNtCsgalAmTtUVqh_12clap_builder6derive14FromArgMatches27update_from_arg_matches_mut0Bc_
FN:1600,_RNCNvXs1e_NtNtCsNhz5SapXcJ_8hayabusa10detections7configsNtB8_11InputOptionNtNtCsgalAmTtUVqh_12clap_builder6derive14FromArgMatches27update_from_arg_matches_muts_0Bc_
FN:1614,_RNCNvXs1i_NtNtCsNhz5SapXcJ_8hayabusa10detections7configsNtB8_15CsvOutputOptionNtNtCsgalAmTtUVqh_12clap_builder6derive14FromArgMatches20from_arg_matches_mut0Bc_
FN:1614,_RNCNvXs1i_NtNtCsNhz5SapXcJ_8hayabusa10detections7configsNtB8_15CsvOutputOptionNtNtCsgalAmTtUVqh_12clap_builder6derive14FromArgMatches27update_from_arg_matches_mut0Bc_
FN:1643,_RNCNvXs1m_NtNtCsNhz5SapXcJ_8hayabusa10detections7configsNtB8_16JSONOutputOptionNtNtCsgalAmTtUVqh_12clap_builder6derive14FromArgMatches20from_arg_matches_mut0Bc_
FN:1643,_RNCNvXs1m_NtNtCsNhz5SapXcJ_8hayabusa10detections7configsNtB8_16JSONOutputOptionNtNtCsgalAmTtUVqh_12clap_builder6derive14FromArgMatches27update_from_arg_matches_mut0Bc_
FN:1670,_RNCNvXs1q_NtNtCsNhz5SapXcJ_8hayabusa10detections7configsNtB8_21ComputerMetricsOptionNtNtCsgalAmTtUVqh_12clap_builder6derive14FromArgMatches20from_arg_matches_mut0Bc_
FN:1674,_RNCNvXs1q_NtNtCsNhz5SapXcJ_8hayabusa10detections7configsNtB8_21ComputerMetricsOptionNtNtCsgalAmTtUVqh_12clap_builder6derive14FromArgMatches20from_arg_matches_muts_0Bc_
FN:1688,_RNCNvXs1q_NtNtCsNhz5SapXcJ_8hayabusa10detections7configsNtB8_21ComputerMetricsOptionNtNtCsgalAmTtUVqh_12clap_builder6derive14FromArgMatches20from_arg_matches_muts0_0Bc_
FN:1700,_RNCNvXs1q_NtNtCsNhz5SapXcJ_8hayabusa10detections7configsNtB8_21ComputerMetricsOptionNtNtCsgalAmTtUVqh_12clap_builder6derive14FromArgMatches20from_arg_matches_muts1_0Bc_
FN:1704,_RNCNvXs1q_NtNtCsNhz5SapXcJ_8hayabusa10detections7configsNtB8_21ComputerMetricsOptionNtNtCsgalAmTtUVqh_12clap_builder6derive14FromArgMatches20from_arg_matches_muts2_0Bc_
FN:1708,_RNCNvXs1q_NtNtCsNhz5SapXcJ_8hayabusa10detections7configsNtB8_21ComputerMetricsOptionNtNtCsgalAmTtUVqh_12clap_builder6derive14FromArgMatches20from_arg_matches_muts3_0Bc_
FN:1670,_RNCNvXs1q_NtNtCsNhz5SapXcJ_8hayabusa10detections7configsNtB8_21ComputerMetricsOptionNtNtCsgalAmTtUVqh_12clap_builder6derive14FromArgMatches27update_from_arg_matches_mut0Bc_
FN:1674,_RNCNvXs1q_NtNtCsNhz5SapXcJ_8hayabusa10detections7configsNtB8_21ComputerMetricsOptionNtNtCsgalAmTtUVqh_12clap_builder6derive14FromArgMatches27update_from_arg_matches_muts_0Bc_
FN:1688,_RNCNvXs1q_NtNtCsNhz5SapXcJ_8hayabusa10detections7configsNtB8_21ComputerMetricsOptionNtNtCsgalAmTtUVqh_12clap_builder6derive14FromArgMatches27update_from_arg_matches_muts0_0Bc_
FN:1700,_RNCNvXs1q_NtNtCsNhz5SapXcJ_8hayabusa10detections7configsNtB8_21ComputerMetricsOptionNtNtCsgalAmTtUVqh_12clap_builder6derive14FromArgMatches27update_from_arg_matches_muts1_0Bc_
FN:1704,_RNCNvXs1q_NtNtCsNhz5SapXcJ_8hayabusa10detections7configsNtB8_21ComputerMetricsOptionNtNtCsgalAmTtUVqh_12clap_builder6derive14FromArgMatches27update_from_arg_matches_muts2_0Bc_
FN:1708,_RNCNvXs1q_NtNtCsNhz5SapXcJ_8hayabusa10detections7configsNtB8_21ComputerMetricsOptionNtNtCsgalAmTtUVqh_12clap_builder6derive14FromArgMatches27update_from_arg_matches_muts3_0Bc_
FN:1724,_RNCNvXs1w_NtNtCsNhz5SapXcJ_8hayabusa10detections7configsNtB8_6ConfigNtNtCsgalAmTtUVqh_12clap_builder6derive14FromArgMatches20from_arg_matches_mut0Bc_
FN:1724,_RNCNvXs1w_NtNtCsNhz5SapXcJ_8hayabusa10detections7configsNtB8_6ConfigNtNtCsgalAmTtUVqh_12clap_builder6derive14FromArgMatches27update_from_arg_matches_mut0Bc_
FN:1728,_RNvMs1_NtNtCsNhz5SapXcJ_8hayabusa10detections7configsNtB5_12ConfigReader3new
FN:2033,_RNvMs4_NtNtCsNhz5SapXcJ_8hayabusa10detections7configsNtB5_15TargetEventTime16is_parse_success
FN:2079,_RNvXs6_NtNtCsNhz5SapXcJ_8hayabusa10detections7configsNtB5_19EventKeyAliasConfigNtNtCshEwRaVhoEM3_4core7default7Default7default
FN:2556,_RNvXs7_NtNtCsNhz5SapXcJ_8hayabusa10detections7configsNtB5_9EventInfoNtNtCshEwRaVhoEM3_4core7default7Default7default
FN:2573,_RNvXs9_NtNtCsNhz5SapXcJ_8hayabusa10detections7configsNtB5_15EventInfoConfigNtNtCshEwRaVhoEM3_4core7default7Default7default
FN:97,_RNvMs_NtNtCsNhz5SapXcJ_8hayabusa10detections7configsNtB4_12StoredStatic18create_static_data
FN:162,_RNCNvMs_NtNtCsNhz5SapXcJ_8hayabusa10detections7configsNtB6_12StoredStatic18create_static_data0Ba_
FN:165,_RNCNvMs_NtNtCsNhz5SapXcJ_8hayabusa10detections7configsNtB6_12StoredStatic18create_static_datas_0Ba_
FN:168,_RNCNvMs_NtNtCsNhz5SapXcJ_8hayabusa10detections7configsNtB6_12StoredStatic18create_static_datas0_0Ba_
FN:174,_RNCNvMs_NtNtCsNhz5SapXcJ_8hayabusa10detections7configsNtB6_12StoredStatic18create_static_datas1_0Ba_
FN:185,_RNCNvMs_NtNtCsNhz5SapXcJ_8hayabusa10detections7configsNtB6_12StoredStatic18create_static_datas2_0Ba_
FN:198,_RNCNvMs_NtNtCsNhz5SapXcJ_8hayabusa10detections7configsNtB6_12StoredStatic18create_static_datas3_0Ba_
FN:241,_RNCNvMs_NtNtCsNhz5SapXcJ_8hayabusa10detections7configsNtB6_12StoredStatic18create_static_datas4_0Ba_
FN:301,_RNCNvMs_NtNtCsNhz5SapXcJ_8hayabusa10detections7configsNtB6_12StoredStatic18create_static_datas5_0Ba_
FN:326,_RNCNvMs_NtNtCsNhz5SapXcJ_8hayabusa10detections7configsNtB6_12StoredStatic18create_static_datas6_0Ba_
FN:494,_RNCNvMs_NtNtCsNhz5SapXcJ_8hayabusa10detections7configsNtB6_12StoredStatic18create_static_datas7_0Ba_
FN:541,_RNCNvMs_NtNtCsNhz5SapXcJ_8hayabusa10detections7configsNtB6_12StoredStatic18create_static_datas8_0Ba_
FN:549,_RNCNvMs_NtNtCsNhz5SapXcJ_8hayabusa10detections7configsNtB6_12StoredStatic18create_static_datas9_0Ba_
FN:556,_RNCNvMs_NtNtCsNhz5SapXcJ_8hayabusa10detections7configsNtB6_12StoredStatic18create_static_datasa_0Ba_
FN:570,_RNCNvMs_NtNtCsNhz5SapXcJ_8hayabusa10detections7configsNtB6_12StoredStatic18create_static_datasb_0Ba_
FN:585,_RNCNvMs_NtNtCsNhz5SapXcJ_8hayabusa10detections7configsNtB6_12StoredStatic18create_static_datasc_0Ba_
FN:587,_RNCNvMs_NtNtCsNhz5SapXcJ_8hayabusa10detections7configsNtB6_12StoredStatic18create_static_datasd_0Ba_
FN:590,_RNCNvMs_NtNtCsNhz5SapXcJ_8hayabusa10detections7configsNtB6_12StoredStatic18create_static_datase_0Ba_
FN:604,_RNCNvMs_NtNtCsNhz5SapXcJ_8hayabusa10detections7configsNtB6_12StoredStatic18create_static_datasf_0Ba_
FN:617,_RNCNvMs_NtNtCsNhz5SapXcJ_8hayabusa10detections7configsNtB6_12StoredStatic18create_static_datasg_0Ba_
FN:642,_RNCNvMs_NtNtCsNhz5SapXcJ_8hayabusa10detections7configsNtB6_12StoredStatic18create_static_datash_0Ba_
FN:655,_RNCNvMs_NtNtCsNhz5SapXcJ_8hayabusa10detections7configsNtB6_12StoredStatic18create_static_datasi_0Ba_
FN:704,_RNvMs_NtNtCsNhz5SapXcJ_8hayabusa10detections7configsNtB4_12StoredStatic19get_default_details
FN:715,_RNCNvMs_NtNtCsNhz5SapXcJ_8hayabusa10detections7configsNtB6_12StoredStatic19get_default_details0Ba_
FN:761,_RNvNtNtCsNhz5SapXcJ_8hayabusa10detections7configs19check_thread_number
FN:885,_RNvMs0_NtNtCsNhz5SapXcJ_8hayabusa10detections7configsNtB5_6Action8to_usize
FN:1752,_RNvXs2_NtNtCsNhz5SapXcJ_8hayabusa10detections7configsNtB5_9TargetIdsNtNtCshEwRaVhoEM3_4core7default7Default7default
FN:1758,_RNvMs3_NtNtCsNhz5SapXcJ_8hayabusa10detections7configsNtB5_9TargetIds3new
FN:1764,_RNvMs3_NtNtCsNhz5SapXcJ_8hayabusa10detections7configsNtB5_9TargetIds9is_target
FN:1773,_RNvNtNtCsNhz5SapXcJ_8hayabusa10detections7configs15load_target_ids
FN:1802,_RNvMs4_NtNtCsNhz5SapXcJ_8hayabusa10detections7configsNtB5_15TargetEventTime3new
FN:1804,_RNCNvMs4_NtNtCsNhz5SapXcJ_8hayabusa10detections7configsNtB7_15TargetEventTime3new0Bb_
FN:1807,_RNCNCNvMs4_NtNtCsNhz5SapXcJ_8hayabusa10detections7configsNtB9_15TargetEventTime3new00Bd_
FN:1823,_RNCNvMs4_NtNtCsNhz5SapXcJ_8hayabusa10detections7configsNtB7_15TargetEventTime3news_0Bb_
FN:1851,_RNCNCNvMs4_NtNtCsNhz5SapXcJ_8hayabusa10detections7configsNtB9_15TargetEventTime3news_00Bd_
FN:1861,_RNCNCNvMs4_NtNtCsNhz5SapXcJ_8hayabusa10detections7configsNtB9_15TargetEventTime3news_0s_0Bd_
FN:1862,_RNCNCNvMs4_NtNtCsNhz5SapXcJ_8hayabusa10detections7configsNtB9_15TargetEventTime3news_0s0_0Bd_
FN:1863,_RNCNCNvMs4_NtNtCsNhz5SapXcJ_8hayabusa10detections7configsNtB9_15TargetEventTime3news_0s1_0Bd_
FN:1868,_RNCNCNvMs4_NtNtCsNhz5SapXcJ_8hayabusa10detections7configsNtB9_15TargetEventTime3news_0s2_0Bd_
FN:1873,_RNCNCNvMs4_NtNtCsNhz5SapXcJ_8hayabusa10detections7configsNtB9_15TargetEventTime3news_0s3_0Bd_
FN:2021,_RNvMs4_NtNtCsNhz5SapXcJ_8hayabusa10detections7configsNtB5_15TargetEventTime3set
FN:2037,_RNvMs4_NtNtCsNhz5SapXcJ_8hayabusa10detections7configsNtB5_15TargetEventTime9is_target
FN:2062,_RNvMs5_NtNtCsNhz5SapXcJ_8hayabusa10detections7configsNtB5_19EventKeyAliasConfig3new
FN:2069,_RNvMs5_NtNtCsNhz5SapXcJ_8hayabusa10detections7configsNtB5_19EventKeyAliasConfig13get_event_key
FN:2073,_RNvMs5_NtNtCsNhz5SapXcJ_8hayabusa10detections7configsNtB5_19EventKeyAliasConfig19get_event_key_split
FN:2084,_RNvNtNtCsNhz5SapXcJ_8hayabusa10detections7configs19load_eventkey_alias
FN:2094,_RNCNvNtNtCsNhz5SapXcJ_8hayabusa10detections7configs19load_eventkey_alias0B7_
FN:2111,_RNCNCNvNtNtCsNhz5SapXcJ_8hayabusa10detections7configs19load_eventkey_alias00B9_
FN:2119,_RNvNtNtCsNhz5SapXcJ_8hayabusa10detections7configs19load_pivot_keywords
FN:2128,_RNCNvNtNtCsNhz5SapXcJ_8hayabusa10detections7configs19load_pivot_keywords0B7_
FN:2158,_RNvNtNtCsNhz5SapXcJ_8hayabusa10detections7configs21get_target_extensions
FN:2169,_RNvNtNtCsNhz5SapXcJ_8hayabusa10detections7configs25convert_option_vecs_to_hs
FN:2174,_RNvNtNtCsNhz5SapXcJ_8hayabusa10detections7configs22extract_search_options
FN:2207,_RNvNtNtCsNhz5SapXcJ_8hayabusa10detections7configs22extract_output_options
FN:2562,_RNvMs8_NtNtCsNhz5SapXcJ_8hayabusa10detections7configsNtB5_9EventInfo3new
FN:2579,_RNvMsa_NtNtCsNhz5SapXcJ_8hayabusa10detections7configsNtB5_15EventInfoConfig3new
FN:2584,_RNvMsa_NtNtCsNhz5SapXcJ_8hayabusa10detections7configsNtB5_15EventInfoConfig12get_event_id
FN:2590,_RNvNtNtCsNhz5SapXcJ_8hayabusa10detections7configs19load_eventcode_info
FN:2602,_RNCNvNtNtCsNhz5SapXcJ_8hayabusa10detections7configs19load_eventcode_info0B7_
FN:2622,_RNvNtNtCsNhz5SapXcJ_8hayabusa10detections7configs31create_control_chat_replace_map
FN:2625,_RNCNvNtNtCsNhz5SapXcJ_8hayabusa10detections7configs31create_control_chat_replace_map0B7_
FNDA:0,_RNvXNtNtCs5DPfXlAluY4_8hayabusa10detections7configsNtB2_12ConfigReaderNtNtCshEwRaVhoEM3_4core7default7Default7default
FNDA:16,_RNvMs_NtNtCs5DPfXlAluY4_8hayabusa10detections7configsNtB4_12StoredStatic18create_static_data
FNDA:12,_RNCNvMs_NtNtCs5DPfXlAluY4_8hayabusa10detections7configsNtB6_12StoredStatic18create_static_data0Ba_
FNDA:4,_RNCNvMs_NtNtCs5DPfXlAluY4_8hayabusa10detections7configsNtB6_12StoredStatic18create_static_datas_0Ba_
FNDA:0,_RNCNvMs_NtNtCs5DPfXlAluY4_8hayabusa10detections7configsNtB6_12StoredStatic18create_static_datas0_0Ba_
FNDA:0,_RNCNvMs_NtNtCs5DPfXlAluY4_8hayabusa10detections7configsNtB6_12StoredStatic18create_static_datas1_0Ba_
FNDA:0,_RNCNvMs_NtNtCs5DPfXlAluY4_8hayabusa10detections7configsNtB6_12StoredStatic18create_static_datas2_0Ba_
FNDA:0,_RNCNvMs_NtNtCs5DPfXlAluY4_8hayabusa10detections7configsNtB6_12StoredStatic18create_static_datas3_0Ba_
FNDA:0,_RNCNvMs_NtNtCs5DPfXlAluY4_8hayabusa10detections7configsNtB6_12StoredStatic18create_static_datas4_0Ba_
FNDA:0,_RNCNvMs_NtNtCs5DPfXlAluY4_8hayabusa10detections7configsNtB6_12StoredStatic18create_static_datas5_0Ba_
FNDA:0,_RNCNvMs_NtNtCs5DPfXlAluY4_8hayabusa10detections7configsNtB6_12StoredStatic18create_static_datas6_0Ba_
FNDA:0,_RNCNvMs_NtNtCs5DPfXlAluY4_8hayabusa10detections7configsNtB6_12StoredStatic18create_static_datas7_0Ba_
FNDA:0,_RNCNvMs_NtNtCs5DPfXlAluY4_8hayabusa10detections7configsNtB6_12StoredStatic18create_static_datas8_0Ba_
FNDA:0,_RNCNvMs_NtNtCs5DPfXlAluY4_8hayabusa10detections7configsNtB6_12StoredStatic18create_static_datas9_0Ba_
FNDA:0,_RNCNvMs_NtNtCs5DPfXlAluY4_8hayabusa10detections7configsNtB6_12StoredStatic18create_static_datasa_0Ba_
FNDA:0,_RNCNvMs_NtNtCs5DPfXlAluY4_8hayabusa10detections7configsNtB6_12StoredStatic18create_static_datasb_0Ba_
FNDA:528,_RNCNvMs_NtNtCs5DPfXlAluY4_8hayabusa10detections7configsNtB6_12StoredStatic18create_static_datasc_0Ba_
FNDA:528,_RNCNvMs_NtNtCs5DPfXlAluY4_8hayabusa10detections7configsNtB6_12StoredStatic18create_static_datasd_0Ba_
FNDA:0,_RNCNvMs_NtNtCs5DPfXlAluY4_8hayabusa10detections7configsNtB6_12StoredStatic18create_static_datase_0Ba_
FNDA:0,_RNCNvMs_NtNtCs5DPfXlAluY4_8hayabusa10detections7configsNtB6_12StoredStatic18create_static_datasf_0Ba_
FNDA:0,_RNCNvMs_NtNtCs5DPfXlAluY4_8hayabusa10detections7configsNtB6_12StoredStatic18create_static_datasg_0Ba_
FNDA:0,_RNCNvMs_NtNtCs5DPfXlAluY4_8hayabusa10detections7configsNtB6_12StoredStatic18create_static_datash_0Ba_
FNDA:0,_RNCNvMs_NtNtCs5DPfXlAluY4_8hayabusa10detections7configsNtB6_12StoredStatic18create_static_datasi_0Ba_
FNDA:16,_RNvMs_NtNtCs5DPfXlAluY4_8hayabusa10detections7configsNtB4_12StoredStatic19get_default_details
FNDA:1584,_RNCNvMs_NtNtCs5DPfXlAluY4_8hayabusa10detections7configsNtB6_12StoredStatic19get_default_details0Ba_
FNDA:16,_RNvNtNtCs5DPfXlAluY4_8hayabusa10detections7configs19check_thread_number
FNDA:32,_RNvMs0_NtNtCs5DPfXlAluY4_8hayabusa10detections7configsNtB5_6Action8to_usize
FNDA:11,_RNvMs0_NtNtCs5DPfXlAluY4_8hayabusa10detections7configsNtB5_6Action15get_action_name
FNDA:12,_RNvMs1_NtNtCs5DPfXlAluY4_8hayabusa10detections7configsNtB5_12ConfigReader3new
FNDA:35,_RNvXs2_NtNtCs5DPfXlAluY4_8hayabusa10detections7configsNtB5_9TargetIdsNtNtCshEwRaVhoEM3_4core7default7Default7default
FNDA:35,_RNvMs3_NtNtCs5DPfXlAluY4_8hayabusa10detections7configsNtB5_9TargetIds3new
FNDA:0,_RNvMs3_NtNtCs5DPfXlAluY4_8hayabusa10detections7configsNtB5_9TargetIds9is_target
FNDA:16,_RNvNtNtCs5DPfXlAluY4_8hayabusa10detections7configs15load_target_ids
FNDA:13,_RNvMs4_NtNtCs5DPfXlAluY4_8hayabusa10detections7configsNtB5_15TargetEventTime3new
FNDA:18,_RNCNvMs4_NtNtCs5DPfXlAluY4_8hayabusa10detections7configsNtB7_15TargetEventTime3new0Bb_
FNDA:0,_RNCNCNvMs4_NtNtCs5DPfXlAluY4_8hayabusa10detections7configsNtB9_15TargetEventTime3new00Bd_
FNDA:13,_RNCNvMs4_NtNtCs5DPfXlAluY4_8hayabusa10detections7configsNtB7_15TargetEventTime3news_0Bb_
FNDA:0,_RNCNCNvMs4_NtNtCs5DPfXlAluY4_8hayabusa10detections7configsNtB9_15TargetEventTime3news_00Bd_
FNDA:0,_RNCNCNvMs4_NtNtCs5DPfXlAluY4_8hayabusa10detections7configsNtB9_15TargetEventTime3news_0s_0Bd_
FNDA:0,_RNCNCNvMs4_NtNtCs5DPfXlAluY4_8hayabusa10detections7configsNtB9_15TargetEventTime3news_0s0_0Bd_
FNDA:0,_RNCNCNvMs4_NtNtCs5DPfXlAluY4_8hayabusa10detections7configsNtB9_15TargetEventTime3news_0s1_0Bd_
FNDA:0,_RNCNCNvMs4_NtNtCs5DPfXlAluY4_8hayabusa10detections7configsNtB9_15TargetEventTime3news_0s2_0Bd_
FNDA:0,_RNCNCNvMs4_NtNtCs5DPfXlAluY4_8hayabusa10detections7configsNtB9_15TargetEventTime3news_0s3_0Bd_
FNDA:13,_RNvMs4_NtNtCs5DPfXlAluY4_8hayabusa10detections7configsNtB5_15TargetEventTime3set
FNDA:10,_RNvMs4_NtNtCs5DPfXlAluY4_8hayabusa10detections7configsNtB5_15TargetEventTime16is_parse_success
FNDA:9,_RNvMs4_NtNtCs5DPfXlAluY4_8hayabusa10detections7configsNtB5_15TargetEventTime9is_target
FNDA:16,_RNvMs5_NtNtCs5DPfXlAluY4_8hayabusa10detections7configsNtB5_19EventKeyAliasConfig3new
FNDA:65,_RNvMs5_NtNtCs5DPfXlAluY4_8hayabusa10detections7configsNtB5_19EventKeyAliasConfig13get_event_key
FNDA:16,_RNvMs5_NtNtCs5DPfXlAluY4_8hayabusa10detections7configsNtB5_19EventKeyAliasConfig19get_event_key_split
FNDA:0,_RNvXs6_NtNtCs5DPfXlAluY4_8hayabusa10detections7configsNtB5_19EventKeyAliasConfigNtNtCshEwRaVhoEM3_4core7default7Default7default
FNDA:16,_RNvNtNtCs5DPfXlAluY4_8hayabusa10detections7configs19load_eventkey_alias
FNDA:3840,_RNCNvNtNtCs5DPfXlAluY4_8hayabusa10detections7configs19load_eventkey_alias0B7_
FNDA:12112,_RNCNCNvNtNtCs5DPfXlAluY4_8hayabusa10detections7configs19load_eventkey_alias00B9_
FNDA:0,_RNvNtNtCs5DPfXlAluY4_8hayabusa10detections7configs19load_pivot_keywords
FNDA:0,_RNCNvNtNtCs5DPfXlAluY4_8hayabusa10detections7configs19load_pivot_keywords0B7_
FNDA:10,_RNvNtNtCs5DPfXlAluY4_8hayabusa10detections7configs21get_target_extensions
FNDA:12,_RNvNtNtCs5DPfXlAluY4_8hayabusa10detections7configs25convert_option_vecs_to_hs
FNDA:16,_RNvNtNtCs5DPfXlAluY4_8hayabusa10detections7configs22extract_search_options
FNDA:16,_RNvNtNtCs5DPfXlAluY4_8hayabusa10detections7configs22extract_output_options
FNDA:0,_RNvXs7_NtNtCs5DPfXlAluY4_8hayabusa10detections7configsNtB5_9EventInfoNtNtCshEwRaVhoEM3_4core7default7Default7default
FNDA:16,_RNvMs8_NtNtCs5DPfXlAluY4_8hayabusa10detections7configsNtB5_9EventInfo3new
FNDA:0,_RNvXs9_NtNtCs5DPfXlAluY4_8hayabusa10detections7configsNtB5_15EventInfoConfigNtNtCshEwRaVhoEM3_4core7default7Default7default
FNDA:16,_RNvMsa_NtNtCs5DPfXlAluY4_8hayabusa10detections7configsNtB5_15EventInfoConfig3new
FNDA:2,_RNvMsa_NtNtCs5DPfXlAluY4_8hayabusa10detections7configsNtB5_15EventInfoConfig12get_event_id
FNDA:16,_RNvNtNtCs5DPfXlAluY4_8hayabusa10detections7configs19load_eventcode_info
FNDA:8096,_RNCNvNtNtCs5DPfXlAluY4_8hayabusa10detections7configs19load_eventcode_info0B7_
FNDA:1,_RNvNtNtCs5DPfXlAluY4_8hayabusa10detections7configs31create_control_chat_replace_map
FNDA:32,_RNCNvNtNtCs5DPfXlAluY4_8hayabusa10detections7configs31create_control_chat_replace_map0B7_
FNDA:0,_RNCNvXsz_NtNtCs5DPfXlAluY4_8hayabusa10detections7configsNtB7_18DetectCommonOptionNtNtCsgalAmTtUVqh_12clap_builder6derive14FromArgMatches20from_arg_matches_mut0Bb_
FNDA:0,_RNCNvXsz_NtNtCs5DPfXlAluY4_8hayabusa10detections7configsNtB7_18DetectCommonOptionNtNtCsgalAmTtUVqh_12clap_builder6derive14FromArgMatches20from_arg_matches_muts_0Bb_
FNDA:0,_RNCNvXsz_NtNtCs5DPfXlAluY4_8hayabusa10detections7configsNtB7_18DetectCommonOptionNtNtCsgalAmTtUVqh_12clap_builder6derive14FromArgMatches20from_arg_matches_muts0_0Bb_
FNDA:0,_RNCNvXsz_NtNtCs5DPfXlAluY4_8hayabusa10detections7configsNtB7_18DetectCommonOptionNtNtCsgalAmTtUVqh_12clap_builder6derive14FromArgMatches20from_arg_matches_muts1_0Bb_
FNDA:0,_RNCNvXsz_NtNtCs5DPfXlAluY4_8hayabusa10detections7configsNtB7_18DetectCommonOptionNtNtCsgalAmTtUVqh_12clap_builder6derive14FromArgMatches20from_arg_matches_muts2_0Bb_
FNDA:0,_RNCNvXsz_NtNtCs5DPfXlAluY4_8hayabusa10detections7configsNtB7_18DetectCommonOptionNtNtCsgalAmTtUVqh_12clap_builder6derive14FromArgMatches20from_arg_matches_muts3_0Bb_
FNDA:0,_RNCNvXsz_NtNtCs5DPfXlAluY4_8hayabusa10detections7configsNtB7_18DetectCommonOptionNtNtCsgalAmTtUVqh_12clap_builder6derive14FromArgMatches20from_arg_matches_muts4_0Bb_
FNDA:0,_RNCNvXsz_NtNtCs5DPfXlAluY4_8hayabusa10detections7configsNtB7_18DetectCommonOptionNtNtCsgalAmTtUVqh_12clap_builder6derive14FromArgMatches27update_from_arg_matches_mut0Bb_
FNDA:0,_RNCNvXsz_NtNtCs5DPfXlAluY4_8hayabusa10detections7configsNtB7_18DetectCommonOptionNtNtCsgalAmTtUVqh_12clap_builder6derive14FromArgMatches27update_from_arg_matches_muts_0Bb_
FNDA:0,_RNCNvXsz_NtNtCs5DPfXlAluY4_8hayabusa10detections7configsNtB7_18DetectCommonOptionNtNtCsgalAmTtUVqh_12clap_builder6derive14FromArgMatches27update_from_arg_matches_muts0_0Bb_
FNDA:0,_RNCNvXsz_NtNtCs5DPfXlAluY4_8hayabusa10detections7configsNtB7_18DetectCommonOptionNtNtCsgalAmTtUVqh_12clap_builder6derive14FromArgMatches27update_from_arg_matches_muts1_0Bb_
FNDA:0,_RNCNvXsz_NtNtCs5DPfXlAluY4_8hayabusa10detections7configsNtB7_18DetectCommonOptionNtNtCsgalAmTtUVqh_12clap_builder6derive14FromArgMatches27update_from_arg_matches_muts2_0Bb_
FNDA:0,_RNCNvXsz_NtNtCs5DPfXlAluY4_8hayabusa10detections7configsNtB7_18DetectCommonOptionNtNtCsgalAmTtUVqh_12clap_builder6derive14FromArgMatches27update_from_arg_matches_muts3_0Bb_
FNDA:0,_RNCNvXsz_NtNtCs5DPfXlAluY4_8hayabusa10detections7configsNtB7_18DetectCommonOptionNtNtCsgalAmTtUVqh_12clap_builder6derive14FromArgMatches27update_from_arg_matches_muts4_0Bb_
FNDA:0,_RNCNvXsH_NtNtCs5DPfXlAluY4_8hayabusa10detections7configsNtB7_12SearchOptionNtNtCsgalAmTtUVqh_12clap_builder6derive14FromArgMatches20from_arg_matches_mut0Bb_
FNDA:0,_RNCNvXsH_NtNtCs5DPfXlAluY4_8hayabusa10detections7configsNtB7_12SearchOptionNtNtCsgalAmTtUVqh_12clap_builder6derive14FromArgMatches20from_arg_matches_muts_0Bb_
FNDA:0,_RNCNvXsH_NtNtCs5DPfXlAluY4_8hayabusa10detections7configsNtB7_12SearchOptionNtNtCsgalAmTtUVqh_12clap_builder6derive14FromArgMatches20from_arg_matches_muts0_0Bb_
FNDA:0,_RNCNvXsH_NtNtCs5DPfXlAluY4_8hayabusa10detections7configsNtB7_12SearchOptionNtNtCsgalAmTtUVqh_12clap_builder6derive14FromArgMatches20from_arg_matches_muts1_0Bb_
FNDA:0,_RNCNvXsH_NtNtCs5DPfXlAluY4_8hayabusa10detections7configsNtB7_12SearchOptionNtNtCsgalAmTtUVqh_12clap_builder6derive14FromArgMatches20from_arg_matches_muts2_0Bb_
FNDA:0,_RNCNvXsH_NtNtCs5DPfXlAluY4_8hayabusa10detections7configsNtB7_12SearchOptionNtNtCsgalAmTtUVqh_12clap_builder6derive14FromArgMatches20from_arg_matches_muts3_0Bb_
FNDA:0,_RNCNvXsH_NtNtCs5DPfXlAluY4_8hayabusa10detections7configsNtB7_12SearchOptionNtNtCsgalAmTtUVqh_12clap_builder6derive14FromArgMatches20from_arg_matches_muts4_0Bb_
FNDA:0,_RNCNvXsH_NtNtCs5DPfXlAluY4_8hayabusa10detections7configsNtB7_12SearchOptionNtNtCsgalAmTtUVqh_12clap_builder6derive14FromArgMatches20from_arg_matches_muts5_0Bb_
FNDA:0,_RNCNvXsH_NtNtCs5DPfXlAluY4_8hayabusa10detections7configsNtB7_12SearchOptionNtNtCsgalAmTtUVqh_12clap_builder6derive14FromArgMatches20from_arg_matches_muts6_0Bb_
FNDA:0,_RNCNvXsH_NtNtCs5DPfXlAluY4_8hayabusa10detections7configsNtB7_12SearchOptionNtNtCsgalAmTtUVqh_12clap_builder6derive14FromArgMatches20from_arg_matches_muts7_0Bb_
FNDA:0,_RNCNvXsH_NtNtCs5DPfXlAluY4_8hayabusa10detections7configsNtB7_12SearchOptionNtNtCsgalAmTtUVqh_12clap_builder6derive14FromArgMatches20from_arg_matches_muts8_0Bb_
FNDA:0,_RNCNvXsH_NtNtCs5DPfXlAluY4_8hayabusa10detections7configsNtB7_12SearchOptionNtNtCsgalAmTtUVqh_12clap_builder6derive14FromArgMatches20from_arg_matches_muts9_0Bb_
FNDA:0,_RNCNvXsH_NtNtCs5DPfXlAluY4_8hayabusa10detections7configsNtB7_12SearchOptionNtNtCsgalAmTtUVqh_12clap_builder6derive14FromArgMatches20from_arg_matches_mutsa_0Bb_
FNDA:0,_RNCNvXsH_NtNtCs5DPfXlAluY4_8hayabusa10detections7configsNtB7_12SearchOptionNtNtCsgalAmTtUVqh_12clap_builder6derive14FromArgMatches20from_arg_matches_mutsb_0Bb_
FNDA:0,_RNCNvXsH_NtNtCs5DPfXlAluY4_8hayabusa10detections7configsNtB7_12SearchOptionNtNtCsgalAmTtUVqh_12clap_builder6derive14FromArgMatches20from_arg_matches_mutsc_0Bb_
FNDA:0,_RNCNvXsH_NtNtCs5DPfXlAluY4_8hayabusa10detections7configsNtB7_12SearchOptionNtNtCsgalAmTtUVqh_12clap_builder6derive14FromArgMatches20from_arg_matches_mutsd_0Bb_
FNDA:0,_RNCNvXsH_NtNtCs5DPfXlAluY4_8hayabusa10detections7configsNtB7_12SearchOptionNtNtCsgalAmTtUVqh_12clap_builder6derive14FromArgMatches20from_arg_matches_mutse_0Bb_
FNDA:0,_RNCNvXsH_NtNtCs5DPfXlAluY4_8hayabusa10detections7configsNtB7_12SearchOptionNtNtCsgalAmTtUVqh_12clap_builder6derive14FromArgMatches20from_arg_matches_mutsf_0Bb_
FNDA:0,_RNCNvXsH_NtNtCs5DPfXlAluY4_8hayabusa10detections7configsNtB7_12SearchOptionNtNtCsgalAmTtUVqh_12clap_builder6derive14FromArgMatches20from_arg_matches_mutsg_0Bb_
FNDA:0,_RNCNvXsH_NtNtCs5DPfXlAluY4_8hayabusa10detections7configsNtB7_12SearchOptionNtNtCsgalAmTtUVqh_12clap_builder6derive14FromArgMatches27update_from_arg_matches_mut0Bb_
FNDA:0,_RNCNvXsH_NtNtCs5DPfXlAluY4_8hayabusa10detections7configsNtB7_12SearchOptionNtNtCsgalAmTtUVqh_12clap_builder6derive14FromArgMatches27update_from_arg_matches_muts_0Bb_
FNDA:0,_RNCNvXsH_NtNtCs5DPfXlAluY4_8hayabusa10detections7configsNtB7_12SearchOptionNtNtCsgalAmTtUVqh_12clap_builder6derive14FromArgMatches27update_from_arg_matches_muts0_0Bb_
FNDA:0,_RNCNvXsH_NtNtCs5DPfXlAluY4_8hayabusa10detections7configsNtB7_12SearchOptionNtNtCsgalAmTtUVqh_12clap_builder6derive14FromArgMatches27update_from_arg_matches_muts1_0Bb_
FNDA:0,_RNCNvXsH_NtNtCs5DPfXlAluY4_8hayabusa10detections7configsNtB7_12SearchOptionNtNtCsgalAmTtUVqh_12clap_builder6derive14FromArgMatches27update_from_arg_matches_muts2_0Bb_
FNDA:0,_RNCNvXsH_NtNtCs5DPfXlAluY4_8hayabusa10detections7configsNtB7_12SearchOptionNtNtCsgalAmTtUVqh_12clap_builder6derive14FromArgMatches27update_from_arg_matches_muts3_0Bb_
FNDA:0,_RNCNvXsH_NtNtCs5DPfXlAluY4_8hayabusa10detections7configsNtB7_12SearchOptionNtNtCsgalAmTtUVqh_12clap_builder6derive14FromArgMatches27update_from_arg_matches_muts4_0Bb_
FNDA:0,_RNCNvXsH_NtNtCs5DPfXlAluY4_8hayabusa10detections7configsNtB7_12SearchOptionNtNtCsgalAmTtUVqh_12clap_builder6derive14FromArgMatches27update_from_arg_matches_muts5_0Bb_
FNDA:0,_RNCNvXsH_NtNtCs5DPfXlAluY4_8hayabusa10detections7configsNtB7_12SearchOptionNtNtCsgalAmTtUVqh_12clap_builder6derive14FromArgMatches27update_from_arg_matches_muts6_0Bb_
FNDA:0,_RNCNvXsH_NtNtCs5DPfXlAluY4_8hayabusa10detections7configsNtB7_12SearchOptionNtNtCsgalAmTtUVqh_12clap_builder6derive14FromArgMatches27update_from_arg_matches_muts7_0Bb_
FNDA:0,_RNCNvXsH_NtNtCs5DPfXlAluY4_8hayabusa10detections7configsNtB7_12SearchOptionNtNtCsgalAmTtUVqh_12clap_builder6derive14FromArgMatches27update_from_arg_matches_muts8_0Bb_
FNDA:0,_RNCNvXsH_NtNtCs5DPfXlAluY4_8hayabusa10detections7configsNtB7_12SearchOptionNtNtCsgalAmTtUVqh_12clap_builder6derive14FromArgMatches27update_from_arg_matches_muts9_0Bb_
FNDA:0,_RNCNvXsH_NtNtCs5DPfXlAluY4_8hayabusa10detections7configsNtB7_12SearchOptionNtNtCsgalAmTtUVqh_12clap_builder6derive14FromArgMatches27update_from_arg_matches_mutsa_0Bb_
FNDA:0,_RNCNvXsH_NtNtCs5DPfXlAluY4_8hayabusa10detections7configsNtB7_12SearchOptionNtNtCsgalAmTtUVqh_12clap_builder6derive14FromArgMatches27update_from_arg_matches_mutsb_0Bb_
FNDA:0,_RNCNvXsH_NtNtCs5DPfXlAluY4_8hayabusa10detections7configsNtB7_12SearchOptionNtNtCsgalAmTtUVqh_12clap_builder6derive14FromArgMatches27update_from_arg_matches_mutsc_0Bb_
FNDA:0,_RNCNvXsH_NtNtCs5DPfXlAluY4_8hayabusa10detections7configsNtB7_12SearchOptionNtNtCsgalAmTtUVqh_12clap_builder6derive14FromArgMatches27update_from_arg_matches_mutsd_0Bb_
FNDA:0,_RNCNvXsH_NtNtCs5DPfXlAluY4_8hayabusa10detections7configsNtB7_12SearchOptionNtNtCsgalAmTtUVqh_12clap_builder6derive14FromArgMatches27update_from_arg_matches_mutse_0Bb_
FNDA:0,_RNCNvXsH_NtNtCs5DPfXlAluY4_8hayabusa10detections7configsNtB7_12SearchOptionNtNtCsgalAmTtUVqh_12clap_builder6derive14FromArgMatches27update_from_arg_matches_mutsf_0Bb_
FNDA:0,_RNCNvXsH_NtNtCs5DPfXlAluY4_8hayabusa10detections7configsNtB7_12SearchOptionNtNtCsgalAmTtUVqh_12clap_builder6derive14FromArgMatches27update_from_arg_matches_mutsg_0Bb_
FNDA:0,_RNCNvXsL_NtNtCs5DPfXlAluY4_8hayabusa10detections7configsNtB7_12UpdateOptionNtNtCsgalAmTtUVqh_12clap_builder6derive14FromArgMatches20from_arg_matches_mut0Bb_
FNDA:0,_RNCNvXsL_NtNtCs5DPfXlAluY4_8hayabusa10detections7configsNtB7_12UpdateOptionNtNtCsgalAmTtUVqh_12clap_builder6derive14FromArgMatches27update_from_arg_matches_mut0Bb_
FNDA:0,_RNCNvXsP_NtNtCs5DPfXlAluY4_8hayabusa10detections7configsNtB7_17LevelTuningOptionNtNtCsgalAmTtUVqh_12clap_builder6derive14FromArgMatches20from_arg_matches_mut0Bb_
FNDA:0,_RNCNvXsP_NtNtCs5DPfXlAluY4_8hayabusa10detections7configsNtB7_17LevelTuningOptionNtNtCsgalAmTtUVqh_12clap_builder6derive14FromArgMatches27update_from_arg_matches_mut0Bb_
FNDA:0,_RNCNvXsT_NtNtCs5DPfXlAluY4_8hayabusa10detections7configsNtB7_16EidMetricsOptionNtNtCsgalAmTtUVqh_12clap_builder6derive14FromArgMatches20from_arg_matches_mut0Bb_
FNDA:0,_RNCNvXsT_NtNtCs5DPfXlAluY4_8hayabusa10detections7configsNtB7_16EidMetricsOptionNtNtCsgalAmTtUVqh_12clap_builder6derive14FromArgMatches20from_arg_matches_muts_0Bb_
FNDA:0,_RNCNvXsT_NtNtCs5DPfXlAluY4_8hayabusa10detections7configsNtB7_16EidMetricsOptionNtNtCsgalAmTtUVqh_12clap_builder6derive14FromArgMatches20from_arg_matches_muts0_0Bb_
FNDA:0,_RNCNvXsT_NtNtCs5DPfXlAluY4_8hayabusa10detections7configsNtB7_16EidMetricsOptionNtNtCsgalAmTtUVqh_12clap_builder6derive14FromArgMatches20from_arg_matches_muts1_0Bb_
FNDA:0,_RNCNvXsT_NtNtCs5DPfXlAluY4_8hayabusa10detections7configsNtB7_16EidMetricsOptionNtNtCsgalAmTtUVqh_12clap_builder6derive14FromArgMatches20from_arg_matches_muts2_0Bb_
FNDA:0,_RNCNvXsT_NtNtCs5DPfXlAluY4_8hayabusa10detections7configsNtB7_16EidMetricsOptionNtNtCsgalAmTtUVqh_12clap_builder6derive14FromArgMatches20from_arg_matches_muts3_0Bb_
FNDA:0,_RNCNvXsT_NtNtCs5DPfXlAluY4_8hayabusa10detections7configsNtB7_16EidMetricsOptionNtNtCsgalAmTtUVqh_12clap_builder6derive14FromArgMatches20from_arg_matches_muts4_0Bb_
FNDA:0,_RNCNvXsT_NtNtCs5DPfXlAluY4_8hayabusa10detections7configsNtB7_16EidMetricsOptionNtNtCsgalAmTtUVqh_12clap_builder6derive14FromArgMatches20from_arg_matches_muts5_0Bb_
FNDA:0,_RNCNvXsT_NtNtCs5DPfXlAluY4_8hayabusa10detections7configsNtB7_16EidMetricsOptionNtNtCsgalAmTtUVqh_12clap_builder6derive14FromArgMatches27update_from_arg_matches_mut0Bb_
FNDA:0,_RNCNvXsT_NtNtCs5DPfXlAluY4_8hayabusa10detections7configsNtB7_16EidMetricsOptionNtNtCsgalAmTtUVqh_12clap_builder6derive14FromArgMatches27update_from_arg_matches_muts_0Bb_
FNDA:0,_RNCNvXsT_NtNtCs5DPfXlAluY4_8hayabusa10detections7configsNtB7_16EidMetricsOptionNtNtCsgalAmTtUVqh_12clap_builder6derive14FromArgMatches27update_from_arg_matches_muts0_0Bb_
FNDA:0,_RNCNvXsT_NtNtCs5DPfXlAluY4_8hayabusa10detections7configsNtB7_16EidMetricsOptionNtNtCsgalAmTtUVqh_12clap_builder6derive14FromArgMatches27update_from_arg_matches_muts1_0Bb_
FNDA:0,_RNCNvXsT_NtNtCs5DPfXlAluY4_8hayabusa10detections7configsNtB7_16EidMetricsOptionNtNtCsgalAmTtUVqh_12clap_builder6derive14FromArgMatches27update_from_arg_matches_muts2_0Bb_
FNDA:0,_RNCNvXsT_NtNtCs5DPfXlAluY4_8hayabusa10detections7configsNtB7_16EidMetricsOptionNtNtCsgalAmTtUVqh_12clap_builder6derive14FromArgMatches27update_from_arg_matches_muts3_0Bb_
FNDA:0,_RNCNvXsT_NtNtCs5DPfXlAluY4_8hayabusa10detections7configsNtB7_16EidMetricsOptionNtNtCsgalAmTtUVqh_12clap_builder6derive14FromArgMatches27update_from_arg_matches_muts4_0Bb_
FNDA:0,_RNCNvXsT_NtNtCs5DPfXlAluY4_8hayabusa10detections7configsNtB7_16EidMetricsOptionNtNtCsgalAmTtUVqh_12clap_builder6derive14FromArgMatches27update_from_arg_matches_muts5_0Bb_
FNDA:0,_RNCNvXsX_NtNtCs5DPfXlAluY4_8hayabusa10detections7configsNtB7_18PivotKeywordOptionNtNtCsgalAmTtUVqh_12clap_builder6derive14FromArgMatches20from_arg_matches_mut0Bb_
FNDA:0,_RNCNvXsX_NtNtCs5DPfXlAluY4_8hayabusa10detections7configsNtB7_18PivotKeywordOptionNtNtCsgalAmTtUVqh_12clap_builder6derive14FromArgMatches20from_arg_matches_muts_0Bb_
FNDA:0,_RNCNvXsX_NtNtCs5DPfXlAluY4_8hayabusa10detections7configsNtB7_18PivotKeywordOptionNtNtCsgalAmTtUVqh_12clap_builder6derive14FromArgMatches20from_arg_matches_muts0_0Bb_
FNDA:0,_RNCNvXsX_NtNtCs5DPfXlAluY4_8hayabusa10detections7configsNtB7_18PivotKeywordOptionNtNtCsgalAmTtUVqh_12clap_builder6derive14FromArgMatches20from_arg_matches_muts1_0Bb_
FNDA:0,_RNCNvXsX_NtNtCs5DPfXlAluY4_8hayabusa10detections7configsNtB7_18PivotKeywordOptionNtNtCsgalAmTtUVqh_12clap_builder6derive14FromArgMatches20from_arg_matches_muts2_0Bb_
FNDA:0,_RNCNvXsX_NtNtCs5DPfXlAluY4_8hayabusa10detections7configsNtB7_18PivotKeywordOptionNtNtCsgalAmTtUVqh_12clap_builder6derive14FromArgMatches20from_arg_matches_muts3_0Bb_
FNDA:0,_RNCNvXsX_NtNtCs5DPfXlAluY4_8hayabusa10detections7configsNtB7_18PivotKeywordOptionNtNtCsgalAmTtUVqh_12clap_builder6derive14FromArgMatches20from_arg_matches_muts4_0Bb_
FNDA:0,_RNCNvXsX_NtNtCs5DPfXlAluY4_8hayabusa10detections7configsNtB7_18PivotKeywordOptionNtNtCsgalAmTtUVqh_12clap_builder6derive14FromArgMatches20from_arg_matches_muts5_0Bb_
FNDA:0,_RNCNvXsX_NtNtCs5DPfXlAluY4_8hayabusa10detections7configsNtB7_18PivotKeywordOptionNtNtCsgalAmTtUVqh_12clap_builder6derive14FromArgMatches20from_arg_matches_muts6_0Bb_
FNDA:0,_RNCNvXsX_NtNtCs5DPfXlAluY4_8hayabusa10detections7configsNtB7_18PivotKeywordOptionNtNtCsgalAmTtUVqh_12clap_builder6derive14FromArgMatches20from_arg_matches_muts7_0Bb_
FNDA:0,_RNCNvXsX_NtNtCs5DPfXlAluY4_8hayabusa10detections7configsNtB7_18PivotKeywordOptionNtNtCsgalAmTtUVqh_12clap_builder6derive14FromArgMatches20from_arg_matches_muts8_0Bb_
FNDA:0,_RNCNvXsX_NtNtCs5DPfXlAluY4_8hayabusa10detections7configsNtB7_18PivotKeywordOptionNtNtCsgalAmTtUVqh_12clap_builder6derive14FromArgMatches20from_arg_matches_muts9_0Bb_
FNDA:0,_RNCNvXsX_NtNtCs5DPfXlAluY4_8hayabusa10detections7configsNtB7_18PivotKeywordOptionNtNtCsgalAmTtUVqh_12clap_builder6derive14FromArgMatches20from_arg_matches_mutsa_0Bb_
FNDA:0,_RNCNvXsX_NtNtCs5DPfXlAluY4_8hayabusa10detections7configsNtB7_18PivotKeywordOptionNtNtCsgalAmTtUVqh_12clap_builder6derive14FromArgMatches27update_from_arg_matches_mut0Bb_
FNDA:0,_RNCNvXsX_NtNtCs5DPfXlAluY4_8hayabusa10detections7configsNtB7_18PivotKeywordOptionNtNtCsgalAmTtUVqh_12clap_builder6derive14FromArgMatches27update_from_arg_matches_muts_0Bb_
FNDA:0,_RNCNvXsX_NtNtCs5DPfXlAluY4_8hayabusa10detections7configsNtB7_18PivotKeywordOptionNtNtCsgalAmTtUVqh_12clap_builder6derive14FromArgMatches27update_from_arg_matches_muts0_0Bb_
FNDA:0,_RNCNvXsX_NtNtCs5DPfXlAluY4_8hayabusa10detections7configsNtB7_18PivotKeywordOptionNtNtCsgalAmTtUVqh_12clap_builder6derive14FromArgMatches27update_from_arg_matches_muts1_0Bb_
FNDA:0,_RNCNvXsX_NtNtCs5DPfXlAluY4_8hayabusa10detections7configsNtB7_18PivotKeywordOptionNtNtCsgalAmTtUVqh_12clap_builder6derive14FromArgMatches27update_from_arg_matches_muts2_0Bb_
FNDA:0,_RNCNvXsX_NtNtCs5DPfXlAluY4_8hayabusa10detections7configsNtB7_18PivotKeywordOptionNtNtCsgalAmTtUVqh_12clap_builder6derive14FromArgMatches27update_from_arg_matches_muts3_0Bb_
FNDA:0,_RNCNvXsX_NtNtCs5DPfXlAluY4_8hayabusa10detections7configsNtB7_18PivotKeywordOptionNtNtCsgalAmTtUVqh_12clap_builder6derive14FromArgMatches27update_from_arg_matches_muts4_0Bb_
FNDA:0,_RNCNvXsX_NtNtCs5DPfXlAluY4_8hayabusa10detections7configsNtB7_18PivotKeywordOptionNtNtCsgalAmTtUVqh_12clap_builder6derive14FromArgMatches27update_from_arg_matches_muts5_0Bb_
FNDA:0,_RNCNvXsX_NtNtCs5DPfXlAluY4_8hayabusa10detections7configsNtB7_18PivotKeywordOptionNtNtCsgalAmTtUVqh_12clap_builder6derive14FromArgMatches27update_from_arg_matches_muts6_0Bb_
FNDA:0,_RNCNvXsX_NtNtCs5DPfXlAluY4_8hayabusa10detections7configsNtB7_18PivotKeywordOptionNtNtCsgalAmTtUVqh_12clap_builder6derive14FromArgMatches27update_from_arg_matches_muts7_0Bb_
FNDA:0,_RNCNvXsX_NtNtCs5DPfXlAluY4_8hayabusa10detections7configsNtB7_18PivotKeywordOptionNtNtCsgalAmTtUVqh_12clap_builder6derive14FromArgMatches27update_from_arg_matches_muts8_0Bb_
FNDA:0,_RNCNvXsX_NtNtCs5DPfXlAluY4_8hayabusa10detections7configsNtB7_18PivotKeywordOptionNtNtCsgalAmTtUVqh_12clap_builder6derive14FromArgMatches27update_from_arg_matches_muts9_0Bb_
FNDA:0,_RNCNvXsX_NtNtCs5DPfXlAluY4_8hayabusa10detections7configsNtB7_18PivotKeywordOptionNtNtCsgalAmTtUVqh_12clap_builder6derive14FromArgMatches27update_from_arg_matches_mutsa_0Bb_
FNDA:0,_RNCNvXs11_NtNtCs5DPfXlAluY4_8hayabusa10detections7configsNtB8_18LogonSummaryOptionNtNtCsgalAmTtUVqh_12clap_builder6derive14FromArgMatches20from_arg_matches_mut0Bc_
FNDA:0,_RNCNvXs11_NtNtCs5DPfXlAluY4_8hayabusa10detections7configsNtB8_18LogonSummaryOptionNtNtCsgalAmTtUVqh_12clap_builder6derive14FromArgMatches20from_arg_matches_muts_0Bc_
FNDA:0,_RNCNvXs11_NtNtCs5DPfXlAluY4_8hayabusa10detections7configsNtB8_18LogonSummaryOptionNtNtCsgalAmTtUVqh_12clap_builder6derive14FromArgMatches20from_arg_matches_muts0_0Bc_
FNDA:0,_RNCNvXs11_NtNtCs5DPfXlAluY4_8hayabusa10detections7configsNtB8_18LogonSummaryOptionNtNtCsgalAmTtUVqh_12clap_builder6derive14FromArgMatches20from_arg_matches_muts1_0Bc_
FNDA:0,_RNCNvXs11_NtNtCs5DPfXlAluY4_8hayabusa10detections7configsNtB8_18LogonSummaryOptionNtNtCsgalAmTtUVqh_12clap_builder6derive14FromArgMatches20from_arg_matches_muts2_0Bc_
FNDA:0,_RNCNvXs11_NtNtCs5DPfXlAluY4_8hayabusa10detections7configsNtB8_18LogonSummaryOptionNtNtCsgalAmTtUVqh_12clap_builder6derive14FromArgMatches20from_arg_matches_muts3_0Bc_
FNDA:0,_RNCNvXs11_NtNtCs5DPfXlAluY4_8hayabusa10detections7configsNtB8_18LogonSummaryOptionNtNtCsgalAmTtUVqh_12clap_builder6derive14FromArgMatches20from_arg_matches_muts4_0Bc_
FNDA:0,_RNCNvXs11_NtNtCs5DPfXlAluY4_8hayabusa10detections7configsNtB8_18LogonSummaryOptionNtNtCsgalAmTtUVqh_12clap_builder6derive14FromArgMatches20from_arg_matches_muts5_0Bc_
FNDA:0,_RNCNvXs11_NtNtCs5DPfXlAluY4_8hayabusa10detections7configsNtB8_18LogonSummaryOptionNtNtCsgalAmTtUVqh_12clap_builder6derive14FromArgMatches27update_from_arg_matches_mut0Bc_
FNDA:0,_RNCNvXs11_NtNtCs5DPfXlAluY4_8hayabusa10detections7configsNtB8_18LogonSummaryOptionNtNtCsgalAmTtUVqh_12clap_builder6derive14FromArgMatches27update_from_arg_matches_muts_0Bc_
FNDA:0,_RNCNvXs11_NtNtCs5DPfXlAluY4_8hayabusa10detections7configsNtB8_18LogonSummaryOptionNtNtCsgalAmTtUVqh_12clap_builder6derive14FromArgMatches27update_from_arg_matches_muts0_0Bc_
FNDA:0,_RNCNvXs11_NtNtCs5DPfXlAluY4_8hayabusa10detections7configsNtB8_18LogonSummaryOptionNtNtCsgalAmTtUVqh_12clap_builder6derive14FromArgMatches27update_from_arg_matches_muts1_0Bc_
FNDA:0,_RNCNvXs11_NtNtCs5DPfXlAluY4_8hayabusa10detections7configsNtB8_18LogonSummaryOptionNtNtCsgalAmTtUVqh_12clap_builder6derive14FromArgMatches27update_from_arg_matches_muts2_0Bc_
FNDA:0,_RNCNvXs11_NtNtCs5DPfXlAluY4_8hayabusa10detections7configsNtB8_18LogonSummaryOptionNtNtCsgalAmTtUVqh_12clap_builder6derive14FromArgMatches27update_from_arg_matches_muts3_0Bc_
FNDA:0,_RNCNvXs11_NtNtCs5DPfXlAluY4_8hayabusa10detections7configsNtB8_18LogonSummaryOptionNtNtCsgalAmTtUVqh_12clap_builder6derive14FromArgMatches27update_from_arg_matches_muts4_0Bc_
FNDA:0,_RNCNvXs11_NtNtCs5DPfXlAluY4_8hayabusa10detections7configsNtB8_18LogonSummaryOptionNtNtCsgalAmTtUVqh_12clap_builder6derive14FromArgMatches27update_from_arg_matches_muts5_0Bc_
FNDA:0,_RNCNvXs15_NtNtCs5DPfXlAluY4_8hayabusa10detections7configsNtB8_12OutputOptionNtNtCsgalAmTtUVqh_12clap_builder6derive14FromArgMatches20from_arg_matches_mut0Bc_
FNDA:0,_RNCNvXs15_NtNtCs5DPfXlAluY4_8hayabusa10detections7configsNtB8_12OutputOptionNtNtCsgalAmTtUVqh_12clap_builder6derive14FromArgMatches20from_arg_matches_muts_0Bc_
FNDA:0,_RNCNvXs15_NtNtCs5DPfXlAluY4_8hayabusa10detections7configsNtB8_12OutputOptionNtNtCsgalAmTtUVqh_12clap_builder6derive14FromArgMatches20from_arg_matches_muts0_0Bc_
FNDA:0,_RNCNvXs15_NtNtCs5DPfXlAluY4_8hayabusa10detections7configsNtB8_12OutputOptionNtNtCsgalAmTtUVqh_12clap_builder6derive14FromArgMatches20from_arg_matches_muts1_0Bc_
FNDA:0,_RNCNvXs15_NtNtCs5DPfXlAluY4_8hayabusa10detections7configsNtB8_12OutputOptionNtNtCsgalAmTtUVqh_12clap_builder6derive14FromArgMatches20from_arg_matches_muts2_0Bc_
FNDA:0,_RNCNvXs15_NtNtCs5DPfXlAluY4_8hayabusa10detections7configsNtB8_12OutputOptionNtNtCsgalAmTtUVqh_12clap_builder6derive14FromArgMatches20from_arg_matches_muts3_0Bc_
FNDA:0,_RNCNvXs15_NtNtCs5DPfXlAluY4_8hayabusa10detections7configsNtB8_12OutputOptionNtNtCsgalAmTtUVqh_12clap_builder6derive14FromArgMatches20from_arg_matches_muts4_0Bc_
FNDA:0,_RNCNvXs15_NtNtCs5DPfXlAluY4_8hayabusa10detections7configsNtB8_12OutputOptionNtNtCsgalAmTtUVqh_12clap_builder6derive14FromArgMatches20from_arg_matches_muts5_0Bc_
FNDA:0,_RNCNvXs15_NtNtCs5DPfXlAluY4_8hayabusa10detections7configsNtB8_12OutputOptionNtNtCsgalAmTtUVqh_12clap_builder6derive14FromArgMatches20from_arg_matches_muts6_0Bc_
FNDA:0,_RNCNvXs15_NtNtCs5DPfXlAluY4_8hayabusa10detections7configsNtB8_12OutputOptionNtNtCsgalAmTtUVqh_12clap_builder6derive14FromArgMatches20from_arg_matches_muts7_0Bc_
FNDA:0,_RNCNvXs15_NtNtCs5DPfXlAluY4_8hayabusa10detections7configsNtB8_12OutputOptionNtNtCsgalAmTtUVqh_12clap_builder6derive14FromArgMatches20from_arg_matches_muts8_0Bc_
FNDA:0,_RNCNvXs15_NtNtCs5DPfXlAluY4_8hayabusa10detections7configsNtB8_12OutputOptionNtNtCsgalAmTtUVqh_12clap_builder6derive14FromArgMatches20from_arg_matches_muts9_0Bc_
FNDA:0,_RNCNvXs15_NtNtCs5DPfXlAluY4_8hayabusa10detections7configsNtB8_12OutputOptionNtNtCsgalAmTtUVqh_12clap_builder6derive14FromArgMatches20from_arg_matches_mutsa_0Bc_
FNDA:0,_RNCNvXs15_NtNtCs5DPfXlAluY4_8hayabusa10detections7configsNtB8_12OutputOptionNtNtCsgalAmTtUVqh_12clap_builder6derive14FromArgMatches20from_arg_matches_mutsb_0Bc_
FNDA:0,_RNCNvXs15_NtNtCs5DPfXlAluY4_8hayabusa10detections7configsNtB8_12OutputOptionNtNtCsgalAmTtUVqh_12clap_builder6derive14FromArgMatches20from_arg_matches_mutsc_0Bc_
FNDA:0,_RNCNvXs15_NtNtCs5DPfXlAluY4_8hayabusa10detections7configsNtB8_12OutputOptionNtNtCsgalAmTtUVqh_12clap_builder6derive14FromArgMatches20from_arg_matches_mutsd_0Bc_
FNDA:0,_RNCNvXs15_NtNtCs5DPfXlAluY4_8hayabusa10detections7configsNtB8_12OutputOptionNtNtCsgalAmTtUVqh_12clap_builder6derive14FromArgMatches20from_arg_matches_mutse_0Bc_
FNDA:0,_RNCNvXs15_NtNtCs5DPfXlAluY4_8hayabusa10detections7configsNtB8_12OutputOptionNtNtCsgalAmTtUVqh_12clap_builder6derive14FromArgMatches20from_arg_matches_mutsf_0Bc_
FNDA:0,_RNCNvXs15_NtNtCs5DPfXlAluY4_8hayabusa10detections7configsNtB8_12OutputOptionNtNtCsgalAmTtUVqh_12clap_builder6derive14FromArgMatches20from_arg_matches_mutsg_0Bc_
FNDA:0,_RNCNvXs15_NtNtCs5DPfXlAluY4_8hayabusa10detections7configsNtB8_12OutputOptionNtNtCsgalAmTtUVqh_12clap_builder6derive14FromArgMatches20from_arg_matches_mutsh_0Bc_
FNDA:0,_RNCNvXs15_NtNtCs5DPfXlAluY4_8hayabusa10detections7configsNtB8_12OutputOptionNtNtCsgalAmTtUVqh_12clap_builder6derive14FromArgMatches20from_arg_matches_mutsi_0Bc_
FNDA:0,_RNCNvXs15_NtNtCs5DPfXlAluY4_8hayabusa10detections7configsNtB8_12OutputOptionNtNtCsgalAmTtUVqh_12clap_builder6derive14FromArgMatches20from_arg_matches_mutsj_0Bc_
FNDA:0,_RNCNvXs15_NtNtCs5DPfXlAluY4_8hayabusa10detections7configsNtB8_12OutputOptionNtNtCsgalAmTtUVqh_12clap_builder6derive14FromArgMatches20from_arg_matches_mutsk_0Bc_
FNDA:0,_RNCNvXs15_NtNtCs5DPfXlAluY4_8hayabusa10detections7configsNtB8_12OutputOptionNtNtCsgalAmTtUVqh_12clap_builder6derive14FromArgMatches20from_arg_matches_mutsl_0Bc_
FNDA:0,_RNCNvXs15_NtNtCs5DPfXlAluY4_8hayabusa10detections7configsNtB8_12OutputOptionNtNtCsgalAmTtUVqh_12clap_builder6derive14FromArgMatches20from_arg_matches_mutsm_0Bc_
FNDA:0,_RNCNvXs15_NtNtCs5DPfXlAluY4_8hayabusa10detections7configsNtB8_12OutputOptionNtNtCsgalAmTtUVqh_12clap_builder6derive14FromArgMatches20from_arg_matches_mutsn_0Bc_
FNDA:0,_RNCNvXs15_NtNtCs5DPfXlAluY4_8hayabusa10detections7configsNtB8_12OutputOptionNtNtCsgalAmTtUVqh_12clap_builder6derive14FromArgMatches20from_arg_matches_mutso_0Bc_
FNDA:0,_RNCNvXs15_NtNtCs5DPfXlAluY4_8hayabusa10detections7configsNtB8_12OutputOptionNtNtCsgalAmTtUVqh_12clap_builder6derive14FromArgMatches20from_arg_matches_mutsp_0Bc_
FNDA:0,_RNCNvXs15_NtNtCs5DPfXlAluY4_8hayabusa10detections7configsNtB8_12OutputOptionNtNtCsgalAmTtUVqh_12clap_builder6derive14FromArgMatches20from_arg_matches_mutsq_0Bc_
FNDA:0,_RNCNvXs15_NtNtCs5DPfXlAluY4_8hayabusa10detections7configsNtB8_12OutputOptionNtNtCsgalAmTtUVqh_12clap_builder6derive14FromArgMatches20from_arg_matches_mutsr_0Bc_
FNDA:0,_RNCNvXs15_NtNtCs5DPfXlAluY4_8hayabusa10detections7configsNtB8_12OutputOptionNtNtCsgalAmTtUVqh_12clap_builder6derive14FromArgMatches20from_arg_matches_mutss_0Bc_
FNDA:0,_RNCNvXs15_NtNtCs5DPfXlAluY4_8hayabusa10detections7configsNtB8_12OutputOptionNtNtCsgalAmTtUVqh_12clap_builder6derive14FromArgMatches27update_from_arg_matches_mut0Bc_
FNDA:0,_RNCNvXs15_NtNtCs5DPfXlAluY4_8hayabusa10detections7configsNtB8_12OutputOptionNtNtCsgalAmTtUVqh_12clap_builder6derive14FromArgMatches27update_from_arg_matches_muts_0Bc_
FNDA:0,_RNCNvXs15_NtNtCs5DPfXlAluY4_8hayabusa10detections7configsNtB8_12OutputOptionNtNtCsgalAmTtUVqh_12clap_builder6derive14FromArgMatches27update_from_arg_matches_muts0_0Bc_
FNDA:0,_RNCNvXs15_NtNtCs5DPfXlAluY4_8hayabusa10detections7configsNtB8_12OutputOptionNtNtCsgalAmTtUVqh_12clap_builder6derive14FromArgMatches27update_from_arg_matches_muts1_0Bc_
FNDA:0,_RNCNvXs15_NtNtCs5DPfXlAluY4_8hayabusa10detections7configsNtB8_12OutputOptionNtNtCsgalAmTtUVqh_12clap_builder6derive14FromArgMatches27update_from_arg_matches_muts2_0Bc_
FNDA:0,_RNCNvXs15_NtNtCs5DPfXlAluY4_8hayabusa10detections7configsNtB8_12OutputOptionNtNtCsgalAmTtUVqh_12clap_builder6derive14FromArgMatches27update_from_arg_matches_muts3_0Bc_
FNDA:0,_RNCNvXs15_NtNtCs5DPfXlAluY4_8hayabusa10detections7configsNtB8_12OutputOptionNtNtCsgalAmTtUVqh_12clap_builder6derive14FromArgMatches27update_from_arg_matches_muts4_0Bc_
FNDA:0,_RNCNvXs15_NtNtCs5DPfXlAluY4_8hayabusa10detections7configsNtB8_12OutputOptionNtNtCsgalAmTtUVqh_12clap_builder6derive14FromArgMatches27update_from_arg_matches_muts5_0Bc_
FNDA:0,_RNCNvXs15_NtNtCs5DPfXlAluY4_8hayabusa10detections7configsNtB8_12OutputOptionNtNtCsgalAmTtUVqh_12clap_builder6derive14FromArgMatches27update_from_arg_matches_muts6_0Bc_
FNDA:0,_RNCNvXs15_NtNtCs5DPfXlAluY4_8hayabusa10detections7configsNtB8_12OutputOptionNtNtCsgalAmTtUVqh_12clap_builder6derive14FromArgMatches27update_from_arg_matches_muts7_0Bc_
FNDA:0,_RNCNvXs15_NtNtCs5DPfXlAluY4_8hayabusa10detections7configsNtB8_12OutputOptionNtNtCsgalAmTtUVqh_12clap_builder6derive14FromArgMatches27update_from_arg_matches_muts8_0Bc_
FNDA:0,_RNCNvXs15_NtNtCs5DPfXlAluY4_8hayabusa10detections7configsNtB8_12OutputOptionNtNtCsgalAmTtUVqh_12clap_builder6derive14FromArgMatches27update_from_arg_matches_muts9_0Bc_
FNDA:0,_RNCNvXs15_NtNtCs5DPfXlAluY4_8hayabusa10detections7configsNtB8_12OutputOptionNtNtCsgalAmTtUVqh_12clap_builder6derive14FromArgMatches27update_from_arg_matches_mutsa_0Bc_
FNDA:0,_RNCNvXs15_NtNtCs5DPfXlAluY4_8hayabusa10detections7configsNtB8_12OutputOptionNtNtCsgalAmTtUVqh_12clap_builder6derive14FromArgMatches27update_from_arg_matches_mutsb_0Bc_
FNDA:0,_RNCNvXs15_NtNtCs5DPfXlAluY4_8hayabusa10detections7configsNtB8_12OutputOptionNtNtCsgalAmTtUVqh_12clap_builder6derive14FromArgMatches27update_from_arg_matches_mutsc_0Bc_
FNDA:0,_RNCNvXs15_NtNtCs5DPfXlAluY4_8hayabusa10detections7configsNtB8_12OutputOptionNtNtCsgalAmTtUVqh_12clap_builder6derive14FromArgMatches27update_from_arg_matches_mutsd_0Bc_
FNDA:0,_RNCNvXs15_NtNtCs5DPfXlAluY4_8hayabusa10detections7configsNtB8_12OutputOptionNtNtCsgalAmTtUVqh_12clap_builder6derive14FromArgMatches27update_from_arg_matches_mutse_0Bc_
FNDA:0,_RNCNvXs15_NtNtCs5DPfXlAluY4_8hayabusa10detections7configsNtB8_12OutputOptionNtNtCsgalAmTtUVqh_12clap_builder6derive14FromArgMatches27update_from_arg_matches_mutsf_0Bc_
FNDA:0,_RNCNvXs15_NtNtCs5DPfXlAluY4_8hayabusa10detections7configsNtB8_12OutputOptionNtNtCsgalAmTtUVqh_12clap_builder6derive14FromArgMatches27update_from_arg_matches_mutsg_0Bc_
FNDA:0,_RNCNvXs15_NtNtCs5DPfXlAluY4_8hayabusa10detections7configsNtB8_12OutputOptionNtNtCsgalAmTtUVqh_12clap_builder6derive14FromArgMatches27update_from_arg_matches_mutsh_0Bc_
FNDA:0,_RNCNvXs15_NtNtCs5DPfXlAluY4_8hayabusa10detections7configsNtB8_12OutputOptionNtNtCsgalAmTtUVqh_12clap_builder6derive14FromArgMatches27update_from_arg_matches_mutsi_0Bc_
FNDA:0,_RNCNvXs15_NtNtCs5DPfXlAluY4_8hayabusa10detections7configsNtB8_12OutputOptionNtNtCsgalAmTtUVqh_12clap_builder6derive14FromArgMatches27update_from_arg_matches_mutsj_0Bc_
FNDA:0,_RNCNvXs15_NtNtCs5DPfXlAluY4_8hayabusa10detections7configsNtB8_12OutputOptionNtNtCsgalAmTtUVqh_12clap_builder6derive14FromArgMatches27update_from_arg_matches_mutsk_0Bc_
FNDA:0,_RNCNvXs15_NtNtCs5DPfXlAluY4_8hayabusa10detections7configsNtB8_12OutputOptionNtNtCsgalAmTtUVqh_12clap_builder6derive14FromArgMatches27update_from_arg_matches_mutsl_0Bc_
FNDA:0,_RNCNvXs15_NtNtCs5DPfXlAluY4_8hayabusa10detections7configsNtB8_12OutputOptionNtNtCsgalAmTtUVqh_12clap_builder6derive14FromArgMatches27update_from_arg_matches_mutsm_0Bc_
FNDA:0,_RNCNvXs15_NtNtCs5DPfXlAluY4_8hayabusa10detections7configsNtB8_12OutputOptionNtNtCsgalAmTtUVqh_12clap_builder6derive14FromArgMatches27update_from_arg_matches_mutsn_0Bc_
FNDA:0,_RNCNvXs15_NtNtCs5DPfXlAluY4_8hayabusa10detections7configsNtB8_12OutputOptionNtNtCsgalAmTtUVqh_12clap_builder6derive14FromArgMatches27update_from_arg_matches_mutso_0Bc_
FNDA:0,_RNCNvXs15_NtNtCs5DPfXlAluY4_8hayabusa10detections7configsNtB8_12OutputOptionNtNtCsgalAmTtUVqh_12clap_builder6derive14FromArgMatches27update_from_arg_matches_mutsp_0Bc_
FNDA:0,_RNCNvXs15_NtNtCs5DPfXlAluY4_8hayabusa10detections7configsNtB8_12OutputOptionNtNtCsgalAmTtUVqh_12clap_builder6derive14FromArgMatches27update_from_arg_matches_mutsq_0Bc_
FNDA:0,_RNCNvXs15_NtNtCs5DPfXlAluY4_8hayabusa10detections7configsNtB8_12OutputOptionNtNtCsgalAmTtUVqh_12clap_builder6derive14FromArgMatches27update_from_arg_matches_mutsr_0Bc_
FNDA:0,_RNCNvXs15_NtNtCs5DPfXlAluY4_8hayabusa10detections7configsNtB8_12OutputOptionNtNtCsgalAmTtUVqh_12clap_builder6derive14FromArgMatches27update_from_arg_matches_mutss_0Bc_
FNDA:0,_RNCNvXs1a_NtNtCs5DPfXlAluY4_8hayabusa10detections7configsNtB8_13CommonOptionsNtNtCsgalAmTtUVqh_12clap_builder6derive14FromArgMatches20from_arg_matches_mut0Bc_
FNDA:0,_RNCNvXs1a_NtNtCs5DPfXlAluY4_8hayabusa10detections7configsNtB8_13CommonOptionsNtNtCsgalAmTtUVqh_12clap_builder6derive14FromArgMatches20from_arg_matches_muts_0Bc_
FNDA:0,_RNCNvXs1a_NtNtCs5DPfXlAluY4_8hayabusa10detections7configsNtB8_13CommonOptionsNtNtCsgalAmTtUVqh_12clap_builder6derive14FromArgMatches27update_from_arg_matches_mut0Bc_
FNDA:0,_RNCNvXs1a_NtNtCs5DPfXlAluY4_8hayabusa10detections7configsNtB8_13CommonOptionsNtNtCsgalAmTtUVqh_12clap_builder6derive14FromArgMatches27update_from_arg_matches_muts_0Bc_
FNDA:0,_RNCNvXs1e_NtNtCs5DPfXlAluY4_8hayabusa10detections7configsNtB8_11InputOptionNtNtCsgalAmTtUVqh_12clap_builder6derive14FromArgMatches20from_arg_matches_mut0Bc_
FNDA:0,_RNCNvXs1e_NtNtCs5DPfXlAluY4_8hayabusa10detections7configsNtB8_11InputOptionNtNtCsgalAmTtUVqh_12clap_builder6derive14FromArgMatches20from_arg_matches_muts_0Bc_
FNDA:0,_RNCNvXs1e_NtNtCs5DPfXlAluY4_8hayabusa10detections7configsNtB8_11InputOptionNtNtCsgalAmTtUVqh_12clap_builder6derive14FromArgMatches27update_from_arg_matches_mut0Bc_
FNDA:0,_RNCNvXs1e_NtNtCs5DPfXlAluY4_8hayabusa10detections7configsNtB8_11InputOptionNtNtCsgalAmTtUVqh_12clap_builder6derive14FromArgMatches27update_from_arg_matches_muts_0Bc_
FNDA:0,_RNCNvXs1i_NtNtCs5DPfXlAluY4_8hayabusa10detections7configsNtB8_15CsvOutputOptionNtNtCsgalAmTtUVqh_12clap_builder6derive14FromArgMatches20from_arg_matches_mut0Bc_
FNDA:0,_RNCNvXs1i_NtNtCs5DPfXlAluY4_8hayabusa10detections7configsNtB8_15CsvOutputOptionNtNtCsgalAmTtUVqh_12clap_builder6derive14FromArgMatches27update_from_arg_matches_mut0Bc_
FNDA:0,_RNCNvXs1m_NtNtCs5DPfXlAluY4_8hayabusa10detections7configsNtB8_16JSONOutputOptionNtNtCsgalAmTtUVqh_12clap_builder6derive14FromArgMatches20from_arg_matches_mut0Bc_
FNDA:0,_RNCNvXs1m_NtNtCs5DPfXlAluY4_8hayabusa10detections7configsNtB8_16JSONOutputOptionNtNtCsgalAmTtUVqh_12clap_builder6derive14FromArgMatches27update_from_arg_matches_mut0Bc_
FNDA:0,_RNCNvXs1q_NtNtCs5DPfXlAluY4_8hayabusa10detections7configsNtB8_21ComputerMetricsOptionNtNtCsgalAmTtUVqh_12clap_builder6derive14FromArgMatches20from_arg_matches_mut0Bc_
FNDA:0,_RNCNvXs1q_NtNtCs5DPfXlAluY4_8hayabusa10detections7configsNtB8_21ComputerMetricsOptionNtNtCsgalAmTtUVqh_12clap_builder6derive14FromArgMatches20from_arg_matches_muts_0Bc_
FNDA:0,_RNCNvXs1q_NtNtCs5DPfXlAluY4_8hayabusa10detections7configsNtB8_21ComputerMetricsOptionNtNtCsgalAmTtUVqh_12clap_builder6derive14FromArgMatches20from_arg_matches_muts0_0Bc_
FNDA:0,_RNCNvXs1q_NtNtCs5DPfXlAluY4_8hayabusa10detections7configsNtB8_21ComputerMetricsOptionNtNtCsgalAmTtUVqh_12clap_builder6derive14FromArgMatches20from_arg_matches_muts1_0Bc_
FNDA:0,_RNCNvXs1q_NtNtCs5DPfXlAluY4_8hayabusa10detections7configsNtB8_21ComputerMetricsOptionNtNtCsgalAmTtUVqh_12clap_builder6derive14FromArgMatches20from_arg_matches_muts2_0Bc_
FNDA:0,_RNCNvXs1q_NtNtCs5DPfXlAluY4_8hayabusa10detections7configsNtB8_21ComputerMetricsOptionNtNtCsgalAmTtUVqh_12clap_builder6derive14FromArgMatches20from_arg_matches_muts3_0Bc_
FNDA:0,_RNCNvXs1q_NtNtCs5DPfXlAluY4_8hayabusa10detections7configsNtB8_21ComputerMetricsOptionNtNtCsgalAmTtUVqh_12clap_builder6derive14FromArgMatches27update_from_arg_matches_mut0Bc_
FNDA:0,_RNCNvXs1q_NtNtCs5DPfXlAluY4_8hayabusa10detections7configsNtB8_21ComputerMetricsOptionNtNtCsgalAmTtUVqh_12clap_builder6derive14FromArgMatches27update_from_arg_matches_muts_0Bc_
FNDA:0,_RNCNvXs1q_NtNtCs5DPfXlAluY4_8hayabusa10detections7configsNtB8_21ComputerMetricsOptionNtNtCsgalAmTtUVqh_12clap_builder6derive14FromArgMatches27update_from_arg_matches_muts0_0Bc_
FNDA:0,_RNCNvXs1q_NtNtCs5DPfXlAluY4_8hayabusa10detections7configsNtB8_21ComputerMetricsOptionNtNtCsgalAmTtUVqh_12clap_builder6derive14FromArgMatches27update_from_arg_matches_muts1_0Bc_
FNDA:0,_RNCNvXs1q_NtNtCs5DPfXlAluY4_8hayabusa10detections7configsNtB8_21ComputerMetricsOptionNtNtCsgalAmTtUVqh_12clap_builder6derive14FromArgMatches27update_from_arg_matches_muts2_0Bc_
FNDA:0,_RNCNvXs1q_NtNtCs5DPfXlAluY4_8hayabusa10detections7configsNtB8_21ComputerMetricsOptionNtNtCsgalAmTtUVqh_12clap_builder6derive14FromArgMatches27update_from_arg_matches_muts3_0Bc_
FNDA:0,_RNCNvXs1w_NtNtCs5DPfXlAluY4_8hayabusa10detections7configsNtB8_6ConfigNtNtCsgalAmTtUVqh_12clap_builder6derive14FromArgMatches20from_arg_matches_mut0Bc_
FNDA:0,_RNCNvXs1w_NtNtCs5DPfXlAluY4_8hayabusa10detections7configsNtB8_6ConfigNtNtCsgalAmTtUVqh_12clap_builder6derive14FromArgMatches27update_from_arg_matches_mut0Bc_
FNDA:1,_RNvNtNtNtCsNhz5SapXcJ_8hayabusa10detections7configs5testss_24target_event_time_filter
FNDA:1,_RNvNtNtNtCsNhz5SapXcJ_8hayabusa10detections7configs5testss_42target_event_time_filter_containes_on_time
FNDA:1,_RNvNtNtNtCsNhz5SapXcJ_8hayabusa10detections7configs5testss_26test_get_target_extensions
FNDA:1,_RNvNtNtNtCsNhz5SapXcJ_8hayabusa10detections7configs5testss_20no_target_extensions
FNDA:1,_RNvNtNtNtCsNhz5SapXcJ_8hayabusa10detections7configs5testss_36test_create_control_char_replace_map
FNDA:32,_RNCNvNtNtNtCsNhz5SapXcJ_8hayabusa10detections7configs5testss_36test_create_control_char_replace_map0B9_
FNDA:1,_RNvNtNtNtCsNhz5SapXcJ_8hayabusa10detections7configs5testss_24test_timeline_offset_csv
FNDA:1,_RNvNtNtNtCsNhz5SapXcJ_8hayabusa10detections7configs5testss_25test_timeline_offset_json
FNDA:1,_RNvNtNtNtCsNhz5SapXcJ_8hayabusa10detections7configs5testss_27test_timeline_offset_search
FNDA:1,_RNvNtNtNtCsNhz5SapXcJ_8hayabusa10detections7configs5testss_32test_timeline_offset_eid_metrics
FNDA:1,_RNvNtNtNtCsNhz5SapXcJ_8hayabusa10detections7configs5testss_34test_timeline_offset_logon_summary
FNDA:1,_RNvNtNtNtCsNhz5SapXcJ_8hayabusa10detections7configs5testss_26test_timeline_offset_pivot
FNDA:0,_RNvXNtNtCsNhz5SapXcJ_8hayabusa10detections7configsNtB2_12ConfigReaderNtNtCshEwRaVhoEM3_4core7default7Default7default
FNDA:0,_RNvMs0_NtNtCsNhz5SapXcJ_8hayabusa10detections7configsNtB5_6Action15get_action_name
FNDA:0,_RNCNvXsz_NtNtCsNhz5SapXcJ_8hayabusa10detections7configsNtB7_18DetectCommonOptionNtNtCsgalAmTtUVqh_12clap_builder6derive14FromArgMatches20from_arg_matches_mut0Bb_
FNDA:0,_RNCNvXsz_NtNtCsNhz5SapXcJ_8hayabusa10detections7configsNtB7_18DetectCommonOptionNtNtCsgalAmTtUVqh_12clap_builder6derive14FromArgMatches20from_arg_matches_muts_0Bb_
FNDA:0,_RNCNvXsz_NtNtCsNhz5SapXcJ_8hayabusa10detections7configsNtB7_18DetectCommonOptionNtNtCsgalAmTtUVqh_12clap_builder6derive14FromArgMatches20from_arg_matches_muts0_0Bb_
FNDA:0,_RNCNvXsz_NtNtCsNhz5SapXcJ_8hayabusa10detections7configsNtB7_18DetectCommonOptionNtNtCsgalAmTtUVqh_12clap_builder6derive14FromArgMatches20from_arg_matches_muts1_0Bb_
FNDA:0,_RNCNvXsz_NtNtCsNhz5SapXcJ_8hayabusa10detections7configsNtB7_18DetectCommonOptionNtNtCsgalAmTtUVqh_12clap_builder6derive14FromArgMatches20from_arg_matches_muts2_0Bb_
FNDA:0,_RNCNvXsz_NtNtCsNhz5SapXcJ_8hayabusa10detections7configsNtB7_18DetectCommonOptionNtNtCsgalAmTtUVqh_12clap_builder6derive14FromArgMatches20from_arg_matches_muts3_0Bb_
FNDA:0,_RNCNvXsz_NtNtCsNhz5SapXcJ_8hayabusa10detections7configsNtB7_18DetectCommonOptionNtNtCsgalAmTtUVqh_12clap_builder6derive14FromArgMatches20from_arg_matches_muts4_0Bb_
FNDA:0,_RNCNvXsz_NtNtCsNhz5SapXcJ_8hayabusa10detections7configsNtB7_18DetectCommonOptionNtNtCsgalAmTtUVqh_12clap_builder6derive14FromArgMatches27update_from_arg_matches_mut0Bb_
FNDA:0,_RNCNvXsz_NtNtCsNhz5SapXcJ_8hayabusa10detections7configsNtB7_18DetectCommonOptionNtNtCsgalAmTtUVqh_12clap_builder6derive14FromArgMatches27update_from_arg_matches_muts_0Bb_
FNDA:0,_RNCNvXsz_NtNtCsNhz5SapXcJ_8hayabusa10detections7configsNtB7_18DetectCommonOptionNtNtCsgalAmTtUVqh_12clap_builder6derive14FromArgMatches27update_from_arg_matches_muts0_0Bb_
FNDA:0,_RNCNvXsz_NtNtCsNhz5SapXcJ_8hayabusa10detections7configsNtB7_18DetectCommonOptionNtNtCsgalAmTtUVqh_12clap_builder6derive14FromArgMatches27update_from_arg_matches_muts1_0Bb_
FNDA:0,_RNCNvXsz_NtNtCsNhz5SapXcJ_8hayabusa10detections7configsNtB7_18DetectCommonOptionNtNtCsgalAmTtUVqh_12clap_builder6derive14FromArgMatches27update_from_arg_matches_muts2_0Bb_
FNDA:0,_RNCNvXsz_NtNtCsNhz5SapXcJ_8hayabusa10detections7configsNtB7_18DetectCommonOptionNtNtCsgalAmTtUVqh_12clap_builder6derive14FromArgMatches27update_from_arg_matches_muts3_0Bb_
FNDA:0,_RNCNvXsz_NtNtCsNhz5SapXcJ_8hayabusa10detections7configsNtB7_18DetectCommonOptionNtNtCsgalAmTtUVqh_12clap_builder6derive14FromArgMatches27update_from_arg_matches_muts4_0Bb_
FNDA:0,_RNCNvXsH_NtNtCsNhz5SapXcJ_8hayabusa10detections7configsNtB7_12SearchOptionNtNtCsgalAmTtUVqh_12clap_builder6derive14FromArgMatches20from_arg_matches_mut0Bb_
FNDA:0,_RNCNvXsH_NtNtCsNhz5SapXcJ_8hayabusa10detections7configsNtB7_12SearchOptionNtNtCsgalAmTtUVqh_12clap_builder6derive14FromArgMatches20from_arg_matches_muts_0Bb_
FNDA:0,_RNCNvXsH_NtNtCsNhz5SapXcJ_8hayabusa10detections7configsNtB7_12SearchOptionNtNtCsgalAmTtUVqh_12clap_builder6derive14FromArgMatches20from_arg_matches_muts0_0Bb_
FNDA:0,_RNCNvXsH_NtNtCsNhz5SapXcJ_8hayabusa10detections7configsNtB7_12SearchOptionNtNtCsgalAmTtUVqh_12clap_builder6derive14FromArgMatches20from_arg_matches_muts1_0Bb_
FNDA:0,_RNCNvXsH_NtNtCsNhz5SapXcJ_8hayabusa10detections7configsNtB7_12SearchOptionNtNtCsgalAmTtUVqh_12clap_builder6derive14FromArgMatches20from_arg_matches_muts2_0Bb_
FNDA:0,_RNCNvXsH_NtNtCsNhz5SapXcJ_8hayabusa10detections7configsNtB7_12SearchOptionNtNtCsgalAmTtUVqh_12clap_builder6derive14FromArgMatches20from_arg_matches_muts3_0Bb_
FNDA:0,_RNCNvXsH_NtNtCsNhz5SapXcJ_8hayabusa10detections7configsNtB7_12SearchOptionNtNtCsgalAmTtUVqh_12clap_builder6derive14FromArgMatches20from_arg_matches_muts4_0Bb_
FNDA:0,_RNCNvXsH_NtNtCsNhz5SapXcJ_8hayabusa10detections7configsNtB7_12SearchOptionNtNtCsgalAmTtUVqh_12clap_builder6derive14FromArgMatches20from_arg_matches_muts5_0Bb_
FNDA:0,_RNCNvXsH_NtNtCsNhz5SapXcJ_8hayabusa10detections7configsNtB7_12SearchOptionNtNtCsgalAmTtUVqh_12clap_builder6derive14FromArgMatches20from_arg_matches_muts6_0Bb_
FNDA:0,_RNCNvXsH_NtNtCsNhz5SapXcJ_8hayabusa10detections7configsNtB7_12SearchOptionNtNtCsgalAmTtUVqh_12clap_builder6derive14FromArgMatches20from_arg_matches_muts7_0Bb_
FNDA:0,_RNCNvXsH_NtNtCsNhz5SapXcJ_8hayabusa10detections7configsNtB7_12SearchOptionNtNtCsgalAmTtUVqh_12clap_builder6derive14FromArgMatches20from_arg_matches_muts8_0Bb_
FNDA:0,_RNCNvXsH_NtNtCsNhz5SapXcJ_8hayabusa10detections7configsNtB7_12SearchOptionNtNtCsgalAmTtUVqh_12clap_builder6derive14FromArgMatches20from_arg_matches_muts9_0Bb_
FNDA:0,_RNCNvXsH_NtNtCsNhz5SapXcJ_8hayabusa10detections7configsNtB7_12SearchOptionNtNtCsgalAmTtUVqh_12clap_builder6derive14FromArgMatches20from_arg_matches_mutsa_0Bb_
FNDA:0,_RNCNvXsH_NtNtCsNhz5SapXcJ_8hayabusa10detections7configsNtB7_12SearchOptionNtNtCsgalAmTtUVqh_12clap_builder6derive14FromArgMatches20from_arg_matches_mutsb_0Bb_
FNDA:0,_RNCNvXsH_NtNtCsNhz5SapXcJ_8hayabusa10detections7configsNtB7_12SearchOptionNtNtCsgalAmTtUVqh_12clap_builder6derive14FromArgMatches20from_arg_matches_mutsc_0Bb_
FNDA:0,_RNCNvXsH_NtNtCsNhz5SapXcJ_8hayabusa10detections7configsNtB7_12SearchOptionNtNtCsgalAmTtUVqh_12clap_builder6derive14FromArgMatches20from_arg_matches_mutsd_0Bb_
FNDA:0,_RNCNvXsH_NtNtCsNhz5SapXcJ_8hayabusa10detections7configsNtB7_12SearchOptionNtNtCsgalAmTtUVqh_12clap_builder6derive14FromArgMatches20from_arg_matches_mutse_0Bb_
FNDA:0,_RNCNvXsH_NtNtCsNhz5SapXcJ_8hayabusa10detections7configsNtB7_12SearchOptionNtNtCsgalAmTtUVqh_12clap_builder6derive14FromArgMatches20from_arg_matches_mutsf_0Bb_
FNDA:0,_RNCNvXsH_NtNtCsNhz5SapXcJ_8hayabusa10detections7configsNtB7_12SearchOptionNtNtCsgalAmTtUVqh_12clap_builder6derive14FromArgMatches20from_arg_matches_mutsg_0Bb_
FNDA:0,_RNCNvXsH_NtNtCsNhz5SapXcJ_8hayabusa10detections7configsNtB7_12SearchOptionNtNtCsgalAmTtUVqh_12clap_builder6derive14FromArgMatches27update_from_arg_matches_mut0Bb_
FNDA:0,_RNCNvXsH_NtNtCsNhz5SapXcJ_8hayabusa10detections7configsNtB7_12SearchOptionNtNtCsgalAmTtUVqh_12clap_builder6derive14FromArgMatches27update_from_arg_matches_muts_0Bb_
FNDA:0,_RNCNvXsH_NtNtCsNhz5SapXcJ_8hayabusa10detections7configsNtB7_12SearchOptionNtNtCsgalAmTtUVqh_12clap_builder6derive14FromArgMatches27update_from_arg_matches_muts0_0Bb_
FNDA:0,_RNCNvXsH_NtNtCsNhz5SapXcJ_8hayabusa10detections7configsNtB7_12SearchOptionNtNtCsgalAmTtUVqh_12clap_builder6derive14FromArgMatches27update_from_arg_matches_muts1_0Bb_
FNDA:0,_RNCNvXsH_NtNtCsNhz5SapXcJ_8hayabusa10detections7configsNtB7_12SearchOptionNtNtCsgalAmTtUVqh_12clap_builder6derive14FromArgMatches27update_from_arg_matches_muts2_0Bb_
FNDA:0,_RNCNvXsH_NtNtCsNhz5SapXcJ_8hayabusa10detections7configsNtB7_12SearchOptionNtNtCsgalAmTtUVqh_12clap_builder6derive14FromArgMatches27update_from_arg_matches_muts3_0Bb_
FNDA:0,_RNCNvXsH_NtNtCsNhz5SapXcJ_8hayabusa10detections7configsNtB7_12SearchOptionNtNtCsgalAmTtUVqh_12clap_builder6derive14FromArgMatches27update_from_arg_matches_muts4_0Bb_
FNDA:0,_RNCNvXsH_NtNtCsNhz5SapXcJ_8hayabusa10detections7configsNtB7_12SearchOptionNtNtCsgalAmTtUVqh_12clap_builder6derive14FromArgMatches27update_from_arg_matches_muts5_0Bb_
FNDA:0,_RNCNvXsH_NtNtCsNhz5SapXcJ_8hayabusa10detections7configsNtB7_12SearchOptionNtNtCsgalAmTtUVqh_12clap_builder6derive14FromArgMatches27update_from_arg_matches_muts6_0Bb_
FNDA:0,_RNCNvXsH_NtNtCsNhz5SapXcJ_8hayabusa10detections7configsNtB7_12SearchOptionNtNtCsgalAmTtUVqh_12clap_builder6derive14FromArgMatches27update_from_arg_matches_muts7_0Bb_
FNDA:0,_RNCNvXsH_NtNtCsNhz5SapXcJ_8hayabusa10detections7configsNtB7_12SearchOptionNtNtCsgalAmTtUVqh_12clap_builder6derive14FromArgMatches27update_from_arg_matches_muts8_0Bb_
FNDA:0,_RNCNvXsH_NtNtCsNhz5SapXcJ_8hayabusa10detections7configsNtB7_12SearchOptionNtNtCsgalAmTtUVqh_12clap_builder6derive14FromArgMatches27update_from_arg_matches_muts9_0Bb_
FNDA:0,_RNCNvXsH_NtNtCsNhz5SapXcJ_8hayabusa10detections7configsNtB7_12SearchOptionNtNtCsgalAmTtUVqh_12clap_builder6derive14FromArgMatches27update_from_arg_matches_mutsa_0Bb_
FNDA:0,_RNCNvXsH_NtNtCsNhz5SapXcJ_8hayabusa10detections7configsNtB7_12SearchOptionNtNtCsgalAmTtUVqh_12clap_builder6derive14FromArgMatches27update_from_arg_matches_mutsb_0Bb_
FNDA:0,_RNCNvXsH_NtNtCsNhz5SapXcJ_8hayabusa10detections7configsNtB7_12SearchOptionNtNtCsgalAmTtUVqh_12clap_builder6derive14FromArgMatches27update_from_arg_matches_mutsc_0Bb_
FNDA:0,_RNCNvXsH_NtNtCsNhz5SapXcJ_8hayabusa10detections7configsNtB7_12SearchOptionNtNtCsgalAmTtUVqh_12clap_builder6derive14FromArgMatches27update_from_arg_matches_mutsd_0Bb_
FNDA:0,_RNCNvXsH_NtNtCsNhz5SapXcJ_8hayabusa10detections7configsNtB7_12SearchOptionNtNtCsgalAmTtUVqh_12clap_builder6derive14FromArgMatches27update_from_arg_matches_mutse_0Bb_
FNDA:0,_RNCNvXsH_NtNtCsNhz5SapXcJ_8hayabusa10detections7configsNtB7_12SearchOptionNtNtCsgalAmTtUVqh_12clap_builder6derive14FromArgMatches27update_from_arg_matches_mutsf_0Bb_
FNDA:0,_RNCNvXsH_NtNtCsNhz5SapXcJ_8hayabusa10detections7configsNtB7_12SearchOptionNtNtCsgalAmTtUVqh_12clap_builder6derive14FromArgMatches27update_from_arg_matches_mutsg_0Bb_
FNDA:0,_RNCNvXsL_NtNtCsNhz5SapXcJ_8hayabusa10detections7configsNtB7_12UpdateOptionNtNtCsgalAmTtUVqh_12clap_builder6derive14FromArgMatches20from_arg_matches_mut0Bb_
FNDA:0,_RNCNvXsL_NtNtCsNhz5SapXcJ_8hayabusa10detections7configsNtB7_12UpdateOptionNtNtCsgalAmTtUVqh_12clap_builder6derive14FromArgMatches27update_from_arg_matches_mut0Bb_
FNDA:0,_RNCNvXsP_NtNtCsNhz5SapXcJ_8hayabusa10detections7configsNtB7_17LevelTuningOptionNtNtCsgalAmTtUVqh_12clap_builder6derive14FromArgMatches20from_arg_matches_mut0Bb_
FNDA:0,_RNCNvXsP_NtNtCsNhz5SapXcJ_8hayabusa10detections7configsNtB7_17LevelTuningOptionNtNtCsgalAmTtUVqh_12clap_builder6derive14FromArgMatches27update_from_arg_matches_mut0Bb_
FNDA:0,_RNCNvXsT_NtNtCsNhz5SapXcJ_8hayabusa10detections7configsNtB7_16EidMetricsOptionNtNtCsgalAmTtUVqh_12clap_builder6derive14FromArgMatches20from_arg_matches_mut0Bb_
FNDA:0,_RNCNvXsT_NtNtCsNhz5SapXcJ_8hayabusa10detections7configsNtB7_16EidMetricsOptionNtNtCsgalAmTtUVqh_12clap_builder6derive14FromArgMatches20from_arg_matches_muts_0Bb_
FNDA:0,_RNCNvXsT_NtNtCsNhz5SapXcJ_8hayabusa10detections7configsNtB7_16EidMetricsOptionNtNtCsgalAmTtUVqh_12clap_builder6derive14FromArgMatches20from_arg_matches_muts0_0Bb_
FNDA:0,_RNCNvXsT_NtNtCsNhz5SapXcJ_8hayabusa10detections7configsNtB7_16EidMetricsOptionNtNtCsgalAmTtUVqh_12clap_builder6derive14FromArgMatches20from_arg_matches_muts1_0Bb_
FNDA:0,_RNCNvXsT_NtNtCsNhz5SapXcJ_8hayabusa10detections7configsNtB7_16EidMetricsOptionNtNtCsgalAmTtUVqh_12clap_builder6derive14FromArgMatches20from_arg_matches_muts2_0Bb_
FNDA:0,_RNCNvXsT_NtNtCsNhz5SapXcJ_8hayabusa10detections7configsNtB7_16EidMetricsOptionNtNtCsgalAmTtUVqh_12clap_builder6derive14FromArgMatches20from_arg_matches_muts3_0Bb_
FNDA:0,_RNCNvXsT_NtNtCsNhz5SapXcJ_8hayabusa10detections7configsNtB7_16EidMetricsOptionNtNtCsgalAmTtUVqh_12clap_builder6derive14FromArgMatches20from_arg_matches_muts4_0Bb_
FNDA:0,_RNCNvXsT_NtNtCsNhz5SapXcJ_8hayabusa10detections7configsNtB7_16EidMetricsOptionNtNtCsgalAmTtUVqh_12clap_builder6derive14FromArgMatches20from_arg_matches_muts5_0Bb_
FNDA:0,_RNCNvXsT_NtNtCsNhz5SapXcJ_8hayabusa10detections7configsNtB7_16EidMetricsOptionNtNtCsgalAmTtUVqh_12clap_builder6derive14FromArgMatches27update_from_arg_matches_mut0Bb_
FNDA:0,_RNCNvXsT_NtNtCsNhz5SapXcJ_8hayabusa10detections7configsNtB7_16EidMetricsOptionNtNtCsgalAmTtUVqh_12clap_builder6derive14FromArgMatches27update_from_arg_matches_muts_0Bb_
FNDA:0,_RNCNvXsT_NtNtCsNhz5SapXcJ_8hayabusa10detections7configsNtB7_16EidMetricsOptionNtNtCsgalAmTtUVqh_12clap_builder6derive14FromArgMatches27update_from_arg_matches_muts0_0Bb_
FNDA:0,_RNCNvXsT_NtNtCsNhz5SapXcJ_8hayabusa10detections7configsNtB7_16EidMetricsOptionNtNtCsgalAmTtUVqh_12clap_builder6derive14FromArgMatches27update_from_arg_matches_muts1_0Bb_
FNDA:0,_RNCNvXsT_NtNtCsNhz5SapXcJ_8hayabusa10detections7configsNtB7_16EidMetricsOptionNtNtCsgalAmTtUVqh_12clap_builder6derive14FromArgMatches27update_from_arg_matches_muts2_0Bb_
FNDA:0,_RNCNvXsT_NtNtCsNhz5SapXcJ_8hayabusa10detections7configsNtB7_16EidMetricsOptionNtNtCsgalAmTtUVqh_12clap_builder6derive14FromArgMatches27update_from_arg_matches_muts3_0Bb_
FNDA:0,_RNCNvXsT_NtNtCsNhz5SapXcJ_8hayabusa10detections7configsNtB7_16EidMetricsOptionNtNtCsgalAmTtUVqh_12clap_builder6derive14FromArgMatches27update_from_arg_matches_muts4_0Bb_
FNDA:0,_RNCNvXsT_NtNtCsNhz5SapXcJ_8hayabusa10detections7configsNtB7_16EidMetricsOptionNtNtCsgalAmTtUVqh_12clap_builder6derive14FromArgMatches27update_from_arg_matches_muts5_0Bb_
FNDA:0,_RNCNvXsX_NtNtCsNhz5SapXcJ_8hayabusa10detections7configsNtB7_18PivotKeywordOptionNtNtCsgalAmTtUVqh_12clap_builder6derive14FromArgMatches20from_arg_matches_mut0Bb_
FNDA:0,_RNCNvXsX_NtNtCsNhz5SapXcJ_8hayabusa10detections7configsNtB7_18PivotKeywordOptionNtNtCsgalAmTtUVqh_12clap_builder6derive14FromArgMatches20from_arg_matches_muts_0Bb_
FNDA:0,_RNCNvXsX_NtNtCsNhz5SapXcJ_8hayabusa10detections7configsNtB7_18PivotKeywordOptionNtNtCsgalAmTtUVqh_12clap_builder6derive14FromArgMatches20from_arg_matches_muts0_0Bb_
FNDA:0,_RNCNvXsX_NtNtCsNhz5SapXcJ_8hayabusa10detections7configsNtB7_18PivotKeywordOptionNtNtCsgalAmTtUVqh_12clap_builder6derive14FromArgMatches20from_arg_matches_muts1_0Bb_
FNDA:0,_RNCNvXsX_NtNtCsNhz5SapXcJ_8hayabusa10detections7configsNtB7_18PivotKeywordOptionNtNtCsgalAmTtUVqh_12clap_builder6derive14FromArgMatches20from_arg_matches_muts2_0Bb_
FNDA:0,_RNCNvXsX_NtNtCsNhz5SapXcJ_8hayabusa10detections7configsNtB7_18PivotKeywordOptionNtNtCsgalAmTtUVqh_12clap_builder6derive14FromArgMatches20from_arg_matches_muts3_0Bb_
FNDA:0,_RNCNvXsX_NtNtCsNhz5SapXcJ_8hayabusa10detections7configsNtB7_18PivotKeywordOptionNtNtCsgalAmTtUVqh_12clap_builder6derive14FromArgMatches20from_arg_matches_muts4_0Bb_
FNDA:0,_RNCNvXsX_NtNtCsNhz5SapXcJ_8hayabusa10detections7configsNtB7_18PivotKeywordOptionNtNtCsgalAmTtUVqh_12clap_builder6derive14FromArgMatches20from_arg_matches_muts5_0Bb_
FNDA:0,_RNCNvXsX_NtNtCsNhz5SapXcJ_8hayabusa10detections7configsNtB7_18PivotKeywordOptionNtNtCsgalAmTtUVqh_12clap_builder6derive14FromArgMatches20from_arg_matches_muts6_0Bb_
FNDA:0,_RNCNvXsX_NtNtCsNhz5SapXcJ_8hayabusa10detections7configsNtB7_18PivotKeywordOptionNtNtCsgalAmTtUVqh_12clap_builder6derive14FromArgMatches20from_arg_matches_muts7_0Bb_
FNDA:0,_RNCNvXsX_NtNtCsNhz5SapXcJ_8hayabusa10detections7configsNtB7_18PivotKeywordOptionNtNtCsgalAmTtUVqh_12clap_builder6derive14FromArgMatches20from_arg_matches_muts8_0Bb_
FNDA:0,_RNCNvXsX_NtNtCsNhz5SapXcJ_8hayabusa10detections7configsNtB7_18PivotKeywordOptionNtNtCsgalAmTtUVqh_12clap_builder6derive14FromArgMatches20from_arg_matches_muts9_0Bb_
FNDA:0,_RNCNvXsX_NtNtCsNhz5SapXcJ_8hayabusa10detections7configsNtB7_18PivotKeywordOptionNtNtCsgalAmTtUVqh_12clap_builder6derive14FromArgMatches20from_arg_matches_mutsa_0Bb_
FNDA:0,_RNCNvXsX_NtNtCsNhz5SapXcJ_8hayabusa10detections7configsNtB7_18PivotKeywordOptionNtNtCsgalAmTtUVqh_12clap_builder6derive14FromArgMatches27update_from_arg_matches_mut0Bb_
FNDA:0,_RNCNvXsX_NtNtCsNhz5SapXcJ_8hayabusa10detections7configsNtB7_18PivotKeywordOptionNtNtCsgalAmTtUVqh_12clap_builder6derive14FromArgMatches27update_from_arg_matches_muts_0Bb_
FNDA:0,_RNCNvXsX_NtNtCsNhz5SapXcJ_8hayabusa10detections7configsNtB7_18PivotKeywordOptionNtNtCsgalAmTtUVqh_12clap_builder6derive14FromArgMatches27update_from_arg_matches_muts0_0Bb_
FNDA:0,_RNCNvXsX_NtNtCsNhz5SapXcJ_8hayabusa10detections7configsNtB7_18PivotKeywordOptionNtNtCsgalAmTtUVqh_12clap_builder6derive14FromArgMatches27update_from_arg_matches_muts1_0Bb_
FNDA:0,_RNCNvXsX_NtNtCsNhz5SapXcJ_8hayabusa10detections7configsNtB7_18PivotKeywordOptionNtNtCsgalAmTtUVqh_12clap_builder6derive14FromArgMatches27update_from_arg_matches_muts2_0Bb_
FNDA:0,_RNCNvXsX_NtNtCsNhz5SapXcJ_8hayabusa10detections7configsNtB7_18PivotKeywordOptionNtNtCsgalAmTtUVqh_12clap_builder6derive14FromArgMatches27update_from_arg_matches_muts3_0Bb_
FNDA:0,_RNCNvXsX_NtNtCsNhz5SapXcJ_8hayabusa10detections7configsNtB7_18PivotKeywordOptionNtNtCsgalAmTtUVqh_12clap_builder6derive14FromArgMatches27update_from_arg_matches_muts4_0Bb_
FNDA:0,_RNCNvXsX_NtNtCsNhz5SapXcJ_8hayabusa10detections7configsNtB7_18PivotKeywordOptionNtNtCsgalAmTtUVqh_12clap_builder6derive14FromArgMatches27update_from_arg_matches_muts5_0Bb_
FNDA:0,_RNCNvXsX_NtNtCsNhz5SapXcJ_8hayabusa10detections7configsNtB7_18PivotKeywordOptionNtNtCsgalAmTtUVqh_12clap_builder6derive14FromArgMatches27update_from_arg_matches_muts6_0Bb_
FNDA:0,_RNCNvXsX_NtNtCsNhz5SapXcJ_8hayabusa10detections7configsNtB7_18PivotKeywordOptionNtNtCsgalAmTtUVqh_12clap_builder6derive14FromArgMatches27update_from_arg_matches_muts7_0Bb_
FNDA:0,_RNCNvXsX_NtNtCsNhz5SapXcJ_8hayabusa10detections7configsNtB7_18PivotKeywordOptionNtNtCsgalAmTtUVqh_12clap_builder6derive14FromArgMatches27update_from_arg_matches_muts8_0Bb_
FNDA:0,_RNCNvXsX_NtNtCsNhz5SapXcJ_8hayabusa10detections7configsNtB7_18PivotKeywordOptionNtNtCsgalAmTtUVqh_12clap_builder6derive14FromArgMatches27update_from_arg_matches_muts9_0Bb_
FNDA:0,_RNCNvXsX_NtNtCsNhz5SapXcJ_8hayabusa10detections7configsNtB7_18PivotKeywordOptionNtNtCsgalAmTtUVqh_12clap_builder6derive14FromArgMatches27update_from_arg_matches_mutsa_0Bb_
FNDA:0,_RNCNvXs11_NtNtCsNhz5SapXcJ_8hayabusa10detections7configsNtB8_18LogonSummaryOptionNtNtCsgalAmTtUVqh_12clap_builder6derive14FromArgMatches20from_arg_matches_mut0Bc_
FNDA:0,_RNCNvXs11_NtNtCsNhz5SapXcJ_8hayabusa10detections7configsNtB8_18LogonSummaryOptionNtNtCsgalAmTtUVqh_12clap_builder6derive14FromArgMatches20from_arg_matches_muts_0Bc_
FNDA:0,_RNCNvXs11_NtNtCsNhz5SapXcJ_8hayabusa10detections7configsNtB8_18LogonSummaryOptionNtNtCsgalAmTtUVqh_12clap_builder6derive14FromArgMatches20from_arg_matches_muts0_0Bc_
FNDA:0,_RNCNvXs11_NtNtCsNhz5SapXcJ_8hayabusa10detections7configsNtB8_18LogonSummaryOptionNtNtCsgalAmTtUVqh_12clap_builder6derive14FromArgMatches20from_arg_matches_muts1_0Bc_
FNDA:0,_RNCNvXs11_NtNtCsNhz5SapXcJ_8hayabusa10detections7configsNtB8_18LogonSummaryOptionNtNtCsgalAmTtUVqh_12clap_builder6derive14FromArgMatches20from_arg_matches_muts2_0Bc_
FNDA:0,_RNCNvXs11_NtNtCsNhz5SapXcJ_8hayabusa10detections7configsNtB8_18LogonSummaryOptionNtNtCsgalAmTtUVqh_12clap_builder6derive14FromArgMatches20from_arg_matches_muts3_0Bc_
FNDA:0,_RNCNvXs11_NtNtCsNhz5SapXcJ_8hayabusa10detections7configsNtB8_18LogonSummaryOptionNtNtCsgalAmTtUVqh_12clap_builder6derive14FromArgMatches20from_arg_matches_muts4_0Bc_
FNDA:0,_RNCNvXs11_NtNtCsNhz5SapXcJ_8hayabusa10detections7configsNtB8_18LogonSummaryOptionNtNtCsgalAmTtUVqh_12clap_builder6derive14FromArgMatches20from_arg_matches_muts5_0Bc_
FNDA:0,_RNCNvXs11_NtNtCsNhz5SapXcJ_8hayabusa10detections7configsNtB8_18LogonSummaryOptionNtNtCsgalAmTtUVqh_12clap_builder6derive14FromArgMatches27update_from_arg_matches_mut0Bc_
FNDA:0,_RNCNvXs11_NtNtCsNhz5SapXcJ_8hayabusa10detections7configsNtB8_18LogonSummaryOptionNtNtCsgalAmTtUVqh_12clap_builder6derive14FromArgMatches27update_from_arg_matches_muts_0Bc_
FNDA:0,_RNCNvXs11_NtNtCsNhz5SapXcJ_8hayabusa10detections7configsNtB8_18LogonSummaryOptionNtNtCsgalAmTtUVqh_12clap_builder6derive14FromArgMatches27update_from_arg_matches_muts0_0Bc_
FNDA:0,_RNCNvXs11_NtNtCsNhz5SapXcJ_8hayabusa10detections7configsNtB8_18LogonSummaryOptionNtNtCsgalAmTtUVqh_12clap_builder6derive14FromArgMatches27update_from_arg_matches_muts1_0Bc_
FNDA:0,_RNCNvXs11_NtNtCsNhz5SapXcJ_8hayabusa10detections7configsNtB8_18LogonSummaryOptionNtNtCsgalAmTtUVqh_12clap_builder6derive14FromArgMatches27update_from_arg_matches_muts2_0Bc_
FNDA:0,_RNCNvXs11_NtNtCsNhz5SapXcJ_8hayabusa10detections7configsNtB8_18LogonSummaryOptionNtNtCsgalAmTtUVqh_12clap_builder6derive14FromArgMatches27update_from_arg_matches_muts3_0Bc_
FNDA:0,_RNCNvXs11_NtNtCsNhz5SapXcJ_8hayabusa10detections7configsNtB8_18LogonSummaryOptionNtNtCsgalAmTtUVqh_12clap_builder6derive14FromArgMatches27update_from_arg_matches_muts4_0Bc_
FNDA:0,_RNCNvXs11_NtNtCsNhz5SapXcJ_8hayabusa10detections7configsNtB8_18LogonSummaryOptionNtNtCsgalAmTtUVqh_12clap_builder6derive14FromArgMatches27update_from_arg_matches_muts5_0Bc_
FNDA:0,_RNCNvXs15_NtNtCsNhz5SapXcJ_8hayabusa10detections7configsNtB8_12OutputOptionNtNtCsgalAmTtUVqh_12clap_builder6derive14FromArgMatches20from_arg_matches_mut0Bc_
FNDA:0,_RNCNvXs15_NtNtCsNhz5SapXcJ_8hayabusa10detections7configsNtB8_12OutputOptionNtNtCsgalAmTtUVqh_12clap_builder6derive14FromArgMatches20from_arg_matches_muts_0Bc_
FNDA:0,_RNCNvXs15_NtNtCsNhz5SapXcJ_8hayabusa10detections7configsNtB8_12OutputOptionNtNtCsgalAmTtUVqh_12clap_builder6derive14FromArgMatches20from_arg_matches_muts0_0Bc_
FNDA:0,_RNCNvXs15_NtNtCsNhz5SapXcJ_8hayabusa10detections7configsNtB8_12OutputOptionNtNtCsgalAmTtUVqh_12clap_builder6derive14FromArgMatches20from_arg_matches_muts1_0Bc_
FNDA:0,_RNCNvXs15_NtNtCsNhz5SapXcJ_8hayabusa10detections7configsNtB8_12OutputOptionNtNtCsgalAmTtUVqh_12clap_builder6derive14FromArgMatches20from_arg_matches_muts2_0Bc_
FNDA:0,_RNCNvXs15_NtNtCsNhz5SapXcJ_8hayabusa10detections7configsNtB8_12OutputOptionNtNtCsgalAmTtUVqh_12clap_builder6derive14FromArgMatches20from_arg_matches_muts3_0Bc_
FNDA:0,_RNCNvXs15_NtNtCsNhz5SapXcJ_8hayabusa10detections7configsNtB8_12OutputOptionNtNtCsgalAmTtUVqh_12clap_builder6derive14FromArgMatches20from_arg_matches_muts4_0Bc_
FNDA:0,_RNCNvXs15_NtNtCsNhz5SapXcJ_8hayabusa10detections7configsNtB8_12OutputOptionNtNtCsgalAmTtUVqh_12clap_builder6derive14FromArgMatches20from_arg_matches_muts5_0Bc_
FNDA:0,_RNCNvXs15_NtNtCsNhz5SapXcJ_8hayabusa10detections7configsNtB8_12OutputOptionNtNtCsgalAmTtUVqh_12clap_builder6derive14FromArgMatches20from_arg_matches_muts6_0Bc_
FNDA:0,_RNCNvXs15_NtNtCsNhz5SapXcJ_8hayabusa10detections7configsNtB8_12OutputOptionNtNtCsgalAmTtUVqh_12clap_builder6derive14FromArgMatches20from_arg_matches_muts7_0Bc_
FNDA:0,_RNCNvXs15_NtNtCsNhz5SapXcJ_8hayabusa10detections7configsNtB8_12OutputOptionNtNtCsgalAmTtUVqh_12clap_builder6derive14FromArgMatches20from_arg_matches_muts8_0Bc_
FNDA:0,_RNCNvXs15_NtNtCsNhz5SapXcJ_8hayabusa10detections7configsNtB8_12OutputOptionNtNtCsgalAmTtUVqh_12clap_builder6derive14FromArgMatches20from_arg_matches_muts9_0Bc_
FNDA:0,_RNCNvXs15_NtNtCsNhz5SapXcJ_8hayabusa10detections7configsNtB8_12OutputOptionNtNtCsgalAmTtUVqh_12clap_builder6derive14FromArgMatches20from_arg_matches_mutsa_0Bc_
FNDA:0,_RNCNvXs15_NtNtCsNhz5SapXcJ_8hayabusa10detections7configsNtB8_12OutputOptionNtNtCsgalAmTtUVqh_12clap_builder6derive14FromArgMatches20from_arg_matches_mutsb_0Bc_
FNDA:0,_RNCNvXs15_NtNtCsNhz5SapXcJ_8hayabusa10detections7configsNtB8_12OutputOptionNtNtCsgalAmTtUVqh_12clap_builder6derive14FromArgMatches20from_arg_matches_mutsc_0Bc_
FNDA:0,_RNCNvXs15_NtNtCsNhz5SapXcJ_8hayabusa10detections7configsNtB8_12OutputOptionNtNtCsgalAmTtUVqh_12clap_builder6derive14FromArgMatches20from_arg_matches_mutsd_0Bc_
FNDA:0,_RNCNvXs15_NtNtCsNhz5SapXcJ_8hayabusa10detections7configsNtB8_12OutputOptionNtNtCsgalAmTtUVqh_12clap_builder6derive14FromArgMatches20from_arg_matches_mutse_0Bc_
FNDA:0,_RNCNvXs15_NtNtCsNhz5SapXcJ_8hayabusa10detections7configsNtB8_12OutputOptionNtNtCsgalAmTtUVqh_12clap_builder6derive14FromArgMatches20from_arg_matches_mutsf_0Bc_
FNDA:0,_RNCNvXs15_NtNtCsNhz5SapXcJ_8hayabusa10detections7configsNtB8_12OutputOptionNtNtCsgalAmTtUVqh_12clap_builder6derive14FromArgMatches20from_arg_matches_mutsg_0Bc_
FNDA:0,_RNCNvXs15_NtNtCsNhz5SapXcJ_8hayabusa10detections7configsNtB8_12OutputOptionNtNtCsgalAmTtUVqh_12clap_builder6derive14FromArgMatches20from_arg_matches_mutsh_0Bc_
FNDA:0,_RNCNvXs15_NtNtCsNhz5SapXcJ_8hayabusa10detections7configsNtB8_12OutputOptionNtNtCsgalAmTtUVqh_12clap_builder6derive14FromArgMatches20from_arg_matches_mutsi_0Bc_
FNDA:0,_RNCNvXs15_NtNtCsNhz5SapXcJ_8hayabusa10detections7configsNtB8_12OutputOptionNtNtCsgalAmTtUVqh_12clap_builder6derive14FromArgMatches20from_arg_matches_mutsj_0Bc_
FNDA:0,_RNCNvXs15_NtNtCsNhz5SapXcJ_8hayabusa10detections7configsNtB8_12OutputOptionNtNtCsgalAmTtUVqh_12clap_builder6derive14FromArgMatches20from_arg_matches_mutsk_0Bc_
FNDA:0,_RNCNvXs15_NtNtCsNhz5SapXcJ_8hayabusa10detections7configsNtB8_12OutputOptionNtNtCsgalAmTtUVqh_12clap_builder6derive14FromArgMatches20from_arg_matches_mutsl_0Bc_
FNDA:0,_RNCNvXs15_NtNtCsNhz5SapXcJ_8hayabusa10detections7configsNtB8_12OutputOptionNtNtCsgalAmTtUVqh_12clap_builder6derive14FromArgMatches20from_arg_matches_mutsm_0Bc_
FNDA:0,_RNCNvXs15_NtNtCsNhz5SapXcJ_8hayabusa10detections7configsNtB8_12OutputOptionNtNtCsgalAmTtUVqh_12clap_builder6derive14FromArgMatches20from_arg_matches_mutsn_0Bc_
FNDA:0,_RNCNvXs15_NtNtCsNhz5SapXcJ_8hayabusa10detections7configsNtB8_12OutputOptionNtNtCsgalAmTtUVqh_12clap_builder6derive14FromArgMatches20from_arg_matches_mutso_0Bc_
FNDA:0,_RNCNvXs15_NtNtCsNhz5SapXcJ_8hayabusa10detections7configsNtB8_12OutputOptionNtNtCsgalAmTtUVqh_12clap_builder6derive14FromArgMatches20from_arg_matches_mutsp_0Bc_
FNDA:0,_RNCNvXs15_NtNtCsNhz5SapXcJ_8hayabusa10detections7configsNtB8_12OutputOptionNtNtCsgalAmTtUVqh_12clap_builder6derive14FromArgMatches20from_arg_matches_mutsq_0Bc_
FNDA:0,_RNCNvXs15_NtNtCsNhz5SapXcJ_8hayabusa10detections7configsNtB8_12OutputOptionNtNtCsgalAmTtUVqh_12clap_builder6derive14FromArgMatches20from_arg_matches_mutsr_0Bc_
FNDA:0,_RNCNvXs15_NtNtCsNhz5SapXcJ_8hayabusa10detections7configsNtB8_12OutputOptionNtNtCsgalAmTtUVqh_12clap_builder6derive14FromArgMatches20from_arg_matches_mutss_0Bc_
FNDA:0,_RNCNvXs15_NtNtCsNhz5SapXcJ_8hayabusa10detections7configsNtB8_12OutputOptionNtNtCsgalAmTtUVqh_12clap_builder6derive14FromArgMatches27update_from_arg_matches_mut0Bc_
FNDA:0,_RNCNvXs15_NtNtCsNhz5SapXcJ_8hayabusa10detections7configsNtB8_12OutputOptionNtNtCsgalAmTtUVqh_12clap_builder6derive14FromArgMatches27update_from_arg_matches_muts_0Bc_
FNDA:0,_RNCNvXs15_NtNtCsNhz5SapXcJ_8hayabusa10detections7configsNtB8_12OutputOptionNtNtCsgalAmTtUVqh_12clap_builder6derive14FromArgMatches27update_from_arg_matches_muts0_0Bc_
FNDA:0,_RNCNvXs15_NtNtCsNhz5SapXcJ_8hayabusa10detections7configsNtB8_12OutputOptionNtNtCsgalAmTtUVqh_12clap_builder6derive14FromArgMatches27update_from_arg_matches_muts1_0Bc_
FNDA:0,_RNCNvXs15_NtNtCsNhz5SapXcJ_8hayabusa10detections7configsNtB8_12OutputOptionNtNtCsgalAmTtUVqh_12clap_builder6derive14FromArgMatches27update_from_arg_matches_muts2_0Bc_
FNDA:0,_RNCNvXs15_NtNtCsNhz5SapXcJ_8hayabusa10detections7configsNtB8_12OutputOptionNtNtCsgalAmTtUVqh_12clap_builder6derive14FromArgMatches27update_from_arg_matches_muts3_0Bc_
FNDA:0,_RNCNvXs15_NtNtCsNhz5SapXcJ_8hayabusa10detections7configsNtB8_12OutputOptionNtNtCsgalAmTtUVqh_12clap_builder6derive14FromArgMatches27update_from_arg_matches_muts4_0Bc_
FNDA:0,_RNCNvXs15_NtNtCsNhz5SapXcJ_8hayabusa10detections7configsNtB8_12OutputOptionNtNtCsgalAmTtUVqh_12clap_builder6derive14FromArgMatches27update_from_arg_matches_muts5_0Bc_
FNDA:0,_RNCNvXs15_NtNtCsNhz5SapXcJ_8hayabusa10detections7configsNtB8_12OutputOptionNtNtCsgalAmTtUVqh_12clap_builder6derive14FromArgMatches27update_from_arg_matches_muts6_0Bc_
FNDA:0,_RNCNvXs15_NtNtCsNhz5SapXcJ_8hayabusa10detections7configsNtB8_12OutputOptionNtNtCsgalAmTtUVqh_12clap_builder6derive14FromArgMatches27update_from_arg_matches_muts7_0Bc_
FNDA:0,_RNCNvXs15_NtNtCsNhz5SapXcJ_8hayabusa10detections7configsNtB8_12OutputOptionNtNtCsgalAmTtUVqh_12clap_builder6derive14FromArgMatches27update_from_arg_matches_muts8_0Bc_
FNDA:0,_RNCNvXs15_NtNtCsNhz5SapXcJ_8hayabusa10detections7configsNtB8_12OutputOptionNtNtCsgalAmTtUVqh_12clap_builder6derive14FromArgMatches27update_from_arg_matches_muts9_0Bc_
FNDA:0,_RNCNvXs15_NtNtCsNhz5SapXcJ_8hayabusa10detections7configsNtB8_12OutputOptionNtNtCsgalAmTtUVqh_12clap_builder6derive14FromArgMatches27update_from_arg_matches_mutsa_0Bc_
FNDA:0,_RNCNvXs15_NtNtCsNhz5SapXcJ_8hayabusa10detections7configsNtB8_12OutputOptionNtNtCsgalAmTtUVqh_12clap_builder6derive14FromArgMatches27update_from_arg_matches_mutsb_0Bc_
FNDA:0,_RNCNvXs15_NtNtCsNhz5SapXcJ_8hayabusa10detections7configsNtB8_12OutputOptionNtNtCsgalAmTtUVqh_12clap_builder6derive14FromArgMatches27update_from_arg_matches_mutsc_0Bc_
FNDA:0,_RNCNvXs15_NtNtCsNhz5SapXcJ_8hayabusa10detections7configsNtB8_12OutputOptionNtNtCsgalAmTtUVqh_12clap_builder6derive14FromArgMatches27update_from_arg_matches_mutsd_0Bc_
FNDA:0,_RNCNvXs15_NtNtCsNhz5SapXcJ_8hayabusa10detections7configsNtB8_12OutputOptionNtNtCsgalAmTtUVqh_12clap_builder6derive14FromArgMatches27update_from_arg_matches_mutse_0Bc_
FNDA:0,_RNCNvXs15_NtNtCsNhz5SapXcJ_8hayabusa10detections7configsNtB8_12OutputOptionNtNtCsgalAmTtUVqh_12clap_builder6derive14FromArgMatches27update_from_arg_matches_mutsf_0Bc_
FNDA:0,_RNCNvXs15_NtNtCsNhz5SapXcJ_8hayabusa10detections7configsNtB8_12OutputOptionNtNtCsgalAmTtUVqh_12clap_builder6derive14FromArgMatches27update_from_arg_matches_mutsg_0Bc_
FNDA:0,_RNCNvXs15_NtNtCsNhz5SapXcJ_8hayabusa10detections7configsNtB8_12OutputOptionNtNtCsgalAmTtUVqh_12clap_builder6derive14FromArgMatches27update_from_arg_matches_mutsh_0Bc_
FNDA:0,_RNCNvXs15_NtNtCsNhz5SapXcJ_8hayabusa10detections7configsNtB8_12OutputOptionNtNtCsgalAmTtUVqh_12clap_builder6derive14FromArgMatches27update_from_arg_matches_mutsi_0Bc_
FNDA:0,_RNCNvXs15_NtNtCsNhz5SapXcJ_8hayabusa10detections7configsNtB8_12OutputOptionNtNtCsgalAmTtUVqh_12clap_builder6derive14FromArgMatches27update_from_arg_matches_mutsj_0Bc_
FNDA:0,_RNCNvXs15_NtNtCsNhz5SapXcJ_8hayabusa10detections7configsNtB8_12OutputOptionNtNtCsgalAmTtUVqh_12clap_builder6derive14FromArgMatches27update_from_arg_matches_mutsk_0Bc_
FNDA:0,_RNCNvXs15_NtNtCsNhz5SapXcJ_8hayabusa10detections7configsNtB8_12OutputOptionNtNtCsgalAmTtUVqh_12clap_builder6derive14FromArgMatches27update_from_arg_matches_mutsl_0Bc_
FNDA:0,_RNCNvXs15_NtNtCsNhz5SapXcJ_8hayabusa10detections7configsNtB8_12OutputOptionNtNtCsgalAmTtUVqh_12clap_builder6derive14FromArgMatches27update_from_arg_matches_mutsm_0Bc_
FNDA:0,_RNCNvXs15_NtNtCsNhz5SapXcJ_8hayabusa10detections7configsNtB8_12OutputOptionNtNtCsgalAmTtUVqh_12clap_builder6derive14FromArgMatches27update_from_arg_matches_mutsn_0Bc_
FNDA:0,_RNCNvXs15_NtNtCsNhz5SapXcJ_8hayabusa10detections7configsNtB8_12OutputOptionNtNtCsgalAmTtUVqh_12clap_builder6derive14FromArgMatches27update_from_arg_matches_mutso_0Bc_
FNDA:0,_RNCNvXs15_NtNtCsNhz5SapXcJ_8hayabusa10detections7configsNtB8_12OutputOptionNtNtCsgalAmTtUVqh_12clap_builder6derive14FromArgMatches27update_from_arg_matches_mutsp_0Bc_
FNDA:0,_RNCNvXs15_NtNtCsNhz5SapXcJ_8hayabusa10detections7configsNtB8_12OutputOptionNtNtCsgalAmTtUVqh_12clap_builder6derive14FromArgMatches27update_from_arg_matches_mutsq_0Bc_
FNDA:0,_RNCNvXs15_NtNtCsNhz5SapXcJ_8hayabusa10detections7configsNtB8_12OutputOptionNtNtCsgalAmTtUVqh_12clap_builder6derive14FromArgMatches27update_from_arg_matches_mutsr_0Bc_
FNDA:0,_RNCNvXs15_NtNtCsNhz5SapXcJ_8hayabusa10detections7configsNtB8_12OutputOptionNtNtCsgalAmTtUVqh_12clap_builder6derive14FromArgMatches27update_from_arg_matches_mutss_0Bc_
FNDA:0,_RNCNvXs1a_NtNtCsNhz5SapXcJ_8hayabusa10detections7configsNtB8_13CommonOptionsNtNtCsgalAmTtUVqh_12clap_builder6derive14FromArgMatches20from_arg_matches_mut0Bc_
FNDA:0,_RNCNvXs1a_NtNtCsNhz5SapXcJ_8hayabusa10detections7configsNtB8_13CommonOptionsNtNtCsgalAmTtUVqh_12clap_builder6derive14FromArgMatches20from_arg_matches_muts_0Bc_
FNDA:0,_RNCNvXs1a_NtNtCsNhz5SapXcJ_8hayabusa10detections7configsNtB8_13CommonOptionsNtNtCsgalAmTtUVqh_12clap_builder6derive14FromArgMatches27update_from_arg_matches_mut0Bc_
FNDA:0,_RNCNvXs1a_NtNtCsNhz5SapXcJ_8hayabusa10detections7configsNtB8_13CommonOptionsNtNtCsgalAmTtUVqh_12clap_builder6derive14FromArgMatches27update_from_arg_matches_muts_0Bc_
FNDA:0,_RNCNvXs1e_NtNtCsNhz5SapXcJ_8hayabusa10detections7configsNtB8_11InputOptionNtNtCsgalAmTtUVqh_12clap_builder6derive14FromArgMatches20from_arg_matches_mut0Bc_
FNDA:0,_RNCNvXs1e_NtNtCsNhz5SapXcJ_8hayabusa10detections7configsNtB8_11InputOptionNtNtCsgalAmTtUVqh_12clap_builder6derive14FromArgMatches20from_arg_matches_muts_0Bc_
FNDA:0,_RNCNvXs1e_NtNtCsNhz5SapXcJ_8hayabusa10detections7configsNtB8_11InputOptionNtNtCsgalAmTtUVqh_12clap_builder6derive14FromArgMatches27update_from_arg_matches_mut0Bc_
FNDA:0,_RNCNvXs1e_NtNtCsNhz5SapXcJ_8hayabusa10detections7configsNtB8_11InputOptionNtNtCsgalAmTtUVqh_12clap_builder6derive14FromArgMatches27update_from_arg_matches_muts_0Bc_
FNDA:0,_RNCNvXs1i_NtNtCsNhz5SapXcJ_8hayabusa10detections7configsNtB8_15CsvOutputOptionNtNtCsgalAmTtUVqh_12clap_builder6derive14FromArgMatches20from_arg_matches_mut0Bc_
FNDA:0,_RNCNvXs1i_NtNtCsNhz5SapXcJ_8hayabusa10detections7configsNtB8_15CsvOutputOptionNtNtCsgalAmTtUVqh_12clap_builder6derive14FromArgMatches27update_from_arg_matches_mut0Bc_
FNDA:0,_RNCNvXs1m_NtNtCsNhz5SapXcJ_8hayabusa10detections7configsNtB8_16JSONOutputOptionNtNtCsgalAmTtUVqh_12clap_builder6derive14FromArgMatches20from_arg_matches_mut0Bc_
FNDA:0,_RNCNvXs1m_NtNtCsNhz5SapXcJ_8hayabusa10detections7configsNtB8_16JSONOutputOptionNtNtCsgalAmTtUVqh_12clap_builder6derive14FromArgMatches27update_from_arg_matches_mut0Bc_
FNDA:0,_RNCNvXs1q_NtNtCsNhz5SapXcJ_8hayabusa10detections7configsNtB8_21ComputerMetricsOptionNtNtCsgalAmTtUVqh_12clap_builder6derive14FromArgMatches20from_arg_matches_mut0Bc_
FNDA:0,_RNCNvXs1q_NtNtCsNhz5SapXcJ_8hayabusa10detections7configsNtB8_21ComputerMetricsOptionNtNtCsgalAmTtUVqh_12clap_builder6derive14FromArgMatches20from_arg_matches_muts_0Bc_
FNDA:0,_RNCNvXs1q_NtNtCsNhz5SapXcJ_8hayabusa10detections7configsNtB8_21ComputerMetricsOptionNtNtCsgalAmTtUVqh_12clap_builder6derive14FromArgMatches20from_arg_matches_muts0_0Bc_
FNDA:0,_RNCNvXs1q_NtNtCsNhz5SapXcJ_8hayabusa10detections7configsNtB8_21ComputerMetricsOptionNtNtCsgalAmTtUVqh_12clap_builder6derive14FromArgMatches20from_arg_matches_muts1_0Bc_
FNDA:0,_RNCNvXs1q_NtNtCsNhz5SapXcJ_8hayabusa10detections7configsNtB8_21ComputerMetricsOptionNtNtCsgalAmTtUVqh_12clap_builder6derive14FromArgMatches20from_arg_matches_muts2_0Bc_
FNDA:0,_RNCNvXs1q_NtNtCsNhz5SapXcJ_8hayabusa10detections7configsNtB8_21ComputerMetricsOptionNtNtCsgalAmTtUVqh_12clap_builder6derive14FromArgMatches20from_arg_matches_muts3_0Bc_
FNDA:0,_RNCNvXs1q_NtNtCsNhz5SapXcJ_8hayabusa10detections7configsNtB8_21ComputerMetricsOptionNtNtCsgalAmTtUVqh_12clap_builder6derive14FromArgMatches27update_from_arg_matches_mut0Bc_
FNDA:0,_RNCNvXs1q_NtNtCsNhz5SapXcJ_8hayabusa10detections7configsNtB8_21ComputerMetricsOptionNtNtCsgalAmTtUVqh_12clap_builder6derive14FromArgMatches27update_from_arg_matches_muts_0Bc_
FNDA:0,_RNCNvXs1q_NtNtCsNhz5SapXcJ_8hayabusa10detections7configsNtB8_21ComputerMetricsOptionNtNtCsgalAmTtUVqh_12clap_builder6derive14FromArgMatches27update_from_arg_matches_muts0_0Bc_
FNDA:0,_RNCNvXs1q_NtNtCsNhz5SapXcJ_8hayabusa10detections7configsNtB8_21ComputerMetricsOptionNtNtCsgalAmTtUVqh_12clap_builder6derive14FromArgMatches27update_from_arg_matches_muts1_0Bc_
FNDA:0,_RNCNvXs1q_NtNtCsNhz5SapXcJ_8hayabusa10detections7configsNtB8_21ComputerMetricsOptionNtNtCsgalAmTtUVqh_12clap_builder6derive14FromArgMatches27update_from_arg_matches_muts2_0Bc_
FNDA:0,_RNCNvXs1q_NtNtCsNhz5SapXcJ_8hayabusa10detections7configsNtB8_21ComputerMetricsOptionNtNtCsgalAmTtUVqh_12clap_builder6derive14FromArgMatches27update_from_arg_matches_muts3_0Bc_
FNDA:0,_RNCNvXs1w_NtNtCsNhz5SapXcJ_8hayabusa10detections7configsNtB8_6ConfigNtNtCsgalAmTtUVqh_12clap_builder6derive14FromArgMatches20from_arg_matches_mut0Bc_
FNDA:0,_RNCNvXs1w_NtNtCsNhz5SapXcJ_8hayabusa10detections7configsNtB8_6ConfigNtNtCsgalAmTtUVqh_12clap_builder6derive14FromArgMatches27update_from_arg_matches_mut0Bc_
FNDA:0,_RNvMs1_NtNtCsNhz5SapXcJ_8hayabusa10detections7configsNtB5_12ConfigReader3new
FNDA:0,_RNvMs4_NtNtCsNhz5SapXcJ_8hayabusa10detections7configsNtB5_15TargetEventTime16is_parse_success
FNDA:0,_RNvXs6_NtNtCsNhz5SapXcJ_8hayabusa10detections7configsNtB5_19EventKeyAliasConfigNtNtCshEwRaVhoEM3_4core7default7Default7default
FNDA:0,_RNvXs7_NtNtCsNhz5SapXcJ_8hayabusa10detections7configsNtB5_9EventInfoNtNtCshEwRaVhoEM3_4core7default7Default7default
FNDA:0,_RNvXs9_NtNtCsNhz5SapXcJ_8hayabusa10detections7configsNtB5_15EventInfoConfigNtNtCshEwRaVhoEM3_4core7default7Default7default
FNDA:422,_RNvMs_NtNtCsNhz5SapXcJ_8hayabusa10detections7configsNtB4_12StoredStatic18create_static_data
FNDA:794,_RNCNvMs_NtNtCsNhz5SapXcJ_8hayabusa10detections7configsNtB6_12StoredStatic18create_static_data0Ba_
FNDA:14,_RNCNvMs_NtNtCsNhz5SapXcJ_8hayabusa10detections7configsNtB6_12StoredStatic18create_static_datas_0Ba_
FNDA:2,_RNCNvMs_NtNtCsNhz5SapXcJ_8hayabusa10detections7configsNtB6_12StoredStatic18create_static_datas0_0Ba_
FNDA:0,_RNCNvMs_NtNtCsNhz5SapXcJ_8hayabusa10detections7configsNtB6_12StoredStatic18create_static_datas1_0Ba_
FNDA:0,_RNCNvMs_NtNtCsNhz5SapXcJ_8hayabusa10detections7configsNtB6_12StoredStatic18create_static_datas2_0Ba_
FNDA:0,_RNCNvMs_NtNtCsNhz5SapXcJ_8hayabusa10detections7configsNtB6_12StoredStatic18create_static_datas3_0Ba_
FNDA:2,_RNCNvMs_NtNtCsNhz5SapXcJ_8hayabusa10detections7configsNtB6_12StoredStatic18create_static_datas4_0Ba_
FNDA:0,_RNCNvMs_NtNtCsNhz5SapXcJ_8hayabusa10detections7configsNtB6_12StoredStatic18create_static_datas5_0Ba_
FNDA:0,_RNCNvMs_NtNtCsNhz5SapXcJ_8hayabusa10detections7configsNtB6_12StoredStatic18create_static_datas6_0Ba_
FNDA:0,_RNCNvMs_NtNtCsNhz5SapXcJ_8hayabusa10detections7configsNtB6_12StoredStatic18create_static_datas7_0Ba_
FNDA:0,_RNCNvMs_NtNtCsNhz5SapXcJ_8hayabusa10detections7configsNtB6_12StoredStatic18create_static_datas8_0Ba_
FNDA:0,_RNCNvMs_NtNtCsNhz5SapXcJ_8hayabusa10detections7configsNtB6_12StoredStatic18create_static_datas9_0Ba_
FNDA:0,_RNCNvMs_NtNtCsNhz5SapXcJ_8hayabusa10detections7configsNtB6_12StoredStatic18create_static_datasa_0Ba_
FNDA:0,_RNCNvMs_NtNtCsNhz5SapXcJ_8hayabusa10detections7configsNtB6_12StoredStatic18create_static_datasb_0Ba_
FNDA:13926,_RNCNvMs_NtNtCsNhz5SapXcJ_8hayabusa10detections7configsNtB6_12StoredStatic18create_static_datasc_0Ba_
FNDA:13926,_RNCNvMs_NtNtCsNhz5SapXcJ_8hayabusa10detections7configsNtB6_12StoredStatic18create_static_datasd_0Ba_
FNDA:0,_RNCNvMs_NtNtCsNhz5SapXcJ_8hayabusa10detections7configsNtB6_12StoredStatic18create_static_datase_0Ba_
FNDA:0,_RNCNvMs_NtNtCsNhz5SapXcJ_8hayabusa10detections7configsNtB6_12StoredStatic18create_static_datasf_0Ba_
FNDA:0,_RNCNvMs_NtNtCsNhz5SapXcJ_8hayabusa10detections7configsNtB6_12StoredStatic18create_static_datasg_0Ba_
FNDA:0,_RNCNvMs_NtNtCsNhz5SapXcJ_8hayabusa10detections7configsNtB6_12StoredStatic18create_static_datash_0Ba_
FNDA:0,_RNCNvMs_NtNtCsNhz5SapXcJ_8hayabusa10detections7configsNtB6_12StoredStatic18create_static_datasi_0Ba_
FNDA:423,_RNvMs_NtNtCsNhz5SapXcJ_8hayabusa10detections7configsNtB4_12StoredStatic19get_default_details
FNDA:41782,_RNCNvMs_NtNtCsNhz5SapXcJ_8hayabusa10detections7configsNtB6_12StoredStatic19get_default_details0Ba_
FNDA:422,_RNvNtNtCsNhz5SapXcJ_8hayabusa10detections7configs19check_thread_number
FNDA:855,_RNvMs0_NtNtCsNhz5SapXcJ_8hayabusa10detections7configsNtB5_6Action8to_usize
FNDA:844,_RNvXs2_NtNtCsNhz5SapXcJ_8hayabusa10detections7configsNtB5_9TargetIdsNtNtCshEwRaVhoEM3_4core7default7Default7default
FNDA:844,_RNvMs3_NtNtCsNhz5SapXcJ_8hayabusa10detections7configsNtB5_9TargetIds3new
FNDA:23,_RNvMs3_NtNtCsNhz5SapXcJ_8hayabusa10detections7configsNtB5_9TargetIds9is_target
FNDA:422,_RNvNtNtCsNhz5SapXcJ_8hayabusa10detections7configs15load_target_ids
FNDA:6,_RNvMs4_NtNtCsNhz5SapXcJ_8hayabusa10detections7configsNtB5_15TargetEventTime3new
FNDA:10,_RNCNvMs4_NtNtCsNhz5SapXcJ_8hayabusa10detections7configsNtB7_15TargetEventTime3new0Bb_
FNDA:0,_RNCNCNvMs4_NtNtCsNhz5SapXcJ_8hayabusa10detections7configsNtB9_15TargetEventTime3new00Bd_
FNDA:6,_RNCNvMs4_NtNtCsNhz5SapXcJ_8hayabusa10detections7configsNtB7_15TargetEventTime3news_0Bb_
FNDA:14,_RNCNCNvMs4_NtNtCsNhz5SapXcJ_8hayabusa10detections7configsNtB9_15TargetEventTime3news_00Bd_
FNDA:6,_RNCNCNvMs4_NtNtCsNhz5SapXcJ_8hayabusa10detections7configsNtB9_15TargetEventTime3news_0s_0Bd_
FNDA:6,_RNCNCNvMs4_NtNtCsNhz5SapXcJ_8hayabusa10detections7configsNtB9_15TargetEventTime3news_0s0_0Bd_
FNDA:6,_RNCNCNvMs4_NtNtCsNhz5SapXcJ_8hayabusa10detections7configsNtB9_15TargetEventTime3news_0s1_0Bd_
FNDA:6,_RNCNCNvMs4_NtNtCsNhz5SapXcJ_8hayabusa10detections7configsNtB9_15TargetEventTime3news_0s2_0Bd_
FNDA:6,_RNCNCNvMs4_NtNtCsNhz5SapXcJ_8hayabusa10detections7configsNtB9_15TargetEventTime3news_0s3_0Bd_
FNDA:8,_RNvMs4_NtNtCsNhz5SapXcJ_8hayabusa10detections7configsNtB5_15TargetEventTime3set
FNDA:5,_RNvMs4_NtNtCsNhz5SapXcJ_8hayabusa10detections7configsNtB5_15TargetEventTime9is_target
FNDA:447,_RNvMs5_NtNtCsNhz5SapXcJ_8hayabusa10detections7configsNtB5_19EventKeyAliasConfig3new
FNDA:689,_RNvMs5_NtNtCsNhz5SapXcJ_8hayabusa10detections7configsNtB5_19EventKeyAliasConfig13get_event_key
FNDA:580,_RNvMs5_NtNtCsNhz5SapXcJ_8hayabusa10detections7configsNtB5_19EventKeyAliasConfig19get_event_key_split
FNDA:447,_RNvNtNtCsNhz5SapXcJ_8hayabusa10detections7configs19load_eventkey_alias
FNDA:107280,_RNCNvNtNtCsNhz5SapXcJ_8hayabusa10detections7configs19load_eventkey_alias0B7_
FNDA:338379,_RNCNCNvNtNtCsNhz5SapXcJ_8hayabusa10detections7configs19load_eventkey_alias00B9_
FNDA:7,_RNvNtNtCsNhz5SapXcJ_8hayabusa10detections7configs19load_pivot_keywords
FNDA:56,_RNCNvNtNtCsNhz5SapXcJ_8hayabusa10detections7configs19load_pivot_keywords0B7_
FNDA:2,_RNvNtNtCsNhz5SapXcJ_8hayabusa10detections7configs21get_target_extensions
FNDA:33,_RNvNtNtCsNhz5SapXcJ_8hayabusa10detections7configs25convert_option_vecs_to_hs
FNDA:422,_RNvNtNtCsNhz5SapXcJ_8hayabusa10detections7configs22extract_search_options
FNDA:422,_RNvNtNtCsNhz5SapXcJ_8hayabusa10detections7configs22extract_output_options
FNDA:422,_RNvMs8_NtNtCsNhz5SapXcJ_8hayabusa10detections7configsNtB5_9EventInfo3new
FNDA:422,_RNvMsa_NtNtCsNhz5SapXcJ_8hayabusa10detections7configsNtB5_15EventInfoConfig3new
FNDA:2,_RNvMsa_NtNtCsNhz5SapXcJ_8hayabusa10detections7configsNtB5_15EventInfoConfig12get_event_id
FNDA:422,_RNvNtNtCsNhz5SapXcJ_8hayabusa10detections7configs19load_eventcode_info
FNDA:213532,_RNCNvNtNtCsNhz5SapXcJ_8hayabusa10detections7configs19load_eventcode_info0B7_
FNDA:2,_RNvNtNtCsNhz5SapXcJ_8hayabusa10detections7configs31create_control_chat_replace_map
FNDA:64,_RNCNvNtNtCsNhz5SapXcJ_8hayabusa10detections7configs31create_control_chat_replace_map0B7_
FNF:181
FNH:60
DA:50,0
DA:51,0
DA:52,0
DA:97,438
DA:98,438
DA:99,438
DA:100,403
DA:101,9
DA:102,9
DA:104,5
DA:105,5
DA:106,1
DA:107,1
DA:108,3
DA:109,11
DA:111,438
DA:112,403
DA:113,9
DA:114,5
DA:115,5
DA:116,5
DA:117,1
DA:118,0
DA:119,0
DA:120,3
DA:121,1
DA:122,3
DA:123,3
DA:124,3
DA:125,3
DA:126,3
DA:127,3
DA:129,438
DA:130,438
DA:131,403
DA:132,9
DA:133,5
DA:134,5
DA:135,1
DA:136,1
DA:137,3
DA:138,11
DA:140,438
DA:141,403
DA:142,9
DA:143,5
DA:144,5
DA:145,1
DA:146,1
DA:147,3
DA:148,11
DA:150,438
DA:151,403
DA:152,9
DA:153,5
DA:154,5
DA:155,1
DA:156,3
DA:157,12
DA:159,438
DA:160,403
DA:161,403
DA:162,806
DA:163,9
DA:164,9
DA:165,18
DA:166,1
DA:167,1
DA:168,2
DA:169,25
DA:171,438
DA:172,403
DA:173,403
DA:174,0
DA:175,0
DA:176,0
DA:177,0
DA:178,0
DA:179,0
DA:180,0
DA:181,0
DA:183,9
DA:184,9
DA:185,0
DA:186,0
DA:187,0
DA:188,0
DA:189,0
DA:190,0
DA:191,0
DA:192,0
DA:194,1
DA:195,1
DA:196,0
DA:197,0
DA:198,0
DA:200,25
DA:202,438
DA:203,0
DA:204,0
DA:205,438
DA:207,438
DA:208,403
DA:209,403
DA:210,403
DA:211,403
DA:212,403
DA:213,403
DA:214,403
DA:215,403
DA:216,9
DA:217,9
DA:218,9
DA:219,9
DA:220,9
DA:221,9
DA:222,9
DA:223,9
DA:224,26
DA:226,438
DA:227,0
DA:228,0
DA:229,438
DA:230,438
DA:231,2
DA:232,2
DA:233,2
DA:234,2
DA:235,2
DA:236,2
DA:237,2
DA:238,2
DA:239,2
DA:240,2
DA:241,2
DA:242,2
DA:243,2
DA:244,2
DA:245,2
DA:246,2
DA:247,2
DA:248,2
DA:249,2
DA:250,0
DA:251,0
DA:252,0
DA:253,0
DA:254,0
DA:255,2
DA:256,2
DA:257,2
DA:259,2
DA:261,0
DA:262,0
DA:264,2
DA:265,2
DA:266,2
DA:267,2
DA:268,2
DA:269,2
DA:270,2
DA:271,2
DA:272,2
DA:273,2
DA:274,6
DA:275,4
DA:276,4
DA:277,4
DA:278,4
DA:279,4
DA:280,4
DA:281,4
DA:282,4
DA:283,4
DA:284,4
DA:285,4
DA:287,2
DA:288,436
DA:289,438
DA:290,403
DA:291,9
DA:292,5
DA:293,1
DA:294,5
DA:295,1
DA:296,3
DA:297,11
DA:299,438
DA:300,438
DA:301,438
DA:302,0
DA:303,0
DA:304,0
DA:305,0
DA:306,0
DA:307,0
DA:308,438
DA:309,438
DA:310,438
DA:311,438
DA:312,438
DA:313,438
DA:314,403
DA:315,1
DA:316,34
DA:318,438
DA:319,403
DA:320,9
DA:321,26
DA:323,438
DA:324,0
DA:325,0
DA:326,0
DA:327,0
DA:328,0
DA:329,0
DA:330,0
DA:331,0
DA:332,0
DA:333,0
DA:334,0
DA:335,0
DA:336,0
DA:338,438
DA:340,438
DA:342,403
DA:343,403
DA:344,403
DA:345,403
DA:346,403
DA:347,403
DA:348,403
DA:349,403
DA:350,403
DA:351,9
DA:352,9
DA:353,9
DA:354,9
DA:355,9
DA:356,9
DA:357,9
DA:358,9
DA:359,9
DA:360,5
DA:361,5
DA:362,5
DA:363,5
DA:364,5
DA:365,5
DA:366,5
DA:367,5
DA:368,1
DA:369,1
DA:370,1
DA:371,1
DA:372,1
DA:373,1
DA:374,1
DA:375,1
DA:376,5
DA:377,5
DA:378,5
DA:379,5
DA:380,5
DA:381,5
DA:382,5
DA:383,5
DA:384,15
DA:386,438
DA:388,403
DA:389,403
DA:390,403
DA:391,403
DA:392,403
DA:393,403
DA:394,403
DA:395,403
DA:396,403
DA:397,9
DA:398,9
DA:399,9
DA:400,9
DA:401,9
DA:402,9
DA:403,9
DA:404,9
DA:405,9
DA:406,5
DA:407,5
DA:408,5
DA:409,5
DA:410,5
DA:411,5
DA:412,5
DA:413,5
DA:414,1
DA:415,1
DA:416,1
DA:417,1
DA:418,1
DA:419,1
DA:420,1
DA:421,1
DA:422,5
DA:423,5
DA:424,5
DA:425,5
DA:426,5
DA:427,5
DA:428,5
DA:429,5
DA:430,15
DA:432,438
DA:433,403
DA:434,403
DA:435,403
DA:436,403
DA:437,403
DA:438,403
DA:439,403
DA:440,403
DA:441,9
DA:442,9
DA:443,9
DA:444,9
DA:445,9
DA:446,9
DA:447,9
DA:448,9
DA:449,1
DA:450,1
DA:451,1
DA:452,1
DA:453,1
DA:454,1
DA:455,1
DA:456,25
DA:458,438
DA:459,403
DA:460,403
DA:461,403
DA:462,403
DA:463,403
DA:464,403
DA:465,403
DA:466,403
DA:467,9
DA:468,9
DA:469,9
DA:470,9
DA:471,9
DA:472,9
DA:473,9
DA:474,9
DA:475,1
DA:476,1
DA:477,1
DA:478,1
DA:479,1
DA:480,1
DA:481,1
DA:482,25
DA:484,438
DA:485,403
DA:486,9
DA:487,26
DA:489,438
DA:490,0
DA:492,438
DA:493,438
DA:494,438
DA:495,0
DA:496,0
DA:497,0
DA:498,0
DA:499,0
DA:500,0
DA:501,438
DA:502,438
DA:503,438
DA:504,438
DA:507,438
DA:508,403
DA:509,9
DA:510,26
DA:513,438
DA:514,403
DA:515,9
DA:516,5
DA:517,5
DA:518,1
DA:519,1
DA:520,14
DA:522,438
DA:523,403
DA:524,9
DA:525,9
DA:527,5
DA:528,5
DA:529,1
DA:530,1
DA:531,3
DA:532,11
DA:534,438
DA:535,403
DA:536,403
DA:537,403
DA:538,403
DA:539,403
DA:540,403
DA:541,403
DA:542,403
DA:543,9
DA:544,9
DA:545,9
DA:546,9
DA:547,9
DA:548,9
DA:549,9
DA:550,9
DA:551,1
DA:552,1
DA:553,1
DA:554,1
DA:555,1
DA:556,1
DA:557,1
DA:558,25
DA:560,438
DA:561,403
DA:562,9
DA:563,26
DA:565,438
DA:566,438
DA:567,438
DA:568,438
DA:569,438
DA:570,438
DA:571,0
DA:572,0
DA:573,0
DA:574,0
DA:575,0
DA:576,0
DA:577,438
DA:578,438
DA:579,438
DA:580,438
DA:581,438
DA:582,438
DA:583,438
DA:584,438
DA:585,14454
DA:586,438
DA:587,14454
DA:588,438
DA:589,438
DA:590,438
DA:591,0
DA:592,0
DA:593,0
DA:594,0
DA:595,0
DA:596,0
DA:597,438
DA:598,438
DA:599,438
DA:600,438
DA:601,438
DA:602,438
DA:603,438
DA:604,438
DA:605,0
DA:606,0
DA:607,0
DA:608,0
DA:609,0
DA:610,0
DA:611,438
DA:612,438
DA:613,438
DA:614,438
DA:615,438
DA:616,438
DA:617,438
DA:618,0
DA:619,0
DA:620,0
DA:621,0
DA:622,0
DA:623,0
DA:624,438
DA:625,438
DA:626,438
DA:627,438
DA:628,438
DA:629,438
DA:630,438
DA:631,438
DA:632,438
DA:633,438
DA:634,438
DA:635,438
DA:636,438
DA:637,438
DA:638,438
DA:639,438
DA:640,438
DA:641,438
DA:642,438
DA:643,0
DA:644,0
DA:645,0
DA:646,0
DA:647,0
DA:648,0
DA:649,438
DA:650,438
DA:651,438
DA:652,438
DA:653,438
DA:654,438
DA:655,438
DA:656,0
DA:657,0
DA:658,0
DA:659,0
DA:660,0
DA:661,0
DA:662,438
DA:663,438
DA:664,438
DA:665,438
DA:666,438
DA:667,438
DA:668,438
DA:669,438
DA:670,438
DA:671,438
DA:672,438
DA:673,438
DA:674,438
DA:675,438
DA:676,438
DA:677,438
DA:678,438
DA:679,438
DA:680,438
DA:681,438
DA:682,438
DA:683,438
DA:684,438
DA:685,438
DA:686,438
DA:687,438
DA:688,438
DA:689,438
DA:690,438
DA:691,438
DA:692,438
DA:693,438
DA:694,438
DA:695,438
DA:696,438
DA:697,438
DA:698,438
DA:699,438
DA:700,438
DA:701,438
DA:702,438
DA:704,439
DA:705,439
DA:706,439
DA:707,0
DA:708,0
DA:709,0
DA:711,439
DA:712,439
DA:713,439
DA:714,439
DA:715,43366
DA:716,43366
DA:717,43366
DA:719,0
DA:720,0
DA:721,0
DA:724,43366
DA:725,43366
DA:726,43366
DA:728,0
DA:729,0
DA:730,0
DA:734,0
DA:735,0
DA:736,0
DA:739,43366
DA:740,43366
DA:742,0
DA:743,0
DA:744,0
DA:747,43366
DA:748,43366
DA:749,43366
DA:750,43366
DA:751,43366
DA:752,43366
DA:753,439
DA:754,439
DA:757,439
DA:761,438
DA:762,438
DA:763,403
DA:764,9
DA:765,5
DA:766,5
DA:767,1
DA:768,12
DA:770,438
DA:885,887
DA:886,887
DA:887,881
DA:888,813
DA:889,22
DA:890,10
DA:891,10
DA:892,2
DA:893,6
DA:894,10
DA:895,0
DA:896,0
DA:897,0
DA:898,2
DA:899,6
DA:902,6
DA:904,887
DA:905,11
DA:906,11
DA:907,10
DA:908,2
DA:909,2
DA:910,2
DA:911,2
DA:912,0
DA:913,0
DA:914,0
DA:915,0
DA:916,0
DA:917,0
DA:918,0
DA:919,2
DA:922,1
DA:924,11
DA:931,0
DA:935,0
DA:949,0
DA:961,0
DA:965,0
DA:969,0
DA:973,0
DA:1004,0
DA:1025,0
DA:1037,0
DA:1047,0
DA:1060,0
DA:1074,0
DA:1086,0
DA:1090,0
DA:1094,0
DA:1098,0
DA:1102,0
DA:1106,0
DA:1110,0
DA:1114,0
DA:1118,0
DA:1122,0
DA:1126,0
DA:1130,0
DA:1134,0
DA:1153,0
DA:1171,0
DA:1191,0
DA:1195,0
DA:1199,0
DA:1203,0
DA:1207,0
DA:1211,0
DA:1215,0
DA:1219,0
DA:1238,0
DA:1242,0
DA:1246,0
DA:1250,0
DA:1254,0
DA:1258,0
DA:1272,0
DA:1288,0
DA:1300,0
DA:1304,0
DA:1308,0
DA:1315,0
DA:1319,0
DA:1339,0
DA:1343,0
DA:1347,0
DA:1351,0
DA:1355,0
DA:1359,0
DA:1363,0
DA:1367,0
DA:1394,0
DA:1398,0
DA:1402,0
DA:1406,0
DA:1410,0
DA:1414,0
DA:1418,0
DA:1431,0
DA:1447,0
DA:1459,0
DA:1463,0
DA:1467,0
DA:1471,0
DA:1475,0
DA:1482,0
DA:1486,0
DA:1490,0
DA:1494,0
DA:1498,0
DA:1502,0
DA:1506,0
DA:1510,0
DA:1523,0
DA:1531,0
DA:1535,0
DA:1539,0
DA:1543,0
DA:1553,0
DA:1557,0
DA:1561,0
DA:1565,0
DA:1572,0
DA:1576,0
DA:1596,0
DA:1600,0
DA:1614,0
DA:1643,0
DA:1670,0
DA:1674,0
DA:1688,0
DA:1700,0
DA:1704,0
DA:1708,0
DA:1724,0
DA:1728,12
DA:1729,12
DA:1730,12
DA:1731,12
DA:1733,0
DA:1735,12
DA:1736,12
DA:1737,12
DA:1738,12
DA:1739,12
DA:1740,12
DA:1741,12
DA:1742,12
DA:1743,12
DA:1752,879
DA:1753,879
DA:1754,879
DA:1758,879
DA:1759,879
DA:1760,879
DA:1761,879
DA:1762,879
DA:1764,23
DA:1765,23
DA:1766,23
DA:1767,23
DA:1768,0
DA:1769,0
DA:1770,23
DA:1773,438
DA:1774,438
DA:1775,438
DA:1776,438
DA:1777,0
DA:1778,0
DA:1779,0
DA:1780,0
DA:1784,72270
DA:1785,72270
DA:1786,0
DA:1787,72270
DA:1788,72270
DA:1791,438
DA:1792,438
DA:1802,19
DA:1803,19
DA:1804,28
DA:1805,28
DA:1806,6
DA:1807,6
DA:1809,6
DA:1811,0
DA:1812,0
DA:1813,0
DA:1814,0
DA:1818,22
DA:1820,28
DA:1822,19
DA:1823,19
DA:1824,19
DA:1825,6
DA:1826,6
DA:1827,36
DA:1828,36
DA:1829,36
DA:1830,36
DA:1831,36
DA:1832,36
DA:1833,0
DA:1835,36
DA:1837,36
DA:1838,25
DA:1839,11
DA:1840,11
DA:1841,11
DA:1842,11
DA:1843,0
DA:1844,0
DA:1845,0
DA:1846,0
DA:1847,0
DA:1848,0
DA:1851,14
DA:1852,0
DA:1853,0
DA:1854,0
DA:1855,0
DA:1856,0
DA:1857,0
DA:1858,6
DA:1859,6
DA:1860,6
DA:1861,6
DA:1862,6
DA:1863,6
DA:1864,6
DA:1865,6
DA:1866,6
DA:1867,6
DA:1868,6
DA:1869,6
DA:1870,6
DA:1871,6
DA:1872,6
DA:1873,6
DA:1874,6
DA:1875,6
DA:1876,6
DA:1877,6
DA:1878,6
DA:1879,6
DA:1881,0
DA:1882,0
DA:1883,0
DA:1884,0
DA:1885,0
DA:1886,0
DA:1889,13
DA:1891,19
DA:1893,19
DA:1894,19
DA:1895,19
DA:1896,19
DA:1897,6
DA:1898,6
DA:1899,1
DA:1900,1
DA:1901,1
DA:1902,1
DA:1903,1
DA:1905,5
DA:1906,5
DA:1907,5
DA:1908,5
DA:1909,5
DA:1911,6
DA:1912,6
DA:1913,6
DA:1914,6
DA:1915,6
DA:1916,6
DA:1918,3
DA:1919,3
DA:1920,1
DA:1921,1
DA:1922,1
DA:1923,1
DA:1924,1
DA:1926,2
DA:1927,2
DA:1928,2
DA:1929,2
DA:1930,2
DA:1932,3
DA:1933,3
DA:1934,3
DA:1935,3
DA:1936,3
DA:1937,3
DA:1939,1
DA:1940,1
DA:1941,1
DA:1942,1
DA:1943,1
DA:1944,1
DA:1945,1
DA:1947,0
DA:1948,0
DA:1949,0
DA:1950,0
DA:1951,0
DA:1953,1
DA:1954,1
DA:1955,1
DA:1956,1
DA:1957,1
DA:1958,1
DA:1960,3
DA:1961,3
DA:1962,1
DA:1963,1
DA:1964,1
DA:1965,1
DA:1966,1
DA:1968,2
DA:1969,2
DA:1970,2
DA:1971,2
DA:1972,2
DA:1974,3
DA:1975,3
DA:1976,3
DA:1977,3
DA:1978,3
DA:1979,3
DA:1982,2
DA:1983,0
DA:1984,0
DA:1985,0
DA:1986,0
DA:1987,0
DA:1989,2
DA:1991,2
DA:1994,3
DA:1995,1
DA:1996,1
DA:1997,1
DA:1998,1
DA:1999,1
DA:2001,2
DA:2003,3
DA:2006,1
DA:2007,1
DA:2008,1
DA:2009,1
DA:2010,1
DA:2011,1
DA:2013,0
DA:2015,1
DA:2017,0
DA:2019,19
DA:2021,21
DA:2022,21
DA:2023,21
DA:2024,21
DA:2025,21
DA:2026,21
DA:2027,21
DA:2028,21
DA:2029,21
DA:2030,21
DA:2031,21
DA:2033,10
DA:2034,10
DA:2035,10
DA:2037,14
DA:2038,14
DA:2039,0
DA:2040,14
DA:2041,14
DA:2042,5
DA:2043,1
DA:2044,4
DA:2045,9
DA:2046,13
DA:2047,4
DA:2048,1
DA:2049,3
DA:2050,9
DA:2051,12
DA:2052,14
DA:2062,463
DA:2063,463
DA:2064,463
DA:2065,463
DA:2066,463
DA:2067,463
DA:2069,754
DA:2070,754
DA:2071,754
DA:2073,596
DA:2074,596
DA:2075,596
DA:2079,0
DA:2080,0
DA:2081,0
DA:2084,463
DA:2085,463
DA:2086,463
DA:2087,463
DA:2088,463
DA:2089,463
DA:2090,0
DA:2091,0
DA:2092,463
DA:2093,463
DA:2094,111120
DA:2095,111120
DA:2096,0
DA:2097,111120
DA:2098,111120
DA:2099,111120
DA:2100,111120
DA:2101,111120
DA:2102,111120
DA:2103,0
DA:2104,111120
DA:2105,111120
DA:2106,111120
DA:2107,111120
DA:2108,111120
DA:2109,111120
DA:2110,111120
DA:2111,350491
DA:2112,111120
DA:2113,111120
DA:2114,463
DA:2115,463
DA:2116,463
DA:2119,7
DA:2120,7
DA:2121,7
DA:2122,0
DA:2123,0
DA:2124,0
DA:2128,56
DA:2129,56
DA:2130,56
DA:2131,56
DA:2132,0
DA:2133,56
DA:2135,0
DA:2137,56
DA:2138,56
DA:2139,56
DA:2140,56
DA:2141,56
DA:2142,56
DA:2143,56
DA:2144,56
DA:2145,56
DA:2146,56
DA:2147,56
DA:2148,56
DA:2149,56
DA:2150,56
DA:2151,56
DA:2152,56
DA:2153,56
DA:2154,56
DA:2155,7
DA:2158,12
DA:2159,12
DA:2160,12
DA:2161,10
DA:2162,10
DA:2163,2
DA:2164,2
DA:2165,12
DA:2166,12
DA:2169,45
DA:2170,45
DA:2171,45
DA:2172,45
DA:2174,438
DA:2175,438
DA:2176,1
DA:2177,1
DA:2178,1
DA:2179,1
DA:2180,1
DA:2181,1
DA:2182,1
DA:2183,1
DA:2184,1
DA:2185,1
DA:2186,1
DA:2187,1
DA:2188,1
DA:2189,1
DA:2190,1
DA:2191,1
DA:2192,1
DA:2193,1
DA:2194,1
DA:2195,1
DA:2196,1
DA:2197,1
DA:2198,1
DA:2199,1
DA:2200,1
DA:2201,1
DA:2202,434
DA:2204,438
DA:2207,438
DA:2208,438
DA:2209,403
DA:2210,9
DA:2211,1
DA:2212,1
DA:2213,1
DA:2214,1
DA:2215,1
DA:2216,1
DA:2217,1
DA:2218,1
DA:2219,1
DA:2220,1
DA:2221,1
DA:2222,1
DA:2223,1
DA:2224,1
DA:2225,1
DA:2226,1
DA:2227,1
DA:2228,1
DA:2229,1
DA:2230,1
DA:2231,1
DA:2232,1
DA:2233,1
DA:2234,1
DA:2235,1
DA:2236,1
DA:2237,1
DA:2238,1
DA:2239,1
DA:2240,1
DA:2241,1
DA:2242,1
DA:2243,1
DA:2244,1
DA:2245,1
DA:2246,1
DA:2247,1
DA:2248,1
DA:2249,1
DA:2250,1
DA:2251,1
DA:2252,5
DA:2253,5
DA:2254,5
DA:2255,5
DA:2256,5
DA:2257,5
DA:2258,5
DA:2259,5
DA:2260,5
DA:2261,5
DA:2262,5
DA:2263,5
DA:2264,5
DA:2265,5
DA:2266,5
DA:2267,5
DA:2268,5
DA:2269,5
DA:2270,5
DA:2271,5
DA:2272,5
DA:2273,5
DA:2274,5
DA:2275,5
DA:2276,5
DA:2277,5
DA:2278,5
DA:2279,5
DA:2280,5
DA:2281,5
DA:2282,5
DA:2283,5
DA:2284,5
DA:2285,5
DA:2286,5
DA:2287,5
DA:2288,5
DA:2289,5
DA:2290,5
DA:2291,5
DA:2292,5
DA:2293,5
DA:2294,5
DA:2295,5
DA:2296,5
DA:2297,5
DA:2298,5
DA:2299,5
DA:2300,5
DA:2301,5
DA:2302,5
DA:2303,5
DA:2304,5
DA:2305,5
DA:2306,5
DA:2307,5
DA:2308,5
DA:2309,5
DA:2310,5
DA:2311,5
DA:2312,5
DA:2313,5
DA:2314,5
DA:2315,5
DA:2316,5
DA:2317,5
DA:2318,5
DA:2319,5
DA:2320,5
DA:2321,5
DA:2322,5
DA:2323,5
DA:2324,5
DA:2325,5
DA:2326,5
DA:2327,5
DA:2328,5
DA:2329,5
DA:2330,5
DA:2331,5
DA:2332,5
DA:2333,5
DA:2334,3
DA:2335,3
DA:2336,3
DA:2337,3
DA:2338,3
DA:2339,3
DA:2340,3
DA:2341,3
DA:2342,3
DA:2343,3
DA:2344,3
DA:2345,3
DA:2346,3
DA:2347,3
DA:2348,3
DA:2349,3
DA:2350,3
DA:2351,3
DA:2352,3
DA:2353,3
DA:2354,3
DA:2355,3
DA:2356,3
DA:2357,3
DA:2358,3
DA:2359,3
DA:2360,3
DA:2361,3
DA:2362,3
DA:2363,3
DA:2364,3
DA:2365,3
DA:2366,3
DA:2367,3
DA:2368,3
DA:2369,3
DA:2370,3
DA:2371,3
DA:2372,3
DA:2373,3
DA:2374,3
DA:2375,3
DA:2376,3
DA:2377,3
DA:2378,3
DA:2379,3
DA:2380,3
DA:2381,3
DA:2382,3
DA:2383,3
DA:2384,1
DA:2385,1
DA:2386,1
DA:2387,1
DA:2388,1
DA:2389,1
DA:2390,1
DA:2391,1
DA:2392,1
DA:2393,1
DA:2394,1
DA:2395,1
DA:2396,1
DA:2397,1
DA:2398,1
DA:2399,1
DA:2400,1
DA:2401,1
DA:2402,1
DA:2403,1
DA:2404,1
DA:2405,1
DA:2406,1
DA:2407,1
DA:2408,1
DA:2409,1
DA:2410,1
DA:2411,1
DA:2412,1
DA:2413,1
DA:2414,1
DA:2415,1
DA:2416,1
DA:2417,1
DA:2418,1
DA:2419,1
DA:2420,1
DA:2421,1
DA:2422,1
DA:2423,1
DA:2424,1
DA:2425,1
DA:2426,1
DA:2427,1
DA:2428,1
DA:2429,1
DA:2430,1
DA:2431,1
DA:2432,1
DA:2433,1
DA:2434,0
DA:2435,0
DA:2436,0
DA:2437,0
DA:2438,0
DA:2439,0
DA:2440,0
DA:2441,0
DA:2442,0
DA:2443,0
DA:2444,0
DA:2445,0
DA:2446,0
DA:2447,0
DA:2448,0
DA:2449,0
DA:2450,0
DA:2451,0
DA:2452,0
DA:2453,0
DA:2454,0
DA:2455,0
DA:2456,0
DA:2457,0
DA:2458,0
DA:2459,0
DA:2460,0
DA:2461,0
DA:2462,0
DA:2463,0
DA:2464,0
DA:2465,0
DA:2466,0
DA:2467,0
DA:2468,0
DA:2469,0
DA:2470,0
DA:2471,0
DA:2472,0
DA:2473,0
DA:2474,0
DA:2475,0
DA:2476,0
DA:2477,0
DA:2478,0
DA:2479,0
DA:2480,0
DA:2481,0
DA:2482,0
DA:2483,0
DA:2484,0
DA:2485,0
DA:2486,0
DA:2487,0
DA:2488,0
DA:2489,0
DA:2490,3
DA:2491,3
DA:2492,3
DA:2493,3
DA:2494,3
DA:2495,3
DA:2496,3
DA:2497,3
DA:2498,3
DA:2499,3
DA:2500,3
DA:2501,3
DA:2502,3
DA:2503,3
DA:2504,3
DA:2505,3
DA:2506,3
DA:2507,3
DA:2508,3
DA:2509,3
DA:2510,3
DA:2511,3
DA:2512,3
DA:2513,3
DA:2514,3
DA:2515,3
DA:2516,3
DA:2517,3
DA:2518,3
DA:2519,3
DA:2520,3
DA:2521,3
DA:2522,3
DA:2523,3
DA:2524,3
DA:2525,3
DA:2526,3
DA:2527,3
DA:2528,3
DA:2529,3
DA:2530,3
DA:2531,3
DA:2532,3
DA:2533,3
DA:2534,3
DA:2535,3
DA:2536,3
DA:2537,3
DA:2538,3
DA:2539,3
DA:2540,3
DA:2541,3
DA:2542,3
DA:2543,3
DA:2544,3
DA:2545,3
DA:2546,5
DA:2548,438
DA:2556,0
DA:2557,0
DA:2558,0
DA:2562,438
DA:2563,438
DA:2564,438
DA:2565,438
DA:2573,0
DA:2574,0
DA:2575,0
DA:2579,438
DA:2580,438
DA:2581,438
DA:2582,438
DA:2583,438
DA:2584,4
DA:2585,4
DA:2586,4
DA:2587,4
DA:2590,438
DA:2591,438
DA:2592,438
DA:2593,438
DA:2594,438
DA:2595,0
DA:2596,0
DA:2597,0
DA:2602,221628
DA:2603,221628
DA:2604,0
DA:2605,221628
DA:2606,221628
DA:2607,221628
DA:2608,221628
DA:2609,221628
DA:2610,221628
DA:2611,221628
DA:2612,221628
DA:2613,221628
DA:2614,221628
DA:2615,221628
DA:2616,221628
DA:2617,221628
DA:2618,221628
DA:2619,438
DA:2620,438
DA:2622,3
DA:2623,3
DA:2624,3
DA:2625,96
DA:2626,93
DA:2627,93
DA:2628,93
DA:2629,93
DA:2630,93
DA:2631,93
DA:2632,93
DA:2633,93
DA:2634,3
DA:2635,3
DA:2672,1
DA:2673,1
DA:2674,1
DA:2675,1
DA:2676,1
DA:2677,1
DA:2678,1
DA:2679,1
DA:2680,1
DA:2681,1
DA:2682,1
DA:2683,1
DA:2684,1
DA:2687,1
DA:2688,1
DA:2689,1
DA:2690,1
DA:2691,1
DA:2692,1
DA:2693,1
DA:2694,1
DA:2697,1
DA:2698,1
DA:2699,1
DA:2700,1
DA:2701,1
DA:2702,1
DA:2703,3
DA:2704,3
DA:2706,1
DA:2709,1
DA:2710,1
DA:2711,1
DA:2712,1
DA:2713,1
DA:2714,1
DA:2716,1
DA:2719,1
DA:2720,1
DA:2721,32
DA:2722,32
DA:2723,32
DA:2724,32
DA:2725,32
DA:2726,32
DA:2727,32
DA:2728,32
DA:2729,32
DA:2730,1
DA:2731,1
DA:2732,1
DA:2733,1
DA:2736,1
DA:2737,1
DA:2738,1
DA:2739,1
DA:2740,1
DA:2741,1
DA:2742,1
DA:2743,1
DA:2744,1
DA:2745,1
DA:2746,1
DA:2747,1
DA:2748,1
DA:2749,1
DA:2750,1
DA:2751,1
DA:2752,1
DA:2753,1
DA:2754,1
DA:2755,1
DA:2756,1
DA:2757,1
DA:2758,1
DA:2759,1
DA:2760,1
DA:2761,1
DA:2762,1
DA:2763,1
DA:2764,1
DA:2765,1
DA:2766,1
DA:2767,1
DA:2768,1
DA:2769,1
DA:2770,1
DA:2771,1
DA:2772,1
DA:2773,1
DA:2774,1
DA:2775,1
DA:2776,1
DA:2777,1
DA:2778,1
DA:2779,1
DA:2780,1
DA:2781,1
DA:2782,1
DA:2783,1
DA:2784,1
DA:2785,1
DA:2786,1
DA:2787,1
DA:2788,1
DA:2789,1
DA:2790,1
DA:2791,1
DA:2792,1
DA:2793,1
DA:2794,1
DA:2795,1
DA:2796,1
DA:2797,1
DA:2798,1
DA:2799,1
DA:2800,1
DA:2801,1
DA:2802,1
DA:2803,1
DA:2804,1
DA:2805,1
DA:2806,1
DA:2807,1
DA:2808,1
DA:2809,1
DA:2812,1
DA:2813,1
DA:2814,1
DA:2815,1
DA:2816,1
DA:2817,1
DA:2818,1
DA:2819,1
DA:2820,1
DA:2821,1
DA:2822,1
DA:2823,1
DA:2824,1
DA:2825,1
DA:2826,1
DA:2827,1
DA:2828,1
DA:2829,1
DA:2830,1
DA:2831,1
DA:2832,1
DA:2833,1
DA:2834,1
DA:2835,1
DA:2836,1
DA:2837,1
DA:2838,1
DA:2839,1
DA:2840,1
DA:2841,1
DA:2842,1
DA:2843,1
DA:2844,1
DA:2845,1
DA:2846,1
DA:2847,1
DA:2848,1
DA:2849,1
DA:2850,1
DA:2851,1
DA:2852,1
DA:2853,1
DA:2854,1
DA:2855,1
DA:2856,1
DA:2857,1
DA:2858,1
DA:2859,1
DA:2860,1
DA:2861,1
DA:2862,1
DA:2863,1
DA:2864,1
DA:2865,1
DA:2866,1
DA:2867,1
DA:2868,1
DA:2869,1
DA:2870,1
DA:2871,1
DA:2872,1
DA:2873,1
DA:2874,1
DA:2875,1
DA:2876,1
DA:2877,1
DA:2878,1
DA:2879,1
DA:2880,1
DA:2881,1
DA:2882,1
DA:2883,1
DA:2884,1
DA:2885,1
DA:2888,1
DA:2889,1
DA:2890,1
DA:2891,1
DA:2892,1
DA:2893,1
DA:2894,1
DA:2895,1
DA:2896,1
DA:2897,1
DA:2898,1
DA:2899,1
DA:2900,1
DA:2901,1
DA:2902,1
DA:2903,1
DA:2904,1
DA:2905,1
DA:2906,1
DA:2907,1
DA:2908,1
DA:2909,1
DA:2910,1
DA:2911,1
DA:2912,1
DA:2913,1
DA:2914,1
DA:2915,1
DA:2916,1
DA:2917,1
DA:2918,1
DA:2919,1
DA:2920,1
DA:2921,1
DA:2922,1
DA:2923,1
DA:2924,1
DA:2925,1
DA:2926,1
DA:2927,1
DA:2928,1
DA:2929,1
DA:2930,1
DA:2931,1
DA:2932,1
DA:2935,1
DA:2936,1
DA:2937,1
DA:2938,1
DA:2939,1
DA:2940,1
DA:2941,1
DA:2942,1
DA:2943,1
DA:2944,1
DA:2945,1
DA:2946,1
DA:2947,1
DA:2948,1
DA:2949,1
DA:2950,1
DA:2951,1
DA:2952,1
DA:2953,1
DA:2954,1
DA:2955,1
DA:2956,1
DA:2957,1
DA:2958,1
DA:2959,1
DA:2960,1
DA:2961,1
DA:2962,1
DA:2963,1
DA:2964,1
DA:2965,1
DA:2966,1
DA:2967,1
DA:2968,1
DA:2969,1
DA:2970,1
DA:2971,1
DA:2972,1
DA:2973,1
DA:2974,1
DA:2975,1
DA:2976,1
DA:2979,1
DA:2980,1
DA:2981,1
DA:2982,1
DA:2983,1
DA:2984,1
DA:2985,1
DA:2986,1
DA:2987,1
DA:2988,1
DA:2989,1
DA:2990,1
DA:2991,1
DA:2992,1
DA:2993,1
DA:2994,1
DA:2995,1
DA:2996,1
DA:2997,1
DA:2998,1
DA:2999,1
DA:3000,1
DA:3001,1
DA:3002,1
DA:3003,1
DA:3004,1
DA:3005,1
DA:3006,1
DA:3007,1
DA:3008,1
DA:3009,1
DA:3010,1
DA:3011,1
DA:3012,1
DA:3013,1
DA:3014,1
DA:3015,1
DA:3016,1
DA:3017,1
DA:3018,1
DA:3019,1
DA:3020,1
DA:3021,1
DA:3022,1
DA:3023,1
DA:3024,1
DA:3026,1
DA:3029,1
DA:3030,1
DA:3031,1
DA:3032,1
DA:3033,1
DA:3034,1
DA:3035,1
DA:3036,1
DA:3037,1
DA:3038,1
DA:3039,1
DA:3040,1
DA:3041,1
DA:3042,1
DA:3043,1
DA:3044,1
DA:3045,1
DA:3046,1
DA:3047,1
DA:3048,1
DA:3049,1
DA:3050,1
DA:3051,1
DA:3052,1
DA:3053,1
DA:3054,1
DA:3055,1
DA:3056,1
DA:3057,1
DA:3058,1
DA:3059,1
DA:3060,1
DA:3061,1
DA:3062,1
DA:3063,1
DA:3064,1
DA:3065,1
DA:3066,1
DA:3067,1
DA:3068,1
DA:3069,1
DA:3070,1
DA:3071,1
DA:3072,1
DA:3073,1
DA:3074,1
DA:3075,1
DA:3076,1
DA:3077,1
DA:3078,1
DA:3079,1
DA:3080,1
DA:3082,1
BRF:0
BRH:0
LF:1970
LH:1575
end_of_record
SF:D:\opensource\hayabusa\src\detections\detection.rs
FN:55,_RNvMNtNtCs5DPfXlAluY4_8hayabusa10detections9detectionNtB2_14EvtxRecordInfo9get_value
FN:66,_RNvMs_NtNtCs5DPfXlAluY4_8hayabusa10detections9detectionNtB4_9Detection3new
FN:70,_RNvMs_NtNtCs5DPfXlAluY4_8hayabusa10detections9detectionNtB4_9Detection5start
FN:75,_RNvMs_NtNtCs5DPfXlAluY4_8hayabusa10detections9detectionNtB4_9Detection16parse_rule_files
FN:105,_RNCNvMs_NtNtCs5DPfXlAluY4_8hayabusa10detections9detectionNtB6_9Detection16parse_rule_files0Ba_
FN:112,_RNCNCNvMs_NtNtCs5DPfXlAluY4_8hayabusa10detections9detectionNtB8_9Detection16parse_rule_files00Bc_
FN:117,_RNCNCNCNvMs_NtNtCs5DPfXlAluY4_8hayabusa10detections9detectionNtBa_9Detection16parse_rule_files000Be_
FN:127,_RNCNCNCNvMs_NtNtCs5DPfXlAluY4_8hayabusa10detections9detectionNtBa_9Detection16parse_rule_files00s_0Be_
FN:142,_RNCNvMs_NtNtCs5DPfXlAluY4_8hayabusa10detections9detectionNtB6_9Detection16parse_rule_filess_0Ba_
FN:162,_RNvMs_NtNtCs5DPfXlAluY4_8hayabusa10detections9detectionNtB4_9Detection13execute_rules
FN:162,_RNCNvMs_NtNtCs5DPfXlAluY4_8hayabusa10detections9detectionNtB6_9Detection13execute_rules0Ba_
FN:168,_RNCNCNvMs_NtNtCs5DPfXlAluY4_8hayabusa10detections9detectionNtB8_9Detection13execute_rules00Bc_
FN:170,_RNCNCNCNvMs_NtNtCs5DPfXlAluY4_8hayabusa10detections9detectionNtBa_9Detection13execute_rules000Be_
FN:193,_RNvMs_NtNtCs5DPfXlAluY4_8hayabusa10detections9detectionNtB4_9Detection22add_aggcondition_msges
FN:201,_RNvMs_NtNtCs5DPfXlAluY4_8hayabusa10detections9detectionNtB4_9Detection20add_aggcondition_msg
FN:201,_RNCNvMs_NtNtCs5DPfXlAluY4_8hayabusa10detections9detectionNtB6_9Detection20add_aggcondition_msg0Ba_
FN:217,_RNvMs_NtNtCs5DPfXlAluY4_8hayabusa10detections9detectionNtB4_9Detection12execute_rule
FN:256,_RNvMs_NtNtCs5DPfXlAluY4_8hayabusa10detections9detectionNtB4_9Detection17create_log_record
FN:267,_RNCNvMs_NtNtCs5DPfXlAluY4_8hayabusa10detections9detectionNtB6_9Detection17create_log_record0Ba_
FN:288,_RNCNvMs_NtNtCs5DPfXlAluY4_8hayabusa10detections9detectionNtB6_9Detection17create_log_records_0Ba_
FN:404,_RNCNvMs_NtNtCs5DPfXlAluY4_8hayabusa10detections9detectionNtB6_9Detection17create_log_records0_0Ba_
FN:409,_RNCNvMs_NtNtCs5DPfXlAluY4_8hayabusa10detections9detectionNtB6_9Detection17create_log_records1_0Ba_
FN:420,_RNCNvMs_NtNtCs5DPfXlAluY4_8hayabusa10detections9detectionNtB6_9Detection17create_log_records2_0Ba_
FN:439,_RNCNvMs_NtNtCs5DPfXlAluY4_8hayabusa10detections9detectionNtB6_9Detection17create_log_records3_0Ba_
FN:445,_RNCNvMs_NtNtCs5DPfXlAluY4_8hayabusa10detections9detectionNtB6_9Detection17create_log_records4_0Ba_
FN:455,_RNCNvMs_NtNtCs5DPfXlAluY4_8hayabusa10detections9detectionNtB6_9Detection17create_log_records5_0Ba_
FN:470,_RNCNvMs_NtNtCs5DPfXlAluY4_8hayabusa10detections9detectionNtB6_9Detection17create_log_records6_0Ba_
FN:548,_RNCNvMs_NtNtCs5DPfXlAluY4_8hayabusa10detections9detectionNtB6_9Detection17create_log_records7_0Ba_
FN:577,_RNCNvMs_NtNtCs5DPfXlAluY4_8hayabusa10detections9detectionNtB6_9Detection17create_log_records8_0Ba_
FN:598,_RNCNvMs_NtNtCs5DPfXlAluY4_8hayabusa10detections9detectionNtB6_9Detection17create_log_records9_0Ba_
FN:616,_RNCNvMs_NtNtCs5DPfXlAluY4_8hayabusa10detections9detectionNtB6_9Detection17create_log_recordsa_0Ba_
FN:619,_RNCNvMs_NtNtCs5DPfXlAluY4_8hayabusa10detections9detectionNtB6_9Detection17create_log_recordsb_0Ba_
FN:620,_RNCNvMs_NtNtCs5DPfXlAluY4_8hayabusa10detections9detectionNtB6_9Detection17create_log_recordsc_0Ba_
FN:625,_RNCNvMs_NtNtCs5DPfXlAluY4_8hayabusa10detections9detectionNtB6_9Detection17create_log_recordsd_0Ba_
FN:650,_RNCNvMs_NtNtCs5DPfXlAluY4_8hayabusa10detections9detectionNtB6_9Detection17create_log_recordse_0Ba_
FN:672,_RNCNvMs_NtNtCs5DPfXlAluY4_8hayabusa10detections9detectionNtB6_9Detection17create_log_recordsf_0Ba_
FN:691,_RNCNvMs_NtNtCs5DPfXlAluY4_8hayabusa10detections9detectionNtB6_9Detection17create_log_recordsg_0Ba_
FN:694,_RNCNvMs_NtNtCs5DPfXlAluY4_8hayabusa10detections9detectionNtB6_9Detection17create_log_recordsh_0Ba_
FN:695,_RNCNvMs_NtNtCs5DPfXlAluY4_8hayabusa10detections9detectionNtB6_9Detection17create_log_recordsi_0Ba_
FN:700,_RNCNvMs_NtNtCs5DPfXlAluY4_8hayabusa10detections9detectionNtB6_9Detection17create_log_recordsj_0Ba_
FN:763,_RNvMs_NtNtCs5DPfXlAluY4_8hayabusa10detections9detectionNtB4_9Detection21create_agg_log_record
FN:841,_RNCNvMs_NtNtCs5DPfXlAluY4_8hayabusa10detections9detectionNtB6_9Detection21create_agg_log_record0Ba_
FN:848,_RNCNvMs_NtNtCs5DPfXlAluY4_8hayabusa10detections9detectionNtB6_9Detection21create_agg_log_records_0Ba_
FN:854,_RNCNvMs_NtNtCs5DPfXlAluY4_8hayabusa10detections9detectionNtB6_9Detection21create_agg_log_records0_0Ba_
FN:864,_RNCNvMs_NtNtCs5DPfXlAluY4_8hayabusa10detections9detectionNtB6_9Detection21create_agg_log_records1_0Ba_
FN:879,_RNCNvMs_NtNtCs5DPfXlAluY4_8hayabusa10detections9detectionNtB6_9Detection21create_agg_log_records2_0Ba_
FN:988,_RNvMs_NtNtCs5DPfXlAluY4_8hayabusa10detections9detectionNtB4_9Detection12get_tag_info
FN:994,_RNCNvMs_NtNtCs5DPfXlAluY4_8hayabusa10detections9detectionNtB6_9Detection12get_tag_info0Ba_
FN:1005,_RNvMs_NtNtCs5DPfXlAluY4_8hayabusa10detections9detectionNtB4_9Detection19create_count_output
FN:1058,_RNvMs_NtNtCs5DPfXlAluY4_8hayabusa10detections9detectionNtB4_9Detection20print_rule_load_info
FN:1066,_RNCNvMs_NtNtCs5DPfXlAluY4_8hayabusa10detections9detectionNtB6_9Detection20print_rule_load_info0Ba_
FN:1069,_RNCNvMs_NtNtCs5DPfXlAluY4_8hayabusa10detections9detectionNtB6_9Detection20print_rule_load_infos_0Ba_
FN:1110,_RNCNvMs_NtNtCs5DPfXlAluY4_8hayabusa10detections9detectionNtB6_9Detection20print_rule_load_infos0_0Ba_
FN:1116,_RNCNvMs_NtNtCs5DPfXlAluY4_8hayabusa10detections9detectionNtB6_9Detection20print_rule_load_infos1_0Ba_
FN:1117,_RNCNvMs_NtNtCs5DPfXlAluY4_8hayabusa10detections9detectionNtB6_9Detection20print_rule_load_infos2_0Ba_
FN:1119,_RNCNvMs_NtNtCs5DPfXlAluY4_8hayabusa10detections9detectionNtB6_9Detection20print_rule_load_infos3_0Ba_
FN:1120,_RNCNvMs_NtNtCs5DPfXlAluY4_8hayabusa10detections9detectionNtB6_9Detection20print_rule_load_infos4_0Ba_
FN:1151,_RNCNvMs_NtNtCs5DPfXlAluY4_8hayabusa10detections9detectionNtB6_9Detection20print_rule_load_infos5_0Ba_
FN:1152,_RNCNvMs_NtNtCs5DPfXlAluY4_8hayabusa10detections9detectionNtB6_9Detection20print_rule_load_infos6_0Ba_
FN:1185,_RNvMs_NtNtCs5DPfXlAluY4_8hayabusa10detections9detectionNtB4_9Detection14get_alias_data
FN:66,_RNvMs_NtNtCsNhz5SapXcJ_8hayabusa10detections9detectionNtB4_9Detection3new
FN:70,_RNvMs_NtNtCsNhz5SapXcJ_8hayabusa10detections9detectionNtB4_9Detection5start
FN:162,_RNvMs_NtNtCsNhz5SapXcJ_8hayabusa10detections9detectionNtB4_9Detection13execute_rules
FN:162,_RNCNvMs_NtNtCsNhz5SapXcJ_8hayabusa10detections9detectionNtB6_9Detection13execute_rules0Ba_
FN:168,_RNCNCNvMs_NtNtCsNhz5SapXcJ_8hayabusa10detections9detectionNtB8_9Detection13execute_rules00Bc_
FN:170,_RNCNCNCNvMs_NtNtCsNhz5SapXcJ_8hayabusa10detections9detectionNtBa_9Detection13execute_rules000Be_
FN:193,_RNvMs_NtNtCsNhz5SapXcJ_8hayabusa10detections9detectionNtB4_9Detection22add_aggcondition_msges
FN:201,_RNvMs_NtNtCsNhz5SapXcJ_8hayabusa10detections9detectionNtB4_9Detection20add_aggcondition_msg
FN:201,_RNCNvMs_NtNtCsNhz5SapXcJ_8hayabusa10detections9detectionNtB6_9Detection20add_aggcondition_msg0Ba_
FN:217,_RNvMs_NtNtCsNhz5SapXcJ_8hayabusa10detections9detectionNtB4_9Detection12execute_rule
FN:763,_RNvMs_NtNtCsNhz5SapXcJ_8hayabusa10detections9detectionNtB4_9Detection21create_agg_log_record
FN:841,_RNCNvMs_NtNtCsNhz5SapXcJ_8hayabusa10detections9detectionNtB6_9Detection21create_agg_log_record0Ba_
FN:848,_RNCNvMs_NtNtCsNhz5SapXcJ_8hayabusa10detections9detectionNtB6_9Detection21create_agg_log_records_0Ba_
FN:854,_RNCNvMs_NtNtCsNhz5SapXcJ_8hayabusa10detections9detectionNtB6_9Detection21create_agg_log_records0_0Ba_
FN:864,_RNCNvMs_NtNtCsNhz5SapXcJ_8hayabusa10detections9detectionNtB6_9Detection21create_agg_log_records1_0Ba_
FN:879,_RNCNvMs_NtNtCsNhz5SapXcJ_8hayabusa10detections9detectionNtB6_9Detection21create_agg_log_records2_0Ba_
FN:55,_RNvMNtNtCsNhz5SapXcJ_8hayabusa10detections9detectionNtB2_14EvtxRecordInfo9get_value
FN:75,_RNvMs_NtNtCsNhz5SapXcJ_8hayabusa10detections9detectionNtB4_9Detection16parse_rule_files
FN:105,_RNCNvMs_NtNtCsNhz5SapXcJ_8hayabusa10detections9detectionNtB6_9Detection16parse_rule_files0Ba_
FN:112,_RNCNCNvMs_NtNtCsNhz5SapXcJ_8hayabusa10detections9detectionNtB8_9Detection16parse_rule_files00Bc_
FN:117,_RNCNCNCNvMs_NtNtCsNhz5SapXcJ_8hayabusa10detections9detectionNtBa_9Detection16parse_rule_files000Be_
FN:127,_RNCNCNCNvMs_NtNtCsNhz5SapXcJ_8hayabusa10detections9detectionNtBa_9Detection16parse_rule_files00s_0Be_
FN:142,_RNCNvMs_NtNtCsNhz5SapXcJ_8hayabusa10detections9detectionNtB6_9Detection16parse_rule_filess_0Ba_
FN:256,_RNvMs_NtNtCsNhz5SapXcJ_8hayabusa10detections9detectionNtB4_9Detection17create_log_record
FN:267,_RNCNvMs_NtNtCsNhz5SapXcJ_8hayabusa10detections9detectionNtB6_9Detection17create_log_record0Ba_
FN:288,_RNCNvMs_NtNtCsNhz5SapXcJ_8hayabusa10detections9detectionNtB6_9Detection17create_log_records_0Ba_
FN:404,_RNCNvMs_NtNtCsNhz5SapXcJ_8hayabusa10detections9detectionNtB6_9Detection17create_log_records0_0Ba_
FN:409,_RNCNvMs_NtNtCsNhz5SapXcJ_8hayabusa10detections9detectionNtB6_9Detection17create_log_records1_0Ba_
FN:420,_RNCNvMs_NtNtCsNhz5SapXcJ_8hayabusa10detections9detectionNtB6_9Detection17create_log_records2_0Ba_
FN:439,_RNCNvMs_NtNtCsNhz5SapXcJ_8hayabusa10detections9detectionNtB6_9Detection17create_log_records3_0Ba_
FN:445,_RNCNvMs_NtNtCsNhz5SapXcJ_8hayabusa10detections9detectionNtB6_9Detection17create_log_records4_0Ba_
FN:455,_RNCNvMs_NtNtCsNhz5SapXcJ_8hayabusa10detections9detectionNtB6_9Detection17create_log_records5_0Ba_
FN:470,_RNCNvMs_NtNtCsNhz5SapXcJ_8hayabusa10detections9detectionNtB6_9Detection17create_log_records6_0Ba_
FN:548,_RNCNvMs_NtNtCsNhz5SapXcJ_8hayabusa10detections9detectionNtB6_9Detection17create_log_records7_0Ba_
FN:577,_RNCNvMs_NtNtCsNhz5SapXcJ_8hayabusa10detections9detectionNtB6_9Detection17create_log_records8_0Ba_
FN:598,_RNCNvMs_NtNtCsNhz5SapXcJ_8hayabusa10detections9detectionNtB6_9Detection17create_log_records9_0Ba_
FN:616,_RNCNvMs_NtNtCsNhz5SapXcJ_8hayabusa10detections9detectionNtB6_9Detection17create_log_recordsa_0Ba_
FN:619,_RNCNvMs_NtNtCsNhz5SapXcJ_8hayabusa10detections9detectionNtB6_9Detection17create_log_recordsb_0Ba_
FN:620,_RNCNvMs_NtNtCsNhz5SapXcJ_8hayabusa10detections9detectionNtB6_9Detection17create_log_recordsc_0Ba_
FN:625,_RNCNvMs_NtNtCsNhz5SapXcJ_8hayabusa10detections9detectionNtB6_9Detection17create_log_recordsd_0Ba_
FN:650,_RNCNvMs_NtNtCsNhz5SapXcJ_8hayabusa10detections9detectionNtB6_9Detection17create_log_recordse_0Ba_
FN:672,_RNCNvMs_NtNtCsNhz5SapXcJ_8hayabusa10detections9detectionNtB6_9Detection17create_log_recordsf_0Ba_
FN:691,_RNCNvMs_NtNtCsNhz5SapXcJ_8hayabusa10detections9detectionNtB6_9Detection17create_log_recordsg_0Ba_
FN:694,_RNCNvMs_NtNtCsNhz5SapXcJ_8hayabusa10detections9detectionNtB6_9Detection17create_log_recordsh_0Ba_
FN:695,_RNCNvMs_NtNtCsNhz5SapXcJ_8hayabusa10detections9detectionNtB6_9Detection17create_log_recordsi_0Ba_
FN:700,_RNCNvMs_NtNtCsNhz5SapXcJ_8hayabusa10detections9detectionNtB6_9Detection17create_log_recordsj_0Ba_
FN:988,_RNvMs_NtNtCsNhz5SapXcJ_8hayabusa10detections9detectionNtB4_9Detection12get_tag_info
FN:994,_RNCNvMs_NtNtCsNhz5SapXcJ_8hayabusa10detections9detectionNtB6_9Detection12get_tag_info0Ba_
FN:1005,_RNvMs_NtNtCsNhz5SapXcJ_8hayabusa10detections9detectionNtB4_9Detection19create_count_output
FN:1058,_RNvMs_NtNtCsNhz5SapXcJ_8hayabusa10detections9detectionNtB4_9Detection20print_rule_load_info
FN:1066,_RNCNvMs_NtNtCsNhz5SapXcJ_8hayabusa10detections9detectionNtB6_9Detection20print_rule_load_info0Ba_
FN:1069,_RNCNvMs_NtNtCsNhz5SapXcJ_8hayabusa10detections9detectionNtB6_9Detection20print_rule_load_infos_0Ba_
FN:1110,_RNCNvMs_NtNtCsNhz5SapXcJ_8hayabusa10detections9detectionNtB6_9Detection20print_rule_load_infos0_0Ba_
FN:1116,_RNCNvMs_NtNtCsNhz5SapXcJ_8hayabusa10detections9detectionNtB6_9Detection20print_rule_load_infos1_0Ba_
FN:1117,_RNCNvMs_NtNtCsNhz5SapXcJ_8hayabusa10detections9detectionNtB6_9Detection20print_rule_load_infos2_0Ba_
FN:1119,_RNCNvMs_NtNtCsNhz5SapXcJ_8hayabusa10detections9detectionNtB6_9Detection20print_rule_load_infos3_0Ba_
FN:1120,_RNCNvMs_NtNtCsNhz5SapXcJ_8hayabusa10detections9detectionNtB6_9Detection20print_rule_load_infos4_0Ba_
FN:1151,_RNCNvMs_NtNtCsNhz5SapXcJ_8hayabusa10detections9detectionNtB6_9Detection20print_rule_load_infos5_0Ba_
FN:1152,_RNCNvMs_NtNtCsNhz5SapXcJ_8hayabusa10detections9detectionNtB6_9Detection20print_rule_load_infos6_0Ba_
FN:1185,_RNvMs_NtNtCsNhz5SapXcJ_8hayabusa10detections9detectionNtB4_9Detection14get_alias_data
FN:1237,_RNvNtNtNtCsNhz5SapXcJ_8hayabusa10detections9detection5tests26create_dummy_stored_static
FN:1309,_RNvNtNtNtCsNhz5SapXcJ_8hayabusa10detections9detection5testss_21test_parse_rule_files
FN:1324,_RNvNtNtNtCsNhz5SapXcJ_8hayabusa10detections9detection5testss_42test_output_aggregation_output_with_output
FN:1352,_RNvNtNtNtCsNhz5SapXcJ_8hayabusa10detections9detection5testss_42test_output_aggregation_output_no_filed_by
FN:1379,_RNvNtNtNtCsNhz5SapXcJ_8hayabusa10detections9detection5testss_45test_output_aggregation_output_with_timeframe
FN:1408,_RNvNtNtNtCsNhz5SapXcJ_8hayabusa10detections9detection5testss_41test_output_aggregation_output_with_field
FN:1438,_RNvNtNtNtCsNhz5SapXcJ_8hayabusa10detections9detection5testss_44test_output_aggregation_output_with_field_by
FN:1467,_RNvNtNtNtCsNhz5SapXcJ_8hayabusa10detections9detection5testss_38test_output_aggregation_output_with_by
FN:1498,_RNvNtNtNtCsNhz5SapXcJ_8hayabusa10detections9detection5testss_30test_insert_message_with_geoip
FN:1635,_RNvNtNtNtCsNhz5SapXcJ_8hayabusa10detections9detection5testss_39test_filtered_insert_message_with_geoip
FN:1768,_RNvNtNtNtCsNhz5SapXcJ_8hayabusa10detections9detection5testss_36test_insert_message_extra_field_info
FN:1916,_RNvNtNtNtCsNhz5SapXcJ_8hayabusa10detections9detection5testss_40test_insert_message_multiline_ruleauthor
FN:2051,_RNCNvNtNtNtCsNhz5SapXcJ_8hayabusa10detections9detection5testss_40test_insert_message_multiline_ruleauthor0B9_
FNDA:7,_RNvMNtNtCs5DPfXlAluY4_8hayabusa10detections9detectionNtB2_14EvtxRecordInfo9get_value
FNDA:8,_RNvMs_NtNtCs5DPfXlAluY4_8hayabusa10detections9detectionNtB4_9Detection3new
FNDA:4,_RNvMs_NtNtCs5DPfXlAluY4_8hayabusa10detections9detectionNtB4_9Detection5start
FNDA:2,_RNvMs_NtNtCs5DPfXlAluY4_8hayabusa10detections9detectionNtB4_9Detection16parse_rule_files
FNDA:2,_RNCNvMs_NtNtCs5DPfXlAluY4_8hayabusa10detections9detectionNtB6_9Detection16parse_rule_files0Ba_
FNDA:0,_RNCNCNvMs_NtNtCs5DPfXlAluY4_8hayabusa10detections9detectionNtB8_9Detection16parse_rule_files00Bc_
FNDA:0,_RNCNCNCNvMs_NtNtCs5DPfXlAluY4_8hayabusa10detections9detectionNtBa_9Detection16parse_rule_files000Be_
FNDA:0,_RNCNCNCNvMs_NtNtCs5DPfXlAluY4_8hayabusa10detections9detectionNtBa_9Detection16parse_rule_files00s_0Be_
FNDA:2,_RNCNvMs_NtNtCs5DPfXlAluY4_8hayabusa10detections9detectionNtB6_9Detection16parse_rule_filess_0Ba_
FNDA:4,_RNvMs_NtNtCs5DPfXlAluY4_8hayabusa10detections9detectionNtB4_9Detection13execute_rules
FNDA:4,_RNCNvMs_NtNtCs5DPfXlAluY4_8hayabusa10detections9detectionNtB6_9Detection13execute_rules0Ba_
FNDA:4,_RNCNCNvMs_NtNtCs5DPfXlAluY4_8hayabusa10detections9detectionNtB8_9Detection13execute_rules00Bc_
FNDA:4,_RNCNCNCNvMs_NtNtCs5DPfXlAluY4_8hayabusa10detections9detectionNtBa_9Detection13execute_rules000Be_
FNDA:2,_RNvMs_NtNtCs5DPfXlAluY4_8hayabusa10detections9detectionNtB4_9Detection22add_aggcondition_msges
FNDA:2,_RNvMs_NtNtCs5DPfXlAluY4_8hayabusa10detections9detectionNtB4_9Detection20add_aggcondition_msg
FNDA:2,_RNCNvMs_NtNtCs5DPfXlAluY4_8hayabusa10detections9detectionNtB6_9Detection20add_aggcondition_msg0Ba_
FNDA:4,_RNvMs_NtNtCs5DPfXlAluY4_8hayabusa10detections9detectionNtB4_9Detection12execute_rule
FNDA:5,_RNvMs_NtNtCs5DPfXlAluY4_8hayabusa10detections9detectionNtB4_9Detection17create_log_record
FNDA:35,_RNCNvMs_NtNtCs5DPfXlAluY4_8hayabusa10detections9detectionNtB6_9Detection17create_log_record0Ba_
FNDA:0,_RNCNvMs_NtNtCs5DPfXlAluY4_8hayabusa10detections9detectionNtB6_9Detection17create_log_records_0Ba_
FNDA:0,_RNCNvMs_NtNtCs5DPfXlAluY4_8hayabusa10detections9detectionNtB6_9Detection17create_log_records0_0Ba_
FNDA:0,_RNCNvMs_NtNtCs5DPfXlAluY4_8hayabusa10detections9detectionNtB6_9Detection17create_log_records1_0Ba_
FNDA:0,_RNCNvMs_NtNtCs5DPfXlAluY4_8hayabusa10detections9detectionNtB6_9Detection17create_log_records2_0Ba_
FNDA:0,_RNCNvMs_NtNtCs5DPfXlAluY4_8hayabusa10detections9detectionNtB6_9Detection17create_log_records3_0Ba_
FNDA:0,_RNCNvMs_NtNtCs5DPfXlAluY4_8hayabusa10detections9detectionNtB6_9Detection17create_log_records4_0Ba_
FNDA:0,_RNCNvMs_NtNtCs5DPfXlAluY4_8hayabusa10detections9detectionNtB6_9Detection17create_log_records5_0Ba_
FNDA:0,_RNCNvMs_NtNtCs5DPfXlAluY4_8hayabusa10detections9detectionNtB6_9Detection17create_log_records6_0Ba_
FNDA:0,_RNCNvMs_NtNtCs5DPfXlAluY4_8hayabusa10detections9detectionNtB6_9Detection17create_log_records7_0Ba_
FNDA:0,_RNCNvMs_NtNtCs5DPfXlAluY4_8hayabusa10detections9detectionNtB6_9Detection17create_log_records8_0Ba_
FNDA:0,_RNCNvMs_NtNtCs5DPfXlAluY4_8hayabusa10detections9detectionNtB6_9Detection17create_log_records9_0Ba_
FNDA:0,_RNCNvMs_NtNtCs5DPfXlAluY4_8hayabusa10detections9detectionNtB6_9Detection17create_log_recordsa_0Ba_
FNDA:0,_RNCNvMs_NtNtCs5DPfXlAluY4_8hayabusa10detections9detectionNtB6_9Detection17create_log_recordsb_0Ba_
FNDA:0,_RNCNvMs_NtNtCs5DPfXlAluY4_8hayabusa10detections9detectionNtB6_9Detection17create_log_recordsc_0Ba_
FNDA:0,_RNCNvMs_NtNtCs5DPfXlAluY4_8hayabusa10detections9detectionNtB6_9Detection17create_log_recordsd_0Ba_
FNDA:0,_RNCNvMs_NtNtCs5DPfXlAluY4_8hayabusa10detections9detectionNtB6_9Detection17create_log_recordse_0Ba_
FNDA:0,_RNCNvMs_NtNtCs5DPfXlAluY4_8hayabusa10detections9detectionNtB6_9Detection17create_log_recordsf_0Ba_
FNDA:0,_RNCNvMs_NtNtCs5DPfXlAluY4_8hayabusa10detections9detectionNtB6_9Detection17create_log_recordsg_0Ba_
FNDA:0,_RNCNvMs_NtNtCs5DPfXlAluY4_8hayabusa10detections9detectionNtB6_9Detection17create_log_recordsh_0Ba_
FNDA:0,_RNCNvMs_NtNtCs5DPfXlAluY4_8hayabusa10detections9detectionNtB6_9Detection17create_log_recordsi_0Ba_
FNDA:0,_RNCNvMs_NtNtCs5DPfXlAluY4_8hayabusa10detections9detectionNtB6_9Detection17create_log_recordsj_0Ba_
FNDA:0,_RNvMs_NtNtCs5DPfXlAluY4_8hayabusa10detections9detectionNtB4_9Detection21create_agg_log_record
FNDA:0,_RNCNvMs_NtNtCs5DPfXlAluY4_8hayabusa10detections9detectionNtB6_9Detection21create_agg_log_record0Ba_
FNDA:0,_RNCNvMs_NtNtCs5DPfXlAluY4_8hayabusa10detections9detectionNtB6_9Detection21create_agg_log_records_0Ba_
FNDA:0,_RNCNvMs_NtNtCs5DPfXlAluY4_8hayabusa10detections9detectionNtB6_9Detection21create_agg_log_records0_0Ba_
FNDA:0,_RNCNvMs_NtNtCs5DPfXlAluY4_8hayabusa10detections9detectionNtB6_9Detection21create_agg_log_records1_0Ba_
FNDA:0,_RNCNvMs_NtNtCs5DPfXlAluY4_8hayabusa10detections9detectionNtB6_9Detection21create_agg_log_records2_0Ba_
FNDA:5,_RNvMs_NtNtCs5DPfXlAluY4_8hayabusa10detections9detectionNtB4_9Detection12get_tag_info
FNDA:0,_RNCNvMs_NtNtCs5DPfXlAluY4_8hayabusa10detections9detectionNtB6_9Detection12get_tag_info0Ba_
FNDA:0,_RNvMs_NtNtCs5DPfXlAluY4_8hayabusa10detections9detectionNtB4_9Detection19create_count_output
FNDA:2,_RNvMs_NtNtCs5DPfXlAluY4_8hayabusa10detections9detectionNtB4_9Detection20print_rule_load_info
FNDA:2,_RNCNvMs_NtNtCs5DPfXlAluY4_8hayabusa10detections9detectionNtB6_9Detection20print_rule_load_info0Ba_
FNDA:4,_RNCNvMs_NtNtCs5DPfXlAluY4_8hayabusa10detections9detectionNtB6_9Detection20print_rule_load_infos_0Ba_
FNDA:8,_RNCNvMs_NtNtCs5DPfXlAluY4_8hayabusa10detections9detectionNtB6_9Detection20print_rule_load_infos0_0Ba_
FNDA:6,_RNCNvMs_NtNtCs5DPfXlAluY4_8hayabusa10detections9detectionNtB6_9Detection20print_rule_load_infos1_0Ba_
FNDA:2,_RNCNvMs_NtNtCs5DPfXlAluY4_8hayabusa10detections9detectionNtB6_9Detection20print_rule_load_infos2_0Ba_
FNDA:6,_RNCNvMs_NtNtCs5DPfXlAluY4_8hayabusa10detections9detectionNtB6_9Detection20print_rule_load_infos3_0Ba_
FNDA:6,_RNCNvMs_NtNtCs5DPfXlAluY4_8hayabusa10detections9detectionNtB6_9Detection20print_rule_load_infos4_0Ba_
FNDA:0,_RNCNvMs_NtNtCs5DPfXlAluY4_8hayabusa10detections9detectionNtB6_9Detection20print_rule_load_infos5_0Ba_
FNDA:2,_RNCNvMs_NtNtCs5DPfXlAluY4_8hayabusa10detections9detectionNtB6_9Detection20print_rule_load_infos6_0Ba_
FNDA:0,_RNvMs_NtNtCs5DPfXlAluY4_8hayabusa10detections9detectionNtB4_9Detection14get_alias_data
FNDA:0,_RNvMs_NtNtCsNhz5SapXcJ_8hayabusa10detections9detectionNtB4_9Detection3new
FNDA:0,_RNvMs_NtNtCsNhz5SapXcJ_8hayabusa10detections9detectionNtB4_9Detection5start
FNDA:0,_RNvMs_NtNtCsNhz5SapXcJ_8hayabusa10detections9detectionNtB4_9Detection13execute_rules
FNDA:0,_RNCNvMs_NtNtCsNhz5SapXcJ_8hayabusa10detections9detectionNtB6_9Detection13execute_rules0Ba_
FNDA:0,_RNCNCNvMs_NtNtCsNhz5SapXcJ_8hayabusa10detections9detectionNtB8_9Detection13execute_rules00Bc_
FNDA:0,_RNCNCNCNvMs_NtNtCsNhz5SapXcJ_8hayabusa10detections9detectionNtBa_9Detection13execute_rules000Be_
FNDA:0,_RNvMs_NtNtCsNhz5SapXcJ_8hayabusa10detections9detectionNtB4_9Detection22add_aggcondition_msges
FNDA:0,_RNvMs_NtNtCsNhz5SapXcJ_8hayabusa10detections9detectionNtB4_9Detection20add_aggcondition_msg
FNDA:0,_RNCNvMs_NtNtCsNhz5SapXcJ_8hayabusa10detections9detectionNtB6_9Detection20add_aggcondition_msg0Ba_
FNDA:0,_RNvMs_NtNtCsNhz5SapXcJ_8hayabusa10detections9detectionNtB4_9Detection12execute_rule
FNDA:0,_RNvMs_NtNtCsNhz5SapXcJ_8hayabusa10detections9detectionNtB4_9Detection21create_agg_log_record
FNDA:0,_RNCNvMs_NtNtCsNhz5SapXcJ_8hayabusa10detections9detectionNtB6_9Detection21create_agg_log_record0Ba_
FNDA:0,_RNCNvMs_NtNtCsNhz5SapXcJ_8hayabusa10detections9detectionNtB6_9Detection21create_agg_log_records_0Ba_
FNDA:0,_RNCNvMs_NtNtCsNhz5SapXcJ_8hayabusa10detections9detectionNtB6_9Detection21create_agg_log_records0_0Ba_
FNDA:0,_RNCNvMs_NtNtCsNhz5SapXcJ_8hayabusa10detections9detectionNtB6_9Detection21create_agg_log_records1_0Ba_
FNDA:0,_RNCNvMs_NtNtCsNhz5SapXcJ_8hayabusa10detections9detectionNtB6_9Detection21create_agg_log_records2_0Ba_
FNDA:396,_RNvMNtNtCsNhz5SapXcJ_8hayabusa10detections9detectionNtB2_14EvtxRecordInfo9get_value
FNDA:1,_RNvMs_NtNtCsNhz5SapXcJ_8hayabusa10detections9detectionNtB4_9Detection16parse_rule_files
FNDA:5,_RNCNvMs_NtNtCsNhz5SapXcJ_8hayabusa10detections9detectionNtB6_9Detection16parse_rule_files0Ba_
FNDA:0,_RNCNCNvMs_NtNtCsNhz5SapXcJ_8hayabusa10detections9detectionNtB8_9Detection16parse_rule_files00Bc_
FNDA:0,_RNCNCNCNvMs_NtNtCsNhz5SapXcJ_8hayabusa10detections9detectionNtBa_9Detection16parse_rule_files000Be_
FNDA:0,_RNCNCNCNvMs_NtNtCsNhz5SapXcJ_8hayabusa10detections9detectionNtBa_9Detection16parse_rule_files00s_0Be_
FNDA:5,_RNCNvMs_NtNtCsNhz5SapXcJ_8hayabusa10detections9detectionNtB6_9Detection16parse_rule_filess_0Ba_
FNDA:4,_RNvMs_NtNtCsNhz5SapXcJ_8hayabusa10detections9detectionNtB4_9Detection17create_log_record
FNDA:28,_RNCNvMs_NtNtCsNhz5SapXcJ_8hayabusa10detections9detectionNtB6_9Detection17create_log_record0Ba_
FNDA:0,_RNCNvMs_NtNtCsNhz5SapXcJ_8hayabusa10detections9detectionNtB6_9Detection17create_log_records_0Ba_
FNDA:0,_RNCNvMs_NtNtCsNhz5SapXcJ_8hayabusa10detections9detectionNtB6_9Detection17create_log_records0_0Ba_
FNDA:0,_RNCNvMs_NtNtCsNhz5SapXcJ_8hayabusa10detections9detectionNtB6_9Detection17create_log_records1_0Ba_
FNDA:0,_RNCNvMs_NtNtCsNhz5SapXcJ_8hayabusa10detections9detectionNtB6_9Detection17create_log_records2_0Ba_
FNDA:0,_RNCNvMs_NtNtCsNhz5SapXcJ_8hayabusa10detections9detectionNtB6_9Detection17create_log_records3_0Ba_
FNDA:0,_RNCNvMs_NtNtCsNhz5SapXcJ_8hayabusa10detections9detectionNtB6_9Detection17create_log_records4_0Ba_
FNDA:0,_RNCNvMs_NtNtCsNhz5SapXcJ_8hayabusa10detections9detectionNtB6_9Detection17create_log_records5_0Ba_
FNDA:4,_RNCNvMs_NtNtCsNhz5SapXcJ_8hayabusa10detections9detectionNtB6_9Detection17create_log_records6_0Ba_
FNDA:0,_RNCNvMs_NtNtCsNhz5SapXcJ_8hayabusa10detections9detectionNtB6_9Detection17create_log_records7_0Ba_
FNDA:15,_RNCNvMs_NtNtCsNhz5SapXcJ_8hayabusa10detections9detectionNtB6_9Detection17create_log_records8_0Ba_
FNDA:2,_RNCNvMs_NtNtCsNhz5SapXcJ_8hayabusa10detections9detectionNtB6_9Detection17create_log_records9_0Ba_
FNDA:3,_RNCNvMs_NtNtCsNhz5SapXcJ_8hayabusa10detections9detectionNtB6_9Detection17create_log_recordsa_0Ba_
FNDA:1,_RNCNvMs_NtNtCsNhz5SapXcJ_8hayabusa10detections9detectionNtB6_9Detection17create_log_recordsb_0Ba_
FNDA:1,_RNCNvMs_NtNtCsNhz5SapXcJ_8hayabusa10detections9detectionNtB6_9Detection17create_log_recordsc_0Ba_
FNDA:1,_RNCNvMs_NtNtCsNhz5SapXcJ_8hayabusa10detections9detectionNtB6_9Detection17create_log_recordsd_0Ba_
FNDA:15,_RNCNvMs_NtNtCsNhz5SapXcJ_8hayabusa10detections9detectionNtB6_9Detection17create_log_recordse_0Ba_
FNDA:6,_RNCNvMs_NtNtCsNhz5SapXcJ_8hayabusa10detections9detectionNtB6_9Detection17create_log_recordsf_0Ba_
FNDA:3,_RNCNvMs_NtNtCsNhz5SapXcJ_8hayabusa10detections9detectionNtB6_9Detection17create_log_recordsg_0Ba_
FNDA:1,_RNCNvMs_NtNtCsNhz5SapXcJ_8hayabusa10detections9detectionNtB6_9Detection17create_log_recordsh_0Ba_
FNDA:1,_RNCNvMs_NtNtCsNhz5SapXcJ_8hayabusa10detections9detectionNtB6_9Detection17create_log_recordsi_0Ba_
FNDA:1,_RNCNvMs_NtNtCsNhz5SapXcJ_8hayabusa10detections9detectionNtB6_9Detection17create_log_recordsj_0Ba_
FNDA:4,_RNvMs_NtNtCsNhz5SapXcJ_8hayabusa10detections9detectionNtB4_9Detection12get_tag_info
FNDA:0,_RNCNvMs_NtNtCsNhz5SapXcJ_8hayabusa10detections9detectionNtB6_9Detection12get_tag_info0Ba_
FNDA:6,_RNvMs_NtNtCsNhz5SapXcJ_8hayabusa10detections9detectionNtB4_9Detection19create_count_output
FNDA:1,_RNvMs_NtNtCsNhz5SapXcJ_8hayabusa10detections9detectionNtB4_9Detection20print_rule_load_info
FNDA:1,_RNCNvMs_NtNtCsNhz5SapXcJ_8hayabusa10detections9detectionNtB6_9Detection20print_rule_load_info0Ba_
FNDA:2,_RNCNvMs_NtNtCsNhz5SapXcJ_8hayabusa10detections9detectionNtB6_9Detection20print_rule_load_infos_0Ba_
FNDA:4,_RNCNvMs_NtNtCsNhz5SapXcJ_8hayabusa10detections9detectionNtB6_9Detection20print_rule_load_infos0_0Ba_
FNDA:3,_RNCNvMs_NtNtCsNhz5SapXcJ_8hayabusa10detections9detectionNtB6_9Detection20print_rule_load_infos1_0Ba_
FNDA:1,_RNCNvMs_NtNtCsNhz5SapXcJ_8hayabusa10detections9detectionNtB6_9Detection20print_rule_load_infos2_0Ba_
FNDA:3,_RNCNvMs_NtNtCsNhz5SapXcJ_8hayabusa10detections9detectionNtB6_9Detection20print_rule_load_infos3_0Ba_
FNDA:3,_RNCNvMs_NtNtCsNhz5SapXcJ_8hayabusa10detections9detectionNtB6_9Detection20print_rule_load_infos4_0Ba_
FNDA:0,_RNCNvMs_NtNtCsNhz5SapXcJ_8hayabusa10detections9detectionNtB6_9Detection20print_rule_load_infos5_0Ba_
FNDA:1,_RNCNvMs_NtNtCsNhz5SapXcJ_8hayabusa10detections9detectionNtB6_9Detection20print_rule_load_infos6_0Ba_
FNDA:2,_RNvMs_NtNtCsNhz5SapXcJ_8hayabusa10detections9detectionNtB4_9Detection14get_alias_data
FNDA:9,_RNvNtNtNtCsNhz5SapXcJ_8hayabusa10detections9detection5tests26create_dummy_stored_static
FNDA:1,_RNvNtNtNtCsNhz5SapXcJ_8hayabusa10detections9detection5testss_21test_parse_rule_files
FNDA:1,_RNvNtNtNtCsNhz5SapXcJ_8hayabusa10detections9detection5testss_42test_output_aggregation_output_with_output
FNDA:1,_RNvNtNtNtCsNhz5SapXcJ_8hayabusa10detections9detection5testss_42test_output_aggregation_output_no_filed_by
FNDA:1,_RNvNtNtNtCsNhz5SapXcJ_8hayabusa10detections9detection5testss_45test_output_aggregation_output_with_timeframe
FNDA:1,_RNvNtNtNtCsNhz5SapXcJ_8hayabusa10detections9detection5testss_41test_output_aggregation_output_with_field
FNDA:1,_RNvNtNtNtCsNhz5SapXcJ_8hayabusa10detections9detection5testss_44test_output_aggregation_output_with_field_by
FNDA:1,_RNvNtNtNtCsNhz5SapXcJ_8hayabusa10detections9detection5testss_38test_output_aggregation_output_with_by
FNDA:1,_RNvNtNtNtCsNhz5SapXcJ_8hayabusa10detections9detection5testss_30test_insert_message_with_geoip
FNDA:1,_RNvNtNtNtCsNhz5SapXcJ_8hayabusa10detections9detection5testss_39test_filtered_insert_message_with_geoip
FNDA:1,_RNvNtNtNtCsNhz5SapXcJ_8hayabusa10detections9detection5testss_36test_insert_message_extra_field_info
FNDA:1,_RNvNtNtNtCsNhz5SapXcJ_8hayabusa10detections9detection5testss_40test_insert_message_multiline_ruleauthor
FNDA:16,_RNCNvNtNtNtCsNhz5SapXcJ_8hayabusa10detections9detection5testss_40test_insert_message_multiline_ruleauthor0B9_
FNF:73
FNH:54
DA:55,403
DA:56,403
DA:57,403
DA:66,8
DA:67,8
DA:68,8
DA:70,4
DA:71,4
DA:72,4
DA:75,3
DA:76,3
DA:77,3
DA:78,3
DA:79,3
DA:80,3
DA:81,3
DA:82,3
DA:83,3
DA:84,3
DA:85,3
DA:86,3
DA:87,3
DA:88,3
DA:89,3
DA:90,3
DA:91,3
DA:92,0
DA:93,0
DA:94,0
DA:95,0
DA:96,0
DA:97,0
DA:98,0
DA:99,0
DA:100,0
DA:101,0
DA:102,0
DA:103,3
DA:104,3
DA:105,7
DA:106,7
DA:107,7
DA:108,7
DA:109,0
DA:110,0
DA:111,0
DA:112,0
DA:113,0
DA:114,0
DA:115,0
DA:116,0
DA:117,0
DA:118,0
DA:119,0
DA:120,0
DA:121,0
DA:122,0
DA:123,0
DA:124,0
DA:125,0
DA:126,0
DA:127,0
DA:128,0
DA:129,0
DA:130,0
DA:131,0
DA:132,0
DA:133,0
DA:134,0
DA:135,0
DA:136,0
DA:137,7
DA:139,3
DA:140,3
DA:141,3
DA:142,7
DA:143,3
DA:144,3
DA:145,3
DA:146,3
DA:147,3
DA:148,3
DA:149,3
DA:150,3
DA:151,3
DA:152,3
DA:153,3
DA:154,3
DA:155,3
DA:156,3
DA:157,3
DA:158,3
DA:159,3
DA:162,4
DA:163,4
DA:164,4
DA:165,4
DA:166,4
DA:167,4
DA:168,4
DA:169,4
DA:170,4
DA:171,4
DA:172,4
DA:173,4
DA:174,4
DA:175,4
DA:176,4
DA:177,8
DA:178,4
DA:179,4
DA:180,9
DA:181,5
DA:182,5
DA:188,4
DA:189,4
DA:190,4
DA:191,4
DA:193,2
DA:194,2
DA:195,2
DA:196,2
DA:197,2
DA:198,2
DA:199,2
DA:201,2
DA:202,2
DA:203,4
DA:204,2
DA:205,2
DA:206,0
DA:208,0
DA:209,0
DA:210,0
DA:213,2
DA:214,2
DA:217,4
DA:218,4
DA:219,4
DA:220,4
DA:221,4
DA:222,4
DA:223,4
DA:224,4
DA:225,7
DA:226,7
DA:227,7
DA:228,7
DA:229,7
DA:230,7
DA:231,7
DA:232,7
DA:233,7
DA:234,2
DA:235,5
DA:236,5
DA:237,5
DA:238,0
DA:239,0
DA:240,5
DA:241,5
DA:242,5
DA:243,5
DA:244,5
DA:245,5
DA:246,5
DA:247,5
DA:248,5
DA:249,5
DA:252,4
DA:253,4
DA:256,9
DA:257,9
DA:258,9
DA:259,9
DA:260,9
DA:261,9
DA:262,9
DA:263,9
DA:264,9
DA:265,9
DA:266,9
DA:267,63
DA:269,9
DA:270,9
DA:271,9
DA:272,9
DA:273,9
DA:275,0
DA:277,9
DA:278,9
DA:279,9
DA:280,9
DA:281,9
DA:282,9
DA:283,9
DA:284,9
DA:285,9
DA:286,9
DA:287,9
DA:288,9
DA:289,9
DA:290,0
DA:292,9
DA:295,9
DA:296,9
DA:297,9
DA:298,9
DA:299,9
DA:300,9
DA:301,9
DA:302,9
DA:303,9
DA:304,9
DA:306,9
DA:307,107
DA:308,107
DA:309,9
DA:310,9
DA:311,9
DA:312,9
DA:313,9
DA:314,9
DA:315,9
DA:316,9
DA:317,9
DA:318,9
DA:319,9
DA:320,9
DA:321,9
DA:323,9
DA:324,9
DA:325,9
DA:326,9
DA:327,9
DA:328,9
DA:329,9
DA:330,0
DA:331,9
DA:332,9
DA:334,9
DA:335,9
DA:336,9
DA:337,9
DA:338,9
DA:339,9
DA:340,9
DA:341,9
DA:342,9
DA:343,9
DA:344,9
DA:345,9
DA:346,9
DA:347,9
DA:348,9
DA:349,9
DA:350,9
DA:351,9
DA:353,9
DA:354,9
DA:355,9
DA:356,3
DA:358,6
DA:360,9
DA:362,9
DA:363,9
DA:364,9
DA:365,9
DA:366,9
DA:367,9
DA:368,9
DA:369,9
DA:370,9
DA:371,9
DA:372,9
DA:373,9
DA:374,9
DA:375,9
DA:376,9
DA:377,9
DA:378,9
DA:379,9
DA:380,0
DA:381,0
DA:382,0
DA:383,0
DA:384,0
DA:385,0
DA:386,0
DA:387,0
DA:388,0
DA:389,0
DA:390,0
DA:391,0
DA:392,0
DA:393,0
DA:394,0
DA:395,0
DA:396,0
DA:397,0
DA:398,0
DA:399,0
DA:400,0
DA:402,0
DA:403,0
DA:404,0
DA:405,0
DA:406,0
DA:407,0
DA:408,0
DA:409,0
DA:410,0
DA:411,0
DA:412,0
DA:413,0
DA:414,0
DA:415,0
DA:416,0
DA:417,0
DA:418,0
DA:419,0
DA:420,0
DA:421,0
DA:422,0
DA:423,0
DA:424,0
DA:425,0
DA:426,0
DA:427,0
DA:428,0
DA:429,0
DA:430,0
DA:431,0
DA:433,0
DA:436,0
DA:437,0
DA:438,0
DA:439,0
DA:440,0
DA:441,0
DA:442,0
DA:443,0
DA:444,0
DA:445,0
DA:446,0
DA:447,0
DA:448,0
DA:449,0
DA:450,0
DA:451,0
DA:452,0
DA:453,0
DA:454,0
DA:455,0
DA:456,0
DA:457,0
DA:458,0
DA:459,0
DA:460,0
DA:461,0
DA:462,0
DA:463,0
DA:464,1
DA:465,1
DA:466,1
DA:467,1
DA:468,1
DA:469,1
DA:470,4
DA:471,1
DA:473,0
DA:475,1
DA:477,0
DA:478,0
DA:479,0
DA:480,0
DA:481,0
DA:482,0
DA:483,0
DA:484,0
DA:485,0
DA:486,0
DA:487,0
DA:488,0
DA:489,0
DA:490,0
DA:491,0
DA:492,0
DA:493,0
DA:494,0
DA:495,0
DA:496,0
DA:497,0
DA:498,0
DA:499,0
DA:500,0
DA:501,0
DA:502,0
DA:503,0
DA:504,0
DA:505,0
DA:506,0
DA:507,0
DA:508,0
DA:509,0
DA:510,0
DA:511,0
DA:512,0
DA:513,0
DA:514,0
DA:515,0
DA:516,0
DA:517,0
DA:518,0
DA:519,0
DA:520,0
DA:521,0
DA:522,0
DA:523,0
DA:524,0
DA:525,0
DA:526,0
DA:527,0
DA:528,0
DA:529,0
DA:530,0
DA:531,0
DA:532,0
DA:533,0
DA:534,0
DA:535,0
DA:536,0
DA:537,0
DA:538,0
DA:539,0
DA:540,0
DA:541,0
DA:542,0
DA:543,0
DA:545,0
DA:546,0
DA:547,0
DA:548,0
DA:549,0
DA:551,0
DA:553,0
DA:556,12
DA:557,8
DA:558,4
DA:559,4
DA:560,4
DA:561,4
DA:562,4
DA:563,4
DA:564,4
DA:565,4
DA:566,0
DA:567,4
DA:568,4
DA:569,4
DA:570,0
DA:571,4
DA:572,4
DA:573,4
DA:574,4
DA:575,15
DA:576,15
DA:577,15
DA:578,15
DA:579,1
DA:580,1
DA:581,1
DA:582,1
DA:583,15
DA:584,15
DA:585,15
DA:586,1
DA:587,14
DA:589,4
DA:590,3
DA:591,1
DA:592,1
DA:593,1
DA:594,1
DA:595,1
DA:596,1
DA:597,1
DA:598,2
DA:599,1
DA:600,1
DA:601,1
DA:602,1
DA:603,1
DA:604,1
DA:605,1
DA:606,1
DA:607,1
DA:608,1
DA:609,1
DA:610,1
DA:611,0
DA:612,1
DA:613,1
DA:614,1
DA:615,1
DA:616,3
DA:617,1
DA:618,1
DA:619,1
DA:620,1
DA:621,1
DA:622,1
DA:623,1
DA:624,1
DA:625,1
DA:628,12
DA:629,8
DA:630,4
DA:631,4
DA:632,4
DA:633,4
DA:634,4
DA:635,4
DA:636,4
DA:637,4
DA:638,0
DA:639,4
DA:640,4
DA:641,4
DA:642,0
DA:643,4
DA:644,4
DA:645,4
DA:646,4
DA:647,4
DA:648,15
DA:649,15
DA:650,15
DA:651,15
DA:652,1
DA:653,1
DA:654,1
DA:655,1
DA:656,15
DA:657,15
DA:658,15
DA:659,1
DA:660,14
DA:662,4
DA:663,3
DA:664,1
DA:665,1
DA:666,1
DA:667,1
DA:668,1
DA:669,1
DA:670,1
DA:671,1
DA:672,6
DA:673,1
DA:674,1
DA:675,1
DA:676,1
DA:677,1
DA:678,1
DA:679,1
DA:680,1
DA:681,1
DA:682,1
DA:683,1
DA:684,1
DA:685,1
DA:686,0
DA:687,1
DA:688,1
DA:689,1
DA:690,1
DA:691,3
DA:692,1
DA:693,1
DA:694,1
DA:695,1
DA:696,1
DA:697,1
DA:698,1
DA:699,1
DA:700,1
DA:702,19
DA:706,9
DA:707,5
DA:708,4
DA:709,4
DA:710,4
DA:712,2
DA:713,2
DA:714,2
DA:717,9
DA:718,0
DA:720,9
DA:721,9
DA:722,9
DA:723,9
DA:725,9
DA:726,9
DA:727,9
DA:728,9
DA:729,9
DA:730,9
DA:731,9
DA:732,9
DA:733,9
DA:734,9
DA:735,9
DA:736,9
DA:737,9
DA:738,9
DA:739,9
DA:740,9
DA:741,9
DA:742,9
DA:743,9
DA:744,9
DA:745,9
DA:746,9
DA:747,9
DA:748,9
DA:749,9
DA:750,9
DA:751,9
DA:752,9
DA:753,9
DA:754,9
DA:755,9
DA:756,9
DA:757,9
DA:758,9
DA:759,9
DA:760,9
DA:761,9
DA:763,0
DA:764,0
DA:765,0
DA:766,0
DA:767,0
DA:768,0
DA:769,0
DA:770,0
DA:771,0
DA:772,0
DA:773,0
DA:775,0
DA:776,0
DA:777,0
DA:778,0
DA:779,0
DA:780,0
DA:781,0
DA:782,0
DA:783,0
DA:784,0
DA:785,0
DA:786,0
DA:787,0
DA:788,0
DA:789,0
DA:790,0
DA:791,0
DA:792,0
DA:793,0
DA:794,0
DA:795,0
DA:796,0
DA:798,0
DA:799,0
DA:800,0
DA:801,0
DA:803,0
DA:805,0
DA:807,0
DA:808,0
DA:809,0
DA:810,0
DA:811,0
DA:812,0
DA:813,0
DA:814,0
DA:815,0
DA:816,0
DA:817,0
DA:818,0
DA:819,0
DA:820,0
DA:821,0
DA:822,0
DA:823,0
DA:824,0
DA:825,0
DA:826,0
DA:827,0
DA:828,0
DA:829,0
DA:830,0
DA:831,0
DA:832,0
DA:833,0
DA:834,0
DA:835,0
DA:836,0
DA:837,0
DA:838,0
DA:839,0
DA:840,0
DA:841,0
DA:842,0
DA:843,0
DA:844,0
DA:845,0
DA:846,0
DA:847,0
DA:848,0
DA:849,0
DA:850,0
DA:851,0
DA:852,0
DA:853,0
DA:854,0
DA:855,0
DA:856,0
DA:857,0
DA:858,0
DA:859,0
DA:860,0
DA:861,0
DA:862,0
DA:863,0
DA:864,0
DA:865,0
DA:866,0
DA:867,0
DA:868,0
DA:869,0
DA:870,0
DA:871,0
DA:872,0
DA:873,0
DA:874,0
DA:875,0
DA:876,0
DA:877,0
DA:878,0
DA:879,0
DA:880,0
DA:882,0
DA:884,0
DA:886,0
DA:887,0
DA:888,0
DA:889,0
DA:890,0
DA:891,0
DA:892,0
DA:893,0
DA:894,0
DA:895,0
DA:896,0
DA:897,0
DA:898,0
DA:899,0
DA:900,0
DA:901,0
DA:902,0
DA:903,0
DA:904,0
DA:905,0
DA:906,0
DA:907,0
DA:908,0
DA:909,0
DA:910,0
DA:911,0
DA:912,0
DA:913,0
DA:914,0
DA:915,0
DA:916,0
DA:917,0
DA:918,0
DA:919,0
DA:920,0
DA:921,0
DA:922,0
DA:923,0
DA:924,0
DA:925,0
DA:926,0
DA:927,0
DA:928,0
DA:929,0
DA:930,0
DA:931,0
DA:932,0
DA:934,0
DA:935,0
DA:936,0
DA:937,0
DA:938,0
DA:939,0
DA:942,0
DA:943,0
DA:944,0
DA:945,0
DA:946,0
DA:947,0
DA:949,0
DA:952,0
DA:953,0
DA:954,0
DA:955,0
DA:956,0
DA:957,0
DA:958,0
DA:959,0
DA:960,0
DA:961,0
DA:962,0
DA:963,0
DA:964,0
DA:965,0
DA:966,0
DA:967,0
DA:968,0
DA:969,0
DA:970,0
DA:971,0
DA:972,0
DA:973,0
DA:974,0
DA:975,0
DA:976,0
DA:977,0
DA:978,0
DA:979,0
DA:980,0
DA:981,0
DA:982,0
DA:983,0
DA:984,0
DA:985,0
DA:988,9
DA:989,9
DA:990,9
DA:991,9
DA:992,9
DA:993,9
DA:994,9
DA:995,0
DA:996,0
DA:998,0
DA:1000,9
DA:1001,9
DA:1002,9
DA:1005,6
DA:1006,6
DA:1007,6
DA:1008,6
DA:1009,6
DA:1010,6
DA:1011,6
DA:1012,6
DA:1013,6
DA:1014,6
DA:1015,6
DA:1016,6
DA:1017,6
DA:1018,6
DA:1019,6
DA:1020,6
DA:1021,6
DA:1022,1
DA:1023,5
DA:1025,6
DA:1026,6
DA:1027,2
DA:1028,2
DA:1029,2
DA:1030,2
DA:1031,2
DA:1032,2
DA:1033,2
DA:1034,4
DA:1036,6
DA:1037,2
DA:1038,2
DA:1039,2
DA:1040,2
DA:1041,2
DA:1042,2
DA:1043,2
DA:1044,4
DA:1046,6
DA:1047,1
DA:1048,1
DA:1049,1
DA:1050,1
DA:1051,1
DA:1052,1
DA:1053,5
DA:1055,6
DA:1056,6
DA:1058,3
DA:1059,3
DA:1060,3
DA:1061,3
DA:1062,3
DA:1063,3
DA:1064,3
DA:1065,3
DA:1066,3
DA:1067,3
DA:1068,3
DA:1069,6
DA:1070,6
DA:1071,0
DA:1072,0
DA:1073,0
DA:1074,0
DA:1075,0
DA:1076,0
DA:1078,0
DA:1080,0
DA:1083,0
DA:1084,0
DA:1085,0
DA:1086,0
DA:1087,0
DA:1088,0
DA:1089,0
DA:1090,0
DA:1091,0
DA:1092,0
DA:1093,6
DA:1094,6
DA:1095,3
DA:1096,0
DA:1097,0
DA:1098,0
DA:1099,0
DA:1100,0
DA:1101,0
DA:1102,0
DA:1103,3
DA:1104,3
DA:1105,3
DA:1106,3
DA:1107,3
DA:1108,3
DA:1109,3
DA:1110,12
DA:1111,12
DA:1112,9
DA:1113,12
DA:1114,3
DA:1115,3
DA:1116,9
DA:1117,3
DA:1118,3
DA:1119,9
DA:1120,9
DA:1121,9
DA:1122,3
DA:1123,3
DA:1124,0
DA:1126,3
DA:1128,3
DA:1129,3
DA:1130,3
DA:1131,3
DA:1132,3
DA:1133,3
DA:1134,3
DA:1135,3
DA:1136,3
DA:1137,3
DA:1138,3
DA:1139,3
DA:1140,3
DA:1141,3
DA:1142,3
DA:1143,3
DA:1144,0
DA:1145,3
DA:1146,6
DA:1147,9
DA:1148,3
DA:1149,3
DA:1150,3
DA:1151,3
DA:1152,3
DA:1153,3
DA:1154,3
DA:1155,3
DA:1156,3
DA:1157,3
DA:1158,3
DA:1159,3
DA:1160,3
DA:1161,3
DA:1162,0
DA:1163,3
DA:1164,3
DA:1165,3
DA:1166,3
DA:1167,3
DA:1168,3
DA:1169,3
DA:1170,3
DA:1171,3
DA:1172,3
DA:1173,3
DA:1174,3
DA:1175,3
DA:1176,3
DA:1177,0
DA:1178,3
DA:1179,3
DA:1180,0
DA:1181,3
DA:1182,3
DA:1185,2
DA:1186,2
DA:1187,2
DA:1188,2
DA:1189,2
DA:1190,2
DA:1191,3
DA:1192,3
DA:1193,3
DA:1194,3
DA:1195,3
DA:1196,3
DA:1197,3
DA:1198,3
DA:1199,3
DA:1200,3
DA:1201,2
DA:1202,1
DA:1204,0
DA:1205,2
DA:1237,9
DA:1238,9
DA:1239,9
DA:1240,9
DA:1241,9
DA:1242,9
DA:1243,9
DA:1244,9
DA:1245,9
DA:1246,9
DA:1247,9
DA:1248,9
DA:1249,9
DA:1250,9
DA:1251,9
DA:1252,9
DA:1253,9
DA:1254,9
DA:1255,9
DA:1256,9
DA:1257,9
DA:1258,9
DA:1259,9
DA:1260,9
DA:1261,9
DA:1262,9
DA:1263,9
DA:1264,9
DA:1265,9
DA:1266,9
DA:1267,9
DA:1268,9
DA:1269,9
DA:1270,9
DA:1271,9
DA:1272,9
DA:1273,9
DA:1274,9
DA:1275,9
DA:1276,9
DA:1277,9
DA:1278,9
DA:1279,9
DA:1280,9
DA:1281,9
DA:1282,9
DA:1283,9
DA:1284,9
DA:1285,9
DA:1286,9
DA:1287,9
DA:1288,9
DA:1289,9
DA:1290,9
DA:1291,9
DA:1292,9
DA:1293,9
DA:1294,9
DA:1295,9
DA:1296,9
DA:1297,9
DA:1298,9
DA:1299,9
DA:1300,9
DA:1301,9
DA:1302,9
DA:1303,9
DA:1304,9
DA:1305,9
DA:1306,9
DA:1309,1
DA:1310,1
DA:1311,1
DA:1312,1
DA:1313,1
DA:1314,1
DA:1315,1
DA:1316,1
DA:1317,1
DA:1318,1
DA:1319,1
DA:1320,1
DA:1321,1
DA:1324,1
DA:1325,1
DA:1326,1
DA:1327,1
DA:1328,1
DA:1329,1
DA:1330,1
DA:1331,1
DA:1332,1
DA:1333,1
DA:1334,1
DA:1335,1
DA:1336,1
DA:1337,1
DA:1338,1
DA:1339,1
DA:1340,1
DA:1341,1
DA:1342,1
DA:1343,1
DA:1344,1
DA:1345,1
DA:1346,1
DA:1347,1
DA:1348,1
DA:1349,1
DA:1352,1
DA:1353,1
DA:1354,1
DA:1355,1
DA:1356,1
DA:1357,1
DA:1358,1
DA:1359,1
DA:1360,1
DA:1361,1
DA:1362,1
DA:1363,1
DA:1364,1
DA:1365,1
DA:1366,1
DA:1367,1
DA:1368,1
DA:1369,1
DA:1370,1
DA:1371,1
DA:1372,1
DA:1373,1
DA:1374,1
DA:1375,1
DA:1376,1
DA:1379,1
DA:1380,1
DA:1381,1
DA:1382,1
DA:1383,1
DA:1384,1
DA:1385,1
DA:1386,1
DA:1387,1
DA:1388,1
DA:1389,1
DA:1390,1
DA:1391,1
DA:1392,1
DA:1393,1
DA:1394,1
DA:1395,1
DA:1396,1
DA:1397,1
DA:1398,1
DA:1399,1
DA:1400,1
DA:1401,1
DA:1402,1
DA:1403,1
DA:1404,1
DA:1405,1
DA:1408,1
DA:1409,1
DA:1410,1
DA:1411,1
DA:1412,1
DA:1413,1
DA:1414,1
DA:1415,1
DA:1416,1
DA:1417,1
DA:1418,1
DA:1419,1
DA:1420,1
DA:1421,1
DA:1422,1
DA:1423,1
DA:1424,1
DA:1425,1
DA:1426,1
DA:1427,1
DA:1428,1
DA:1429,1
DA:1430,1
DA:1431,1
DA:1432,1
DA:1433,1
DA:1434,1
DA:1435,1
DA:1438,1
DA:1439,1
DA:1440,1
DA:1441,1
DA:1442,1
DA:1443,1
DA:1444,1
DA:1445,1
DA:1446,1
DA:1447,1
DA:1448,1
DA:1449,1
DA:1450,1
DA:1451,1
DA:1452,1
DA:1453,1
DA:1454,1
DA:1455,1
DA:1456,1
DA:1457,1
DA:1458,1
DA:1459,1
DA:1460,1
DA:1461,1
DA:1462,1
DA:1463,1
DA:1464,1
DA:1465,1
DA:1467,1
DA:1468,1
DA:1469,1
DA:1470,1
DA:1471,1
DA:1472,1
DA:1473,1
DA:1474,1
DA:1475,1
DA:1476,1
DA:1477,1
DA:1478,1
DA:1479,1
DA:1480,1
DA:1481,1
DA:1482,1
DA:1483,1
DA:1484,1
DA:1485,1
DA:1486,1
DA:1487,1
DA:1488,1
DA:1489,1
DA:1490,1
DA:1491,1
DA:1492,1
DA:1493,1
DA:1494,1
DA:1495,1
DA:1498,1
DA:1499,1
DA:1500,1
DA:1501,1
DA:1502,1
DA:1503,1
DA:1504,1
DA:1505,1
DA:1506,1
DA:1507,1
DA:1508,1
DA:1509,1
DA:1510,1
DA:1511,1
DA:1512,1
DA:1513,1
DA:1514,1
DA:1515,1
DA:1516,1
DA:1517,1
DA:1518,1
DA:1519,1
DA:1520,1
DA:1521,1
DA:1522,1
DA:1523,1
DA:1524,1
DA:1525,1
DA:1526,1
DA:1527,1
DA:1528,1
DA:1529,1
DA:1530,1
DA:1531,1
DA:1532,1
DA:1533,1
DA:1534,1
DA:1535,1
DA:1536,1
DA:1537,1
DA:1538,1
DA:1539,1
DA:1540,1
DA:1541,1
DA:1542,1
DA:1543,1
DA:1544,1
DA:1545,1
DA:1546,1
DA:1547,1
DA:1548,1
DA:1549,1
DA:1550,1
DA:1551,1
DA:1552,1
DA:1553,1
DA:1554,1
DA:1555,1
DA:1556,1
DA:1557,1
DA:1558,1
DA:1559,1
DA:1560,1
DA:1561,1
DA:1562,1
DA:1563,1
DA:1564,1
DA:1565,1
DA:1566,1
DA:1567,1
DA:1568,1
DA:1569,1
DA:1570,1
DA:1571,1
DA:1572,1
DA:1573,1
DA:1574,1
DA:1575,1
DA:1576,1
DA:1577,1
DA:1578,1
DA:1579,1
DA:1580,1
DA:1581,1
DA:1582,1
DA:1583,1
DA:1584,1
DA:1585,1
DA:1586,1
DA:1587,1
DA:1588,1
DA:1589,1
DA:1590,1
DA:1591,1
DA:1592,1
DA:1593,1
DA:1594,1
DA:1595,1
DA:1596,1
DA:1597,1
DA:1598,1
DA:1599,1
DA:1600,1
DA:1601,1
DA:1602,1
DA:1603,1
DA:1604,1
DA:1605,1
DA:1606,1
DA:1607,1
DA:1608,1
DA:1609,1
DA:1610,1
DA:1611,1
DA:1612,1
DA:1613,1
DA:1614,1
DA:1615,1
DA:1616,1
DA:1617,1
DA:1618,1
DA:1619,1
DA:1620,1
DA:1621,1
DA:1622,1
DA:1623,1
DA:1624,1
DA:1625,1
DA:1626,1
DA:1627,6
DA:1628,6
DA:1632,1
DA:1635,1
DA:1636,1
DA:1637,1
DA:1638,1
DA:1639,1
DA:1640,1
DA:1641,1
DA:1642,1
DA:1643,1
DA:1644,1
DA:1645,1
DA:1646,1
DA:1647,1
DA:1648,1
DA:1649,1
DA:1650,1
DA:1651,1
DA:1652,1
DA:1653,1
DA:1654,1
DA:1655,1
DA:1656,1
DA:1657,1
DA:1658,1
DA:1659,1
DA:1660,1
DA:1661,1
DA:1662,1
DA:1663,1
DA:1664,1
DA:1665,1
DA:1666,1
DA:1667,1
DA:1668,1
DA:1669,1
DA:1670,1
DA:1671,1
DA:1672,1
DA:1673,1
DA:1674,1
DA:1675,1
DA:1676,1
DA:1677,1
DA:1678,1
DA:1679,1
DA:1680,1
DA:1681,1
DA:1682,1
DA:1683,1
DA:1684,1
DA:1685,1
DA:1686,1
DA:1687,1
DA:1688,1
DA:1689,1
DA:1690,1
DA:1691,1
DA:1692,1
DA:1693,1
DA:1694,1
DA:1695,1
DA:1696,1
DA:1697,1
DA:1698,1
DA:1699,1
DA:1700,1
DA:1701,1
DA:1702,1
DA:1703,1
DA:1704,1
DA:1705,1
DA:1706,1
DA:1707,1
DA:1708,1
DA:1709,1
DA:1710,1
DA:1711,1
DA:1712,1
DA:1713,1
DA:1714,1
DA:1715,1
DA:1716,1
DA:1717,1
DA:1718,1
DA:1719,1
DA:1720,1
DA:1721,1
DA:1722,1
DA:1723,1
DA:1724,1
DA:1725,1
DA:1726,1
DA:1727,1
DA:1728,1
DA:1729,1
DA:1730,1
DA:1731,1
DA:1732,1
DA:1733,1
DA:1734,1
DA:1735,1
DA:1736,1
DA:1737,1
DA:1738,1
DA:1739,1
DA:1740,1
DA:1741,1
DA:1742,1
DA:1743,1
DA:1744,1
DA:1745,1
DA:1746,1
DA:1747,1
DA:1748,1
DA:1749,1
DA:1750,1
DA:1751,1
DA:1752,1
DA:1753,1
DA:1754,1
DA:1755,1
DA:1756,1
DA:1757,1
DA:1758,1
DA:1759,1
DA:1760,6
DA:1761,6
DA:1765,1
DA:1768,1
DA:1769,1
DA:1770,1
DA:1771,1
DA:1772,1
DA:1773,1
DA:1774,1
DA:1775,1
DA:1776,1
DA:1777,1
DA:1778,1
DA:1779,1
DA:1780,1
DA:1781,1
DA:1782,1
DA:1783,1
DA:1784,1
DA:1785,1
DA:1786,1
DA:1787,1
DA:1788,1
DA:1789,1
DA:1790,1
DA:1791,1
DA:1792,1
DA:1793,1
DA:1794,1
DA:1795,1
DA:1796,1
DA:1797,1
DA:1798,1
DA:1799,1
DA:1800,1
DA:1801,1
DA:1802,1
DA:1803,1
DA:1804,1
DA:1805,1
DA:1806,1
DA:1807,1
DA:1808,1
DA:1809,1
DA:1810,1
DA:1811,1
DA:1812,1
DA:1813,1
DA:1814,1
DA:1815,1
DA:1816,1
DA:1817,1
DA:1818,1
DA:1819,1
DA:1820,1
DA:1821,1
DA:1822,1
DA:1823,1
DA:1824,1
DA:1825,1
DA:1826,1
DA:1827,1
DA:1828,1
DA:1829,1
DA:1830,1
DA:1831,1
DA:1832,1
DA:1833,1
DA:1834,1
DA:1835,1
DA:1836,1
DA:1837,1
DA:1838,1
DA:1839,1
DA:1840,1
DA:1841,1
DA:1842,1
DA:1843,1
DA:1844,1
DA:1845,1
DA:1846,1
DA:1847,1
DA:1848,1
DA:1849,1
DA:1850,1
DA:1851,1
DA:1852,1
DA:1853,1
DA:1854,1
DA:1855,1
DA:1856,1
DA:1857,1
DA:1858,1
DA:1859,1
DA:1860,1
DA:1861,1
DA:1862,1
DA:1863,1
DA:1864,1
DA:1865,1
DA:1866,1
DA:1867,1
DA:1868,1
DA:1869,1
DA:1870,1
DA:1871,1
DA:1872,1
DA:1873,1
DA:1874,1
DA:1875,1
DA:1876,1
DA:1877,1
DA:1878,1
DA:1879,1
DA:1880,1
DA:1881,1
DA:1882,1
DA:1883,1
DA:1884,1
DA:1885,1
DA:1886,1
DA:1887,1
DA:1888,1
DA:1889,1
DA:1890,1
DA:1892,1
DA:1893,1
DA:1894,1
DA:1895,1
DA:1896,1
DA:1897,1
DA:1898,1
DA:1899,1
DA:1900,1
DA:1901,1
DA:1902,1
DA:1903,1
DA:1904,1
DA:1905,1
DA:1906,1
DA:1907,1
DA:1908,1
DA:1909,1
DA:1913,1
DA:1916,1
DA:1917,1
DA:1918,1
DA:1919,1
DA:1920,1
DA:1921,1
DA:1922,1
DA:1923,1
DA:1924,1
DA:1925,1
DA:1926,1
DA:1927,1
DA:1928,1
DA:1929,1
DA:1930,1
DA:1931,1
DA:1932,1
DA:1933,1
DA:1934,1
DA:1935,1
DA:1936,1
DA:1937,1
DA:1938,1
DA:1939,1
DA:1940,1
DA:1941,1
DA:1942,1
DA:1943,1
DA:1944,1
DA:1945,1
DA:1946,1
DA:1947,1
DA:1948,1
DA:1949,1
DA:1950,1
DA:1951,1
DA:1952,1
DA:1953,1
DA:1954,1
DA:1955,1
DA:1956,1
DA:1957,1
DA:1958,1
DA:1959,1
DA:1960,1
DA:1961,1
DA:1962,1
DA:1963,1
DA:1964,1
DA:1965,1
DA:1966,1
DA:1967,1
DA:1968,1
DA:1969,1
DA:1970,1
DA:1971,1
DA:1972,1
DA:1973,1
DA:1974,1
DA:1975,1
DA:1976,1
DA:1977,1
DA:1978,1
DA:1979,1
DA:1980,1
DA:1981,1
DA:1982,1
DA:1983,1
DA:1984,1
DA:1985,1
DA:1986,1
DA:1987,1
DA:1988,1
DA:1989,1
DA:1990,1
DA:1991,1
DA:1992,1
DA:1993,1
DA:1994,1
DA:1995,1
DA:1996,1
DA:1997,1
DA:1998,1
DA:1999,1
DA:2000,1
DA:2001,1
DA:2002,1
DA:2003,1
DA:2004,1
DA:2005,1
DA:2006,1
DA:2007,1
DA:2008,1
DA:2009,1
DA:2010,1
DA:2011,1
DA:2012,1
DA:2013,1
DA:2014,1
DA:2015,1
DA:2016,1
DA:2017,1
DA:2018,1
DA:2019,1
DA:2020,1
DA:2021,1
DA:2022,1
DA:2023,1
DA:2024,1
DA:2025,1
DA:2026,1
DA:2027,1
DA:2028,1
DA:2029,1
DA:2030,1
DA:2031,1
DA:2032,1
DA:2033,1
DA:2034,1
DA:2035,1
DA:2036,1
DA:2037,1
DA:2038,1
DA:2039,1
DA:2041,1
DA:2042,1
DA:2043,1
DA:2044,1
DA:2045,1
DA:2046,1
DA:2047,1
DA:2048,1
DA:2049,1
DA:2050,1
DA:2051,16
DA:2052,16
DA:2053,16
DA:2054,16
DA:2055,16
DA:2058,1
BRF:0
BRH:0
LF:1902
LH:1419
end_of_record
SF:D:\opensource\hayabusa\src\detections\field_data_map.rs
FN:27,_RNvMNtNtCs5DPfXlAluY4_8hayabusa10detections14field_data_mapNtB2_15FieldDataMapKey3new
FN:45,_RNvNtNtCs5DPfXlAluY4_8hayabusa10detections14field_data_map20build_field_data_map
FN:50,_RNCNvNtNtCs5DPfXlAluY4_8hayabusa10detections14field_data_map20build_field_data_map0B7_
FN:96,_RNvNtNtCs5DPfXlAluY4_8hayabusa10detections14field_data_map18convert_field_data
FN:120,_RNvNtNtCs5DPfXlAluY4_8hayabusa10detections14field_data_map15load_yaml_files
FN:129,_RNCNvNtNtCs5DPfXlAluY4_8hayabusa10detections14field_data_map15load_yaml_files0B7_
FN:130,_RNCNvNtNtCs5DPfXlAluY4_8hayabusa10detections14field_data_map15load_yaml_filess_0B7_
FN:131,_RNCNvNtNtCs5DPfXlAluY4_8hayabusa10detections14field_data_map15load_yaml_filess0_0B7_
FN:132,_RNCNvNtNtCs5DPfXlAluY4_8hayabusa10detections14field_data_map15load_yaml_filess1_0B7_
FN:146,_RNvNtNtCs5DPfXlAluY4_8hayabusa10detections14field_data_map21create_field_data_map
FN:166,_RNvNtNtNtCsNhz5SapXcJ_8hayabusa10detections14field_data_map5tests10build_yaml
FN:175,_RNvNtNtNtCsNhz5SapXcJ_8hayabusa10detections14field_data_map5testss_35test_load_yaml_files_not_exists_dir
FN:181,_RNvNtNtNtCsNhz5SapXcJ_8hayabusa10detections14field_data_map5testss_35test_convert_field_data_empty_data1
FN:187,_RNvNtNtNtCsNhz5SapXcJ_8hayabusa10detections14field_data_map5testss_35test_convert_field_data_empty_data2
FN:199,_RNvNtNtNtCsNhz5SapXcJ_8hayabusa10detections14field_data_map5testss_23test_convert_field_data
FN:216,_RNvNtNtNtCsNhz5SapXcJ_8hayabusa10detections14field_data_map5testss_34test_build_field_data_map_invalid0
FN:225,_RNvNtNtNtCsNhz5SapXcJ_8hayabusa10detections14field_data_map5testss_34test_build_field_data_map_invalid1
FN:236,_RNvNtNtNtCsNhz5SapXcJ_8hayabusa10detections14field_data_map5testss_34test_build_field_data_map_invalid2
FN:248,_RNvNtNtNtCsNhz5SapXcJ_8hayabusa10detections14field_data_map5testss_34test_build_field_data_map_invalid3
FN:260,_RNvNtNtNtCsNhz5SapXcJ_8hayabusa10detections14field_data_map5testss_31test_build_field_data_map_valid
FN:294,_RNvNtNtNtCsNhz5SapXcJ_8hayabusa10detections14field_data_map5testss_26test_create_field_data_map
FN:300,_RNvNtNtNtCsNhz5SapXcJ_8hayabusa10detections14field_data_map5testss_43test_create_recordinfos_with_field_data_map
FN:27,_RNvMNtNtCsNhz5SapXcJ_8hayabusa10detections14field_data_mapNtB2_15FieldDataMapKey3new
FN:45,_RNvNtNtCsNhz5SapXcJ_8hayabusa10detections14field_data_map20build_field_data_map
FN:50,_RNCNvNtNtCsNhz5SapXcJ_8hayabusa10detections14field_data_map20build_field_data_map0B7_
FN:96,_RNvNtNtCsNhz5SapXcJ_8hayabusa10detections14field_data_map18convert_field_data
FN:120,_RNvNtNtCsNhz5SapXcJ_8hayabusa10detections14field_data_map15load_yaml_files
FN:129,_RNCNvNtNtCsNhz5SapXcJ_8hayabusa10detections14field_data_map15load_yaml_files0B7_
FN:130,_RNCNvNtNtCsNhz5SapXcJ_8hayabusa10detections14field_data_map15load_yaml_filess_0B7_
FN:131,_RNCNvNtNtCsNhz5SapXcJ_8hayabusa10detections14field_data_map15load_yaml_filess0_0B7_
FN:132,_RNCNvNtNtCsNhz5SapXcJ_8hayabusa10detections14field_data_map15load_yaml_filess1_0B7_
FN:146,_RNvNtNtCsNhz5SapXcJ_8hayabusa10detections14field_data_map21create_field_data_map
FNDA:96,_RNvMNtNtCs5DPfXlAluY4_8hayabusa10detections14field_data_mapNtB2_15FieldDataMapKey3new
FNDA:96,_RNvNtNtCs5DPfXlAluY4_8hayabusa10detections14field_data_map20build_field_data_map
FNDA:16,_RNCNvNtNtCs5DPfXlAluY4_8hayabusa10detections14field_data_map20build_field_data_map0B7_
FNDA:214,_RNvNtNtCs5DPfXlAluY4_8hayabusa10detections14field_data_map18convert_field_data
FNDA:16,_RNvNtNtCs5DPfXlAluY4_8hayabusa10detections14field_data_map15load_yaml_files
FNDA:96,_RNCNvNtNtCs5DPfXlAluY4_8hayabusa10detections14field_data_map15load_yaml_files0B7_
FNDA:96,_RNCNvNtNtCs5DPfXlAluY4_8hayabusa10detections14field_data_map15load_yaml_filess_0B7_
FNDA:96,_RNCNvNtNtCs5DPfXlAluY4_8hayabusa10detections14field_data_map15load_yaml_filess0_0B7_
FNDA:96,_RNCNvNtNtCs5DPfXlAluY4_8hayabusa10detections14field_data_map15load_yaml_filess1_0B7_
FNDA:16,_RNvNtNtCs5DPfXlAluY4_8hayabusa10detections14field_data_map21create_field_data_map
FNDA:7,_RNvNtNtNtCsNhz5SapXcJ_8hayabusa10detections14field_data_map5tests10build_yaml
FNDA:1,_RNvNtNtNtCsNhz5SapXcJ_8hayabusa10detections14field_data_map5testss_35test_load_yaml_files_not_exists_dir
FNDA:1,_RNvNtNtNtCsNhz5SapXcJ_8hayabusa10detections14field_data_map5testss_35test_convert_field_data_empty_data1
FNDA:1,_RNvNtNtNtCsNhz5SapXcJ_8hayabusa10detections14field_data_map5testss_35test_convert_field_data_empty_data2
FNDA:1,_RNvNtNtNtCsNhz5SapXcJ_8hayabusa10detections14field_data_map5testss_23test_convert_field_data
FNDA:1,_RNvNtNtNtCsNhz5SapXcJ_8hayabusa10detections14field_data_map5testss_34test_build_field_data_map_invalid0
FNDA:1,_RNvNtNtNtCsNhz5SapXcJ_8hayabusa10detections14field_data_map5testss_34test_build_field_data_map_invalid1
FNDA:1,_RNvNtNtNtCsNhz5SapXcJ_8hayabusa10detections14field_data_map5testss_34test_build_field_data_map_invalid2
FNDA:1,_RNvNtNtNtCsNhz5SapXcJ_8hayabusa10detections14field_data_map5testss_34test_build_field_data_map_invalid3
FNDA:1,_RNvNtNtNtCsNhz5SapXcJ_8hayabusa10detections14field_data_map5testss_31test_build_field_data_map_valid
FNDA:1,_RNvNtNtNtCsNhz5SapXcJ_8hayabusa10detections14field_data_map5testss_26test_create_field_data_map
FNDA:1,_RNvNtNtNtCsNhz5SapXcJ_8hayabusa10detections14field_data_map5testss_43test_create_recordinfos_with_field_data_map
FNDA:2535,_RNvMNtNtCsNhz5SapXcJ_8hayabusa10detections14field_data_mapNtB2_15FieldDataMapKey3new
FNDA:2539,_RNvNtNtCsNhz5SapXcJ_8hayabusa10detections14field_data_map20build_field_data_map
FNDA:423,_RNCNvNtNtCsNhz5SapXcJ_8hayabusa10detections14field_data_map20build_field_data_map0B7_
FNDA:22,_RNvNtNtCsNhz5SapXcJ_8hayabusa10detections14field_data_map18convert_field_data
FNDA:425,_RNvNtNtCsNhz5SapXcJ_8hayabusa10detections14field_data_map15load_yaml_files
FNDA:2654,_RNCNvNtNtCsNhz5SapXcJ_8hayabusa10detections14field_data_map15load_yaml_files0B7_
FNDA:2654,_RNCNvNtNtCsNhz5SapXcJ_8hayabusa10detections14field_data_map15load_yaml_filess_0B7_
FNDA:2532,_RNCNvNtNtCsNhz5SapXcJ_8hayabusa10detections14field_data_map15load_yaml_filess0_0B7_
FNDA:2532,_RNCNvNtNtCsNhz5SapXcJ_8hayabusa10detections14field_data_map15load_yaml_filess1_0B7_
FNDA:423,_RNvNtNtCsNhz5SapXcJ_8hayabusa10detections14field_data_map21create_field_data_map
FNF:22
FNH:22
DA:27,2631
DA:28,2631
DA:29,2631
DA:30,2631
DA:31,2631
DA:32,2631
DA:33,2631
DA:34,2631
DA:35,2631
DA:36,2631
DA:37,2631
DA:38,2631
DA:39,2631
DA:40,2631
DA:41,2631
DA:42,2631
DA:45,2635
DA:46,2635
DA:47,2635
DA:48,1314
DA:50,1321
DA:52,2635
DA:53,4
DA:54,2631
DA:55,2631
DA:56,2631
DA:57,6137
DA:58,6137
DA:59,6137
DA:60,6137
DA:61,0
DA:62,6137
DA:63,6137
DA:64,6137
DA:65,53884
DA:66,53884
DA:67,53884
DA:68,0
DA:69,53884
DA:70,53884
DA:71,53884
DA:72,53884
DA:73,53884
DA:75,6137
DA:76,6137
DA:77,0
DA:78,6137
DA:79,6137
DA:80,6137
DA:81,6137
DA:82,6137
DA:84,0
DA:86,2631
DA:87,3945
DA:88,2192
DA:89,2192
DA:90,2192
DA:92,878
DA:93,2631
DA:94,2635
DA:96,236
DA:97,236
DA:98,236
DA:99,236
DA:100,236
DA:101,236
DA:102,236
DA:103,227
DA:104,9
DA:105,4
DA:106,3
DA:107,3
DA:108,3
DA:109,3
DA:110,3
DA:112,2
DA:113,2
DA:114,0
DA:118,236
DA:120,441
DA:121,441
DA:122,441
DA:123,2
DA:124,2
DA:125,2
DA:126,439
DA:127,439
DA:128,439
DA:129,2750
DA:130,2750
DA:131,2628
DA:132,2628
DA:133,439
DA:134,439
DA:135,0
DA:136,0
DA:137,0
DA:138,0
DA:139,0
DA:140,0
DA:141,0
DA:144,441
DA:146,439
DA:147,439
DA:148,439
DA:149,438
DA:150,1
DA:152,439
DA:166,7
DA:167,7
DA:168,7
DA:169,7
DA:170,7
DA:171,7
DA:172,7
DA:175,1
DA:176,1
DA:177,1
DA:178,1
DA:181,1
DA:182,1
DA:183,1
DA:184,1
DA:187,1
DA:188,1
DA:189,1
DA:190,1
DA:191,1
DA:192,1
DA:193,1
DA:194,1
DA:195,1
DA:196,1
DA:199,1
DA:200,1
DA:201,1
DA:202,1
DA:203,1
DA:204,1
DA:205,1
DA:206,1
DA:207,1
DA:208,1
DA:209,1
DA:210,1
DA:211,1
DA:212,1
DA:213,1
DA:216,1
DA:217,1
DA:218,1
DA:219,1
DA:220,1
DA:221,1
DA:222,1
DA:225,1
DA:226,1
DA:227,1
DA:228,1
DA:229,1
DA:230,1
DA:231,1
DA:232,1
DA:233,1
DA:236,1
DA:237,1
DA:238,1
DA:239,1
DA:240,1
DA:241,1
DA:242,1
DA:243,1
DA:244,1
DA:245,1
DA:248,1
DA:249,1
DA:250,1
DA:251,1
DA:252,1
DA:253,1
DA:254,1
DA:255,1
DA:256,1
DA:257,1
DA:260,1
DA:261,1
DA:262,1
DA:263,1
DA:264,1
DA:265,1
DA:266,1
DA:267,1
DA:268,1
DA:269,1
DA:270,1
DA:271,1
DA:272,1
DA:273,1
DA:274,1
DA:275,0
DA:276,1
DA:277,1
DA:278,1
DA:279,1
DA:282,1
DA:283,0
DA:284,1
DA:285,1
DA:286,1
DA:287,1
DA:288,1
DA:291,1
DA:294,1
DA:295,1
DA:296,1
DA:297,1
DA:300,1
DA:301,1
DA:302,1
DA:303,1
DA:304,1
DA:305,1
DA:306,1
DA:307,1
DA:308,1
DA:309,1
DA:310,1
DA:311,1
DA:312,1
DA:313,1
DA:314,1
DA:315,1
DA:316,1
DA:317,1
DA:318,1
DA:319,1
DA:320,1
DA:321,1
DA:322,1
DA:323,1
DA:324,1
DA:325,1
DA:326,1
DA:327,1
DA:328,1
DA:329,1
DA:330,1
DA:331,1
DA:332,1
DA:333,1
DA:334,1
DA:335,1
DA:336,1
DA:339,0
DA:342,1
BRF:0
BRH:0
LF:260
LH:245
end_of_record
SF:D:\opensource\hayabusa\src\detections\field_extract.rs
FN:4,_RNvNtNtCs5DPfXlAluY4_8hayabusa10detections13field_extract14extract_fields
FN:22,_RNvNtNtCs5DPfXlAluY4_8hayabusa10detections13field_extract33extract_powershell_classic_fields
FN:51,_RNCNvNtNtCs5DPfXlAluY4_8hayabusa10detections13field_extract33extract_powershell_classic_fields0B7_
FN:52,_RNCNvNtNtCs5DPfXlAluY4_8hayabusa10detections13field_extract33extract_powershell_classic_fieldss_0B7_
FN:72,_RNvNtNtNtCsNhz5SapXcJ_8hayabusa10detections13field_extract5testss_50test_powershell_classic_data_fields_extraction_400
FN:109,_RNvNtNtNtCsNhz5SapXcJ_8hayabusa10detections13field_extract5testss_50test_powershell_classic_data_fields_extraction_800
FN:146,_RNvNtNtNtCsNhz5SapXcJ_8hayabusa10detections13field_extract5testss_65test_powershell_classic_data_fields_extraction_400_data_2_missing
FN:4,_RNvNtNtCsNhz5SapXcJ_8hayabusa10detections13field_extract14extract_fields
FN:22,_RNvNtNtCsNhz5SapXcJ_8hayabusa10detections13field_extract33extract_powershell_classic_fields
FN:51,_RNCNvNtNtCsNhz5SapXcJ_8hayabusa10detections13field_extract33extract_powershell_classic_fields0B7_
FN:52,_RNCNvNtNtCsNhz5SapXcJ_8hayabusa10detections13field_extract33extract_powershell_classic_fieldss_0B7_
FNDA:9,_RNvNtNtCs5DPfXlAluY4_8hayabusa10detections13field_extract14extract_fields
FNDA:0,_RNvNtNtCs5DPfXlAluY4_8hayabusa10detections13field_extract33extract_powershell_classic_fields
FNDA:0,_RNCNvNtNtCs5DPfXlAluY4_8hayabusa10detections13field_extract33extract_powershell_classic_fields0B7_
FNDA:0,_RNCNvNtNtCs5DPfXlAluY4_8hayabusa10detections13field_extract33extract_powershell_classic_fieldss_0B7_
FNDA:1,_RNvNtNtNtCsNhz5SapXcJ_8hayabusa10detections13field_extract5testss_50test_powershell_classic_data_fields_extraction_400
FNDA:1,_RNvNtNtNtCsNhz5SapXcJ_8hayabusa10detections13field_extract5testss_50test_powershell_classic_data_fields_extraction_800
FNDA:1,_RNvNtNtNtCsNhz5SapXcJ_8hayabusa10detections13field_extract5testss_65test_powershell_classic_data_fields_extraction_400_data_2_missing
FNDA:263,_RNvNtNtCsNhz5SapXcJ_8hayabusa10detections13field_extract14extract_fields
FNDA:21,_RNvNtNtCsNhz5SapXcJ_8hayabusa10detections13field_extract33extract_powershell_classic_fields
FNDA:2,_RNCNvNtNtCsNhz5SapXcJ_8hayabusa10detections13field_extract33extract_powershell_classic_fields0B7_
FNDA:2,_RNCNvNtNtCsNhz5SapXcJ_8hayabusa10detections13field_extract33extract_powershell_classic_fieldss_0B7_
FNF:7
FNH:7
DA:4,272
DA:5,272
DA:6,272
DA:7,272
DA:8,272
DA:9,272
DA:10,272
DA:11,109
DA:12,68
DA:13,3
DA:14,3
DA:15,3
DA:16,3
DA:17,65
DA:18,41
DA:19,163
DA:20,272
DA:22,21
DA:23,21
DA:24,21
DA:25,21
DA:26,21
DA:27,21
DA:28,12
DA:29,12
DA:30,28
DA:31,18
DA:32,18
DA:33,2
DA:34,16
DA:36,12
DA:37,4
DA:38,2
DA:39,2
DA:40,2
DA:41,2
DA:43,10
DA:45,3
DA:46,3
DA:47,2
DA:48,2
DA:49,2
DA:50,2
DA:51,2
DA:52,2
DA:53,2
DA:54,2
DA:55,2
DA:56,0
DA:57,0
DA:58,1
DA:60,6
DA:62,19
DA:63,21
DA:72,1
DA:73,1
DA:74,1
DA:75,1
DA:76,1
DA:77,1
DA:78,1
DA:79,1
DA:80,1
DA:81,1
DA:82,1
DA:83,1
DA:84,1
DA:85,1
DA:86,1
DA:87,1
DA:88,1
DA:89,1
DA:90,1
DA:91,1
DA:92,1
DA:93,1
DA:94,1
DA:95,1
DA:96,1
DA:97,1
DA:98,1
DA:99,1
DA:100,1
DA:101,1
DA:102,1
DA:103,1
DA:104,1
DA:105,1
DA:106,1
DA:109,1
DA:110,1
DA:111,1
DA:112,1
DA:113,1
DA:114,1
DA:115,1
DA:116,1
DA:117,1
DA:118,1
DA:119,1
DA:120,1
DA:121,1
DA:122,1
DA:123,1
DA:124,1
DA:125,1
DA:126,1
DA:127,1
DA:128,1
DA:129,1
DA:130,1
DA:131,1
DA:132,1
DA:133,1
DA:134,1
DA:135,1
DA:136,1
DA:137,1
DA:138,1
DA:139,1
DA:140,1
DA:141,1
DA:142,1
DA:143,1
DA:146,1
DA:147,1
DA:148,1
DA:149,1
DA:150,1
DA:151,1
DA:152,1
DA:153,1
DA:154,1
DA:155,1
DA:156,1
DA:157,1
DA:158,1
DA:159,1
DA:160,1
DA:161,1
DA:162,1
DA:163,1
DA:164,1
DA:165,1
DA:166,1
DA:167,1
DA:168,1
DA:169,1
DA:170,1
DA:171,1
DA:172,1
DA:173,1
BRF:0
BRH:0
LF:154
LH:152
end_of_record
SF:D:\opensource\hayabusa\src\detections\message.rs
FN:80,_RNvNtNtCs5DPfXlAluY4_8hayabusa10detections7message27create_output_filter_config
FN:92,_RNCNvNtNtCs5DPfXlAluY4_8hayabusa10detections7message27create_output_filter_config0B7_
FN:100,_RNCNCNvNtNtCs5DPfXlAluY4_8hayabusa10detections7message27create_output_filter_config00B9_
FN:106,_RNvNtNtCs5DPfXlAluY4_8hayabusa10detections7message14create_message
FN:130,_RNCNvNtNtCs5DPfXlAluY4_8hayabusa10detections7message14create_message0B7_
FN:205,_RNCNvNtNtCs5DPfXlAluY4_8hayabusa10detections7message14create_messages_0B7_
FN:224,_RNCNvNtNtCs5DPfXlAluY4_8hayabusa10detections7message14create_messages0_0B7_
FN:228,_RNCNvNtNtCs5DPfXlAluY4_8hayabusa10detections7message14create_messages1_0B7_
FN:274,_RNvNtNtCs5DPfXlAluY4_8hayabusa10detections7message13parse_message
FN:308,_RNCNvNtNtCs5DPfXlAluY4_8hayabusa10detections7message13parse_message0B7_
FN:365,_RNvNtNtCs5DPfXlAluY4_8hayabusa10detections7message14get_event_time
FN:376,_RNvMNtNtCs5DPfXlAluY4_8hayabusa10detections7messageNtB2_12AlertMessage16create_error_log
FN:402,_RNCNvMNtNtCs5DPfXlAluY4_8hayabusa10detections7messageNtB4_12AlertMessage16create_error_log0B8_
FN:410,_RNvMNtNtCs5DPfXlAluY4_8hayabusa10detections7messageNtB2_12AlertMessage5alert
FN:420,_RNvMNtNtCs5DPfXlAluY4_8hayabusa10detections7messageNtB2_12AlertMessage4warn
FN:792,_RNvNtNtNtCsNhz5SapXcJ_8hayabusa10detections7message5tests22__check_hashmap_element
FN:444,_RNvNtNtNtCsNhz5SapXcJ_8hayabusa10detections7message5testss_18test_error_message
FN:450,_RNvNtNtNtCsNhz5SapXcJ_8hayabusa10detections7message5testss_17test_warn_message
FN:457,_RNvNtNtNtCsNhz5SapXcJ_8hayabusa10detections7message5testss_18test_parse_message
FN:499,_RNvNtNtNtCsNhz5SapXcJ_8hayabusa10detections7message5testss_30test_parse_message_auto_search
FN:536,_RNvNtNtNtCsNhz5SapXcJ_8hayabusa10detections7message5testss_42test_parse_message_not_exist_key_in_output
FN:577,_RNvNtNtNtCsNhz5SapXcJ_8hayabusa10detections7message5testss_44test_parse_message_not_exist_value_in_record
FN:618,_RNvNtNtNtCsNhz5SapXcJ_8hayabusa10detections7message5testss_47test_parse_message_multiple_no_suffix_in_record
FN:664,_RNvNtNtNtCsNhz5SapXcJ_8hayabusa10detections7message5testss_49test_parse_message_multiple_with_suffix_in_record
FN:710,_RNvNtNtNtCsNhz5SapXcJ_8hayabusa10detections7message5testss_46test_parse_message_multiple_no_exist_in_record
FN:756,_RNvNtNtNtCsNhz5SapXcJ_8hayabusa10detections7message5testss_27test_load_mitre_tactics_log
FN:767,_RNvNtNtNtCsNhz5SapXcJ_8hayabusa10detections7message5testss_22test_load_abbrevations
FN:781,_RNvNtNtNtCsNhz5SapXcJ_8hayabusa10detections7message5testss_20__get_default_defails
FN:376,_RNvMNtNtCsNhz5SapXcJ_8hayabusa10detections7messageNtB2_12AlertMessage16create_error_log
FN:402,_RNCNvMNtNtCsNhz5SapXcJ_8hayabusa10detections7messageNtB4_12AlertMessage16create_error_log0B8_
FN:80,_RNvNtNtCsNhz5SapXcJ_8hayabusa10detections7message27create_output_filter_config
FN:92,_RNCNvNtNtCsNhz5SapXcJ_8hayabusa10detections7message27create_output_filter_config0B7_
FN:100,_RNCNCNvNtNtCsNhz5SapXcJ_8hayabusa10detections7message27create_output_filter_config00B9_
FN:106,_RNvNtNtCsNhz5SapXcJ_8hayabusa10detections7message14create_message
FN:130,_RNCNvNtNtCsNhz5SapXcJ_8hayabusa10detections7message14create_message0B7_
FN:205,_RNCNvNtNtCsNhz5SapXcJ_8hayabusa10detections7message14create_messages_0B7_
FN:224,_RNCNvNtNtCsNhz5SapXcJ_8hayabusa10detections7message14create_messages0_0B7_
FN:228,_RNCNvNtNtCsNhz5SapXcJ_8hayabusa10detections7message14create_messages1_0B7_
FN:274,_RNvNtNtCsNhz5SapXcJ_8hayabusa10detections7message13parse_message
FN:308,_RNCNvNtNtCsNhz5SapXcJ_8hayabusa10detections7message13parse_message0B7_
FN:365,_RNvNtNtCsNhz5SapXcJ_8hayabusa10detections7message14get_event_time
FN:410,_RNvMNtNtCsNhz5SapXcJ_8hayabusa10detections7messageNtB2_12AlertMessage5alert
FN:420,_RNvMNtNtCsNhz5SapXcJ_8hayabusa10detections7messageNtB2_12AlertMessage4warn
FNDA:49,_RNvNtNtCs5DPfXlAluY4_8hayabusa10detections7message27create_output_filter_config
FNDA:1438,_RNCNvNtNtCs5DPfXlAluY4_8hayabusa10detections7message27create_output_filter_config0B7_
FNDA:1452,_RNCNCNvNtNtCs5DPfXlAluY4_8hayabusa10detections7message27create_output_filter_config00B9_
FNDA:5,_RNvNtNtCs5DPfXlAluY4_8hayabusa10detections7message14create_message
FNDA:18,_RNCNvNtNtCs5DPfXlAluY4_8hayabusa10detections7message14create_message0B7_
FNDA:18,_RNCNvNtNtCs5DPfXlAluY4_8hayabusa10detections7message14create_messages_0B7_
FNDA:200,_RNCNvNtNtCs5DPfXlAluY4_8hayabusa10detections7message14create_messages0_0B7_
FNDA:184,_RNCNvNtNtCs5DPfXlAluY4_8hayabusa10detections7message14create_messages1_0B7_
FNDA:40,_RNvNtNtCs5DPfXlAluY4_8hayabusa10detections7message13parse_message
FNDA:0,_RNCNvNtNtCs5DPfXlAluY4_8hayabusa10detections7message13parse_message0B7_
FNDA:5,_RNvNtNtCs5DPfXlAluY4_8hayabusa10detections7message14get_event_time
FNDA:0,_RNvMNtNtCs5DPfXlAluY4_8hayabusa10detections7messageNtB2_12AlertMessage16create_error_log
FNDA:0,_RNCNvMNtNtCs5DPfXlAluY4_8hayabusa10detections7messageNtB4_12AlertMessage16create_error_log0B8_
FNDA:5,_RNvMNtNtCs5DPfXlAluY4_8hayabusa10detections7messageNtB2_12AlertMessage5alert
FNDA:0,_RNvMNtNtCs5DPfXlAluY4_8hayabusa10detections7messageNtB2_12AlertMessage4warn
FNDA:4,_RNvNtNtNtCsNhz5SapXcJ_8hayabusa10detections7message5tests22__check_hashmap_element
FNDA:1,_RNvNtNtNtCsNhz5SapXcJ_8hayabusa10detections7message5testss_18test_error_message
FNDA:1,_RNvNtNtNtCsNhz5SapXcJ_8hayabusa10detections7message5testss_17test_warn_message
FNDA:1,_RNvNtNtNtCsNhz5SapXcJ_8hayabusa10detections7message5testss_18test_parse_message
FNDA:1,_RNvNtNtNtCsNhz5SapXcJ_8hayabusa10detections7message5testss_30test_parse_message_auto_search
FNDA:1,_RNvNtNtNtCsNhz5SapXcJ_8hayabusa10detections7message5testss_42test_parse_message_not_exist_key_in_output
FNDA:1,_RNvNtNtNtCsNhz5SapXcJ_8hayabusa10detections7message5testss_44test_parse_message_not_exist_value_in_record
FNDA:1,_RNvNtNtNtCsNhz5SapXcJ_8hayabusa10detections7message5testss_47test_parse_message_multiple_no_suffix_in_record
FNDA:1,_RNvNtNtNtCsNhz5SapXcJ_8hayabusa10detections7message5testss_49test_parse_message_multiple_with_suffix_in_record
FNDA:1,_RNvNtNtNtCsNhz5SapXcJ_8hayabusa10detections7message5testss_46test_parse_message_multiple_no_exist_in_record
FNDA:1,_RNvNtNtNtCsNhz5SapXcJ_8hayabusa10detections7message5testss_27test_load_mitre_tactics_log
FNDA:1,_RNvNtNtNtCsNhz5SapXcJ_8hayabusa10detections7message5testss_22test_load_abbrevations
FNDA:1,_RNvNtNtNtCsNhz5SapXcJ_8hayabusa10detections7message5testss_20__get_default_defails
FNDA:0,_RNvMNtNtCsNhz5SapXcJ_8hayabusa10detections7messageNtB2_12AlertMessage16create_error_log
FNDA:0,_RNCNvMNtNtCsNhz5SapXcJ_8hayabusa10detections7messageNtB4_12AlertMessage16create_error_log0B8_
FNDA:1277,_RNvNtNtCsNhz5SapXcJ_8hayabusa10detections7message27create_output_filter_config
FNDA:37592,_RNCNvNtNtCsNhz5SapXcJ_8hayabusa10detections7message27create_output_filter_config0B7_
FNDA:37606,_RNCNCNvNtNtCsNhz5SapXcJ_8hayabusa10detections7message27create_output_filter_config00B9_
FNDA:15,_RNvNtNtCsNhz5SapXcJ_8hayabusa10detections7message14create_message
FNDA:5,_RNCNvNtNtCsNhz5SapXcJ_8hayabusa10detections7message14create_message0B7_
FNDA:10,_RNCNvNtNtCsNhz5SapXcJ_8hayabusa10detections7message14create_messages_0B7_
FNDA:15,_RNCNvNtNtCsNhz5SapXcJ_8hayabusa10detections7message14create_messages0_0B7_
FNDA:13,_RNCNvNtNtCsNhz5SapXcJ_8hayabusa10detections7message14create_messages1_0B7_
FNDA:169,_RNvNtNtCsNhz5SapXcJ_8hayabusa10detections7message13parse_message
FNDA:2,_RNCNvNtNtCsNhz5SapXcJ_8hayabusa10detections7message13parse_message0B7_
FNDA:119,_RNvNtNtCsNhz5SapXcJ_8hayabusa10detections7message14get_event_time
FNDA:8,_RNvMNtNtCsNhz5SapXcJ_8hayabusa10detections7messageNtB2_12AlertMessage5alert
FNDA:3,_RNvMNtNtCsNhz5SapXcJ_8hayabusa10detections7messageNtB2_12AlertMessage4warn
FNF:28
FNH:26
DA:80,1326
DA:81,1326
DA:82,1326
DA:83,1326
DA:84,1326
DA:85,1326
DA:86,1326
DA:87,0
DA:88,0
DA:89,0
DA:92,39030
DA:93,39030
DA:94,19758
DA:96,19272
DA:98,39030
DA:99,39030
DA:100,39058
DA:101,39030
DA:102,39030
DA:103,1326
DA:104,1326
DA:106,20
DA:107,20
DA:108,20
DA:109,20
DA:110,20
DA:111,20
DA:112,20
DA:113,20
DA:114,20
DA:115,20
DA:116,20
DA:117,20
DA:118,20
DA:119,20
DA:120,20
DA:122,20
DA:123,20
DA:124,20
DA:125,20
DA:126,20
DA:127,20
DA:128,20
DA:129,20
DA:130,23
DA:131,23
DA:132,23
DA:133,20
DA:134,6
DA:135,14
DA:138,20
DA:139,20
DA:140,0
DA:142,20
DA:144,0
DA:145,0
DA:146,0
DA:147,0
DA:148,0
DA:149,0
DA:150,0
DA:151,20
DA:152,20
DA:153,244
DA:154,244
DA:156,20
DA:157,0
DA:158,0
DA:159,20
DA:160,20
DA:161,20
DA:162,20
DA:163,20
DA:164,20
DA:167,11
DA:168,11
DA:169,0
DA:170,0
DA:171,11
DA:172,0
DA:174,11
DA:176,11
DA:177,5
DA:178,5
DA:179,5
DA:180,6
DA:181,6
DA:182,0
DA:183,6
DA:184,6
DA:186,0
DA:188,6
DA:191,0
DA:193,10
DA:194,0
DA:195,0
DA:196,0
DA:197,0
DA:198,0
DA:199,0
DA:200,0
DA:201,0
DA:202,10
DA:203,10
DA:204,10
DA:205,28
DA:206,28
DA:207,28
DA:208,28
DA:209,28
DA:210,10
DA:212,10
DA:213,10
DA:215,1
DA:217,9
DA:218,9
DA:219,9
DA:220,9
DA:222,10
DA:223,10
DA:224,215
DA:225,215
DA:226,215
DA:227,215
DA:228,197
DA:229,10
DA:230,10
DA:231,10
DA:232,1
DA:233,1
DA:234,9
DA:235,0
DA:236,9
DA:237,9
DA:238,9
DA:239,9
DA:240,9
DA:241,9
DA:244,24
DA:245,24
DA:246,24
DA:247,24
DA:250,179
DA:251,179
DA:252,179
DA:253,179
DA:254,179
DA:255,179
DA:256,179
DA:257,179
DA:258,179
DA:259,179
DA:260,0
DA:264,20
DA:265,9
DA:266,11
DA:267,20
DA:268,20
DA:269,20
DA:270,20
DA:271,20
DA:274,209
DA:275,209
DA:276,209
DA:277,209
DA:278,209
DA:279,209
DA:280,209
DA:281,209
DA:282,209
DA:283,209
DA:284,209
DA:285,209
DA:286,38
DA:287,38
DA:288,38
DA:289,38
DA:290,38
DA:291,38
DA:292,38
DA:293,19
DA:295,19
DA:298,38
DA:299,38
DA:300,114
DA:301,114
DA:302,103
DA:303,103
DA:304,103
DA:306,38
DA:307,38
DA:308,2
DA:309,36
DA:311,38
DA:312,1
DA:313,1
DA:314,1
DA:315,1
DA:316,1
DA:317,37
DA:318,38
DA:319,38
DA:320,28
DA:321,28
DA:322,11
DA:324,17
DA:325,17
DA:326,17
DA:327,17
DA:328,17
DA:329,17
DA:330,17
DA:332,28
DA:333,7
DA:334,21
DA:335,21
DA:336,21
DA:337,21
DA:338,21
DA:339,21
DA:340,0
DA:341,10
DA:342,10
DA:343,10
DA:344,10
DA:345,10
DA:346,10
DA:348,209
DA:349,209
DA:351,38
DA:352,29
DA:353,29
DA:354,120
DA:355,120
DA:356,38
DA:357,38
DA:358,38
DA:359,82
DA:362,209
DA:363,209
DA:365,124
DA:366,124
DA:367,5
DA:369,119
DA:371,124
DA:372,124
DA:376,0
DA:377,0
DA:378,0
DA:379,0
DA:380,0
DA:381,0
DA:382,0
DA:383,0
DA:384,0
DA:385,0
DA:386,0
DA:387,0
DA:388,0
DA:389,0
DA:390,0
DA:391,0
DA:392,0
DA:393,0
DA:394,0
DA:395,0
DA:396,0
DA:397,0
DA:398,0
DA:399,0
DA:400,0
DA:401,0
DA:402,0
DA:403,0
DA:404,0
DA:405,0
DA:406,0
DA:407,0
DA:410,13
DA:411,13
DA:412,13
DA:413,13
DA:414,13
DA:415,13
DA:416,13
DA:417,13
DA:420,3
DA:421,3
DA:422,3
DA:423,3
DA:424,3
DA:425,3
DA:426,3
DA:427,3
DA:444,1
DA:445,1
DA:446,1
DA:447,1
DA:450,1
DA:451,1
DA:452,1
DA:453,1
DA:457,1
DA:458,1
DA:459,1
DA:460,1
DA:461,1
DA:462,1
DA:463,1
DA:464,1
DA:465,1
DA:466,1
DA:467,1
DA:468,1
DA:469,1
DA:470,1
DA:471,1
DA:472,1
DA:473,1
DA:474,1
DA:475,1
DA:476,1
DA:477,1
DA:478,1
DA:479,1
DA:480,1
DA:481,1
DA:482,1
DA:483,1
DA:484,1
DA:485,1
DA:486,1
DA:487,1
DA:488,1
DA:489,1
DA:490,1
DA:491,1
DA:492,1
DA:493,1
DA:494,1
DA:495,1
DA:496,1
DA:499,1
DA:500,1
DA:501,1
DA:502,1
DA:503,1
DA:504,1
DA:505,1
DA:506,1
DA:507,1
DA:508,1
DA:509,1
DA:510,1
DA:511,1
DA:512,1
DA:513,1
DA:514,1
DA:515,1
DA:516,1
DA:517,1
DA:518,1
DA:519,1
DA:520,1
DA:521,1
DA:522,1
DA:523,1
DA:524,1
DA:525,1
DA:526,1
DA:527,1
DA:528,1
DA:529,1
DA:530,1
DA:531,1
DA:532,1
DA:536,1
DA:537,1
DA:538,1
DA:539,1
DA:540,1
DA:541,1
DA:542,1
DA:543,1
DA:544,1
DA:545,1
DA:546,1
DA:547,1
DA:548,1
DA:549,1
DA:550,1
DA:551,1
DA:552,1
DA:553,1
DA:554,1
DA:555,1
DA:556,1
DA:557,1
DA:558,1
DA:559,1
DA:560,1
DA:561,1
DA:562,1
DA:563,1
DA:564,1
DA:565,1
DA:566,1
DA:567,1
DA:568,1
DA:569,1
DA:570,1
DA:571,1
DA:572,1
DA:573,1
DA:574,1
DA:577,1
DA:578,1
DA:579,1
DA:580,1
DA:581,1
DA:582,1
DA:583,1
DA:584,1
DA:585,1
DA:586,1
DA:587,1
DA:588,1
DA:589,1
DA:590,1
DA:591,1
DA:592,1
DA:593,1
DA:594,1
DA:595,1
DA:596,1
DA:597,1
DA:598,1
DA:599,1
DA:600,1
DA:601,1
DA:602,1
DA:603,1
DA:604,1
DA:605,1
DA:606,1
DA:607,1
DA:608,1
DA:609,1
DA:610,1
DA:611,1
DA:612,1
DA:613,1
DA:614,1
DA:615,1
DA:618,1
DA:619,1
DA:620,1
DA:621,1
DA:622,1
DA:623,1
DA:624,1
DA:625,1
DA:626,1
DA:627,1
DA:628,1
DA:629,1
DA:630,1
DA:631,1
DA:632,1
DA:633,1
DA:634,1
DA:635,1
DA:636,1
DA:637,1
DA:638,1
DA:639,1
DA:640,1
DA:641,1
DA:642,1
DA:643,1
DA:644,1
DA:645,1
DA:646,1
DA:647,1
DA:648,1
DA:649,1
DA:650,1
DA:651,1
DA:652,1
DA:653,1
DA:654,1
DA:655,1
DA:656,1
DA:657,1
DA:658,1
DA:659,1
DA:660,1
DA:661,1
DA:664,1
DA:665,1
DA:666,1
DA:667,1
DA:668,1
DA:669,1
DA:670,1
DA:671,1
DA:672,1
DA:673,1
DA:674,1
DA:675,1
DA:676,1
DA:677,1
DA:678,1
DA:679,1
DA:680,1
DA:681,1
DA:682,1
DA:683,1
DA:684,1
DA:685,1
DA:686,1
DA:687,1
DA:688,1
DA:689,1
DA:690,1
DA:691,1
DA:692,1
DA:693,1
DA:694,1
DA:695,1
DA:696,1
DA:697,1
DA:698,1
DA:699,1
DA:700,1
DA:701,1
DA:702,1
DA:703,1
DA:704,1
DA:705,1
DA:706,1
DA:707,1
DA:710,1
DA:711,1
DA:712,1
DA:713,1
DA:714,1
DA:715,1
DA:716,1
DA:717,1
DA:718,1
DA:719,1
DA:720,1
DA:721,1
DA:722,1
DA:723,1
DA:724,1
DA:725,1
DA:726,1
DA:727,1
DA:728,1
DA:729,1
DA:730,1
DA:731,1
DA:732,1
DA:733,1
DA:734,1
DA:735,1
DA:736,1
DA:737,1
DA:738,1
DA:739,1
DA:740,1
DA:741,1
DA:742,1
DA:743,1
DA:744,1
DA:745,1
DA:746,1
DA:747,1
DA:748,1
DA:749,1
DA:750,1
DA:751,1
DA:752,1
DA:753,1
DA:756,1
DA:757,1
DA:758,1
DA:759,1
DA:760,1
DA:761,1
DA:762,1
DA:763,1
DA:767,1
DA:768,1
DA:769,1
DA:770,1
DA:771,1
DA:772,1
DA:773,1
DA:774,1
DA:775,1
DA:776,1
DA:777,1
DA:778,1
DA:781,1
DA:782,1
DA:783,1
DA:784,1
DA:785,1
DA:786,1
DA:787,1
DA:788,1
DA:789,1
DA:792,4
DA:793,4
DA:794,4
DA:795,4
DA:796,4
DA:797,10
DA:798,10
DA:800,4
BRF:0
BRH:0
LF:636
LH:568
end_of_record
SF:D:\opensource\hayabusa\src\detections\rule\aggregation_parser.rs
FN:48,_RNvMNtNtNtCs5DPfXlAluY4_8hayabusa10detections4rule18aggregation_parserNtB2_27AggegationConditionCompiler3new
FN:52,_RNvMNtNtNtCs5DPfXlAluY4_8hayabusa10detections4rule18aggregation_parserNtB2_27AggegationConditionCompiler7compile
FN:63,_RNvMNtNtNtCs5DPfXlAluY4_8hayabusa10detections4rule18aggregation_parserNtB2_27AggegationConditionCompiler12compile_body
FN:87,_RNvMNtNtNtCs5DPfXlAluY4_8hayabusa10detections4rule18aggregation_parserNtB2_27AggegationConditionCompiler8tokenize
FN:95,_RNCNvMNtNtNtCs5DPfXlAluY4_8hayabusa10detections4rule18aggregation_parserNtB4_27AggegationConditionCompiler8tokenize0Ba_
FN:120,_RNvMNtNtNtCs5DPfXlAluY4_8hayabusa10detections4rule18aggregation_parserNtB2_27AggegationConditionCompiler9is_cmp_op
FN:132,_RNvMNtNtNtCs5DPfXlAluY4_8hayabusa10detections4rule18aggregation_parserNtB2_27AggegationConditionCompiler5parse
FN:229,_RNvMNtNtNtCs5DPfXlAluY4_8hayabusa10detections4rule18aggregation_parserNtB2_27AggegationConditionCompiler7to_enum
FN:424,_RNvNtNtNtNtCsNhz5SapXcJ_8hayabusa10detections4rule18aggregation_parser5tests31check_aggregation_condition_ope
FN:263,_RNvNtNtNtNtCsNhz5SapXcJ_8hayabusa10detections4rule18aggregation_parser5testss_43test_aggegation_condition_compiler_no_count
FN:273,_RNvNtNtNtNtCsNhz5SapXcJ_8hayabusa10detections4rule18aggregation_parser5testss_44test_aggegation_condition_compiler_count_ope
FN:297,_RNvNtNtNtNtCsNhz5SapXcJ_8hayabusa10detections4rule18aggregation_parser5testss_43test_aggegation_condition_compiler_count_by
FN:313,_RNvNtNtNtNtCsNhz5SapXcJ_8hayabusa10detections4rule18aggregation_parser5testss_46test_aggegation_condition_compiler_count_field
FN:329,_RNvNtNtNtNtCsNhz5SapXcJ_8hayabusa10detections4rule18aggregation_parser5testss_50test_aggegation_condition_compiler_count_all_field
FN:345,_RNvNtNtNtNtCsNhz5SapXcJ_8hayabusa10detections4rule18aggregation_parser5testss_44test_aggegation_condition_compiler_only_pipe
FN:358,_RNvNtNtNtNtCsNhz5SapXcJ_8hayabusa10detections4rule18aggregation_parser5testss_51test_aggegation_condition_compiler_unused_character
FN:371,_RNvNtNtNtNtCsNhz5SapXcJ_8hayabusa10detections4rule18aggregation_parser5testss_44test_aggegation_condition_compiler_not_count
FN:381,_RNvNtNtNtNtCsNhz5SapXcJ_8hayabusa10detections4rule18aggregation_parser5testss_41test_aggegation_condition_compiler_no_ope
FN:391,_RNvNtNtNtNtCsNhz5SapXcJ_8hayabusa10detections4rule18aggregation_parser5testss_37test_aggegation_condition_compiler_by
FN:401,_RNvNtNtNtNtCsNhz5SapXcJ_8hayabusa10detections4rule18aggregation_parser5testss_49test_aggegation_condition_compiler_no_ope_afterby
FN:411,_RNvNtNtNtNtCsNhz5SapXcJ_8hayabusa10detections4rule18aggregation_parser5testss_51test_aggegation_condition_compiler_unneccesary_word
FN:48,_RNvMNtNtNtCsNhz5SapXcJ_8hayabusa10detections4rule18aggregation_parserNtB2_27AggegationConditionCompiler3new
FN:52,_RNvMNtNtNtCsNhz5SapXcJ_8hayabusa10detections4rule18aggregation_parserNtB2_27AggegationConditionCompiler7compile
FN:63,_RNvMNtNtNtCsNhz5SapXcJ_8hayabusa10detections4rule18aggregation_parserNtB2_27AggegationConditionCompiler12compile_body
FN:87,_RNvMNtNtNtCsNhz5SapXcJ_8hayabusa10detections4rule18aggregation_parserNtB2_27AggegationConditionCompiler8tokenize
FN:95,_RNCNvMNtNtNtCsNhz5SapXcJ_8hayabusa10detections4rule18aggregation_parserNtB4_27AggegationConditionCompiler8tokenize0Ba_
FN:120,_RNvMNtNtNtCsNhz5SapXcJ_8hayabusa10detections4rule18aggregation_parserNtB2_27AggegationConditionCompiler9is_cmp_op
FN:132,_RNvMNtNtNtCsNhz5SapXcJ_8hayabusa10detections4rule18aggregation_parserNtB2_27AggegationConditionCompiler5parse
FN:229,_RNvMNtNtNtCsNhz5SapXcJ_8hayabusa10detections4rule18aggregation_parserNtB2_27AggegationConditionCompiler7to_enum
FNDA:5,_RNvMNtNtNtCs5DPfXlAluY4_8hayabusa10detections4rule18aggregation_parserNtB2_27AggegationConditionCompiler3new
FNDA:5,_RNvMNtNtNtCs5DPfXlAluY4_8hayabusa10detections4rule18aggregation_parserNtB2_27AggegationConditionCompiler7compile
FNDA:5,_RNvMNtNtNtCs5DPfXlAluY4_8hayabusa10detections4rule18aggregation_parserNtB2_27AggegationConditionCompiler12compile_body
FNDA:0,_RNvMNtNtNtCs5DPfXlAluY4_8hayabusa10detections4rule18aggregation_parserNtB2_27AggegationConditionCompiler8tokenize
FNDA:0,_RNCNvMNtNtNtCs5DPfXlAluY4_8hayabusa10detections4rule18aggregation_parserNtB4_27AggegationConditionCompiler8tokenize0Ba_
FNDA:0,_RNvMNtNtNtCs5DPfXlAluY4_8hayabusa10detections4rule18aggregation_parserNtB2_27AggegationConditionCompiler9is_cmp_op
FNDA:0,_RNvMNtNtNtCs5DPfXlAluY4_8hayabusa10detections4rule18aggregation_parserNtB2_27AggegationConditionCompiler5parse
FNDA:0,_RNvMNtNtNtCs5DPfXlAluY4_8hayabusa10detections4rule18aggregation_parserNtB2_27AggegationConditionCompiler7to_enum
FNDA:5,_RNvNtNtNtNtCsNhz5SapXcJ_8hayabusa10detections4rule18aggregation_parser5tests31check_aggregation_condition_ope
FNDA:1,_RNvNtNtNtNtCsNhz5SapXcJ_8hayabusa10detections4rule18aggregation_parser5testss_43test_aggegation_condition_compiler_no_count
FNDA:1,_RNvNtNtNtNtCsNhz5SapXcJ_8hayabusa10detections4rule18aggregation_parser5testss_44test_aggegation_condition_compiler_count_ope
FNDA:1,_RNvNtNtNtNtCsNhz5SapXcJ_8hayabusa10detections4rule18aggregation_parser5testss_43test_aggegation_condition_compiler_count_by
FNDA:1,_RNvNtNtNtNtCsNhz5SapXcJ_8hayabusa10detections4rule18aggregation_parser5testss_46test_aggegation_condition_compiler_count_field
FNDA:1,_RNvNtNtNtNtCsNhz5SapXcJ_8hayabusa10detections4rule18aggregation_parser5testss_50test_aggegation_condition_compiler_count_all_field
FNDA:1,_RNvNtNtNtNtCsNhz5SapXcJ_8hayabusa10detections4rule18aggregation_parser5testss_44test_aggegation_condition_compiler_only_pipe
FNDA:1,_RNvNtNtNtNtCsNhz5SapXcJ_8hayabusa10detections4rule18aggregation_parser5testss_51test_aggegation_condition_compiler_unused_character
FNDA:1,_RNvNtNtNtNtCsNhz5SapXcJ_8hayabusa10detections4rule18aggregation_parser5testss_44test_aggegation_condition_compiler_not_count
FNDA:1,_RNvNtNtNtNtCsNhz5SapXcJ_8hayabusa10detections4rule18aggregation_parser5testss_41test_aggegation_condition_compiler_no_ope
FNDA:1,_RNvNtNtNtNtCsNhz5SapXcJ_8hayabusa10detections4rule18aggregation_parser5testss_37test_aggegation_condition_compiler_by
FNDA:1,_RNvNtNtNtNtCsNhz5SapXcJ_8hayabusa10detections4rule18aggregation_parser5testss_49test_aggegation_condition_compiler_no_ope_afterby
FNDA:1,_RNvNtNtNtNtCsNhz5SapXcJ_8hayabusa10detections4rule18aggregation_parser5testss_51test_aggegation_condition_compiler_unneccesary_word
FNDA:208,_RNvMNtNtNtCsNhz5SapXcJ_8hayabusa10detections4rule18aggregation_parserNtB2_27AggegationConditionCompiler3new
FNDA:208,_RNvMNtNtNtCsNhz5SapXcJ_8hayabusa10detections4rule18aggregation_parserNtB2_27AggegationConditionCompiler7compile
FNDA:208,_RNvMNtNtNtCsNhz5SapXcJ_8hayabusa10detections4rule18aggregation_parserNtB2_27AggegationConditionCompiler12compile_body
FNDA:56,_RNvMNtNtNtCsNhz5SapXcJ_8hayabusa10detections4rule18aggregation_parserNtB2_27AggegationConditionCompiler8tokenize
FNDA:1399,_RNCNvMNtNtNtCsNhz5SapXcJ_8hayabusa10detections4rule18aggregation_parserNtB4_27AggegationConditionCompiler8tokenize0Ba_
FNDA:52,_RNvMNtNtNtCsNhz5SapXcJ_8hayabusa10detections4rule18aggregation_parserNtB2_27AggegationConditionCompiler9is_cmp_op
FNDA:55,_RNvMNtNtNtCsNhz5SapXcJ_8hayabusa10detections4rule18aggregation_parserNtB2_27AggegationConditionCompiler5parse
FNDA:374,_RNvMNtNtNtCsNhz5SapXcJ_8hayabusa10detections4rule18aggregation_parserNtB2_27AggegationConditionCompiler7to_enum
FNF:21
FNH:21
DA:48,213
DA:49,213
DA:50,213
DA:52,213
DA:53,213
DA:54,213
DA:55,7
DA:56,7
DA:57,7
DA:59,206
DA:61,213
DA:63,213
DA:64,213
DA:65,213
DA:66,213
DA:67,213
DA:68,213
DA:69,213
DA:71,157
DA:72,56
DA:73,56
DA:74,56
DA:75,56
DA:76,56
DA:77,56
DA:78,56
DA:79,56
DA:81,56
DA:83,55
DA:84,213
DA:87,56
DA:88,56
DA:89,56
DA:90,56
DA:91,56
DA:92,56
DA:93,56
DA:94,430
DA:95,1399
DA:96,1399
DA:97,1399
DA:98,375
DA:100,1
DA:101,374
DA:102,374
DA:103,374
DA:104,374
DA:105,374
DA:106,374
DA:108,186
DA:109,186
DA:110,188
DA:111,188
DA:112,188
DA:113,188
DA:116,55
DA:117,56
DA:120,52
DA:121,1
DA:122,52
DA:129,52
DA:132,55
DA:133,55
DA:134,55
DA:135,55
DA:136,55
DA:138,1
DA:139,54
DA:140,54
DA:141,54
DA:142,54
DA:143,54
DA:144,54
DA:145,54
DA:146,53
DA:147,41
DA:148,41
DA:151,1
DA:154,53
DA:155,53
DA:157,0
DA:158,0
DA:159,0
DA:160,53
DA:161,53
DA:162,53
DA:163,53
DA:164,53
DA:165,53
DA:166,12
DA:167,12
DA:169,1
DA:170,1
DA:171,1
DA:172,11
DA:174,11
DA:175,11
DA:176,11
DA:178,0
DA:179,0
DA:180,0
DA:183,41
DA:187,52
DA:189,0
DA:190,0
DA:191,0
DA:192,52
DA:193,52
DA:194,52
DA:195,52
DA:196,1
DA:197,1
DA:198,1
DA:199,51
DA:200,51
DA:201,51
DA:202,51
DA:203,50
DA:204,50
DA:205,50
DA:208,0
DA:212,1
DA:215,50
DA:216,1
DA:217,49
DA:218,49
DA:219,49
DA:220,49
DA:221,49
DA:222,49
DA:223,49
DA:224,49
DA:225,49
DA:226,55
DA:229,374
DA:230,374
DA:231,55
DA:232,55
DA:233,55
DA:234,55
DA:235,55
DA:236,319
DA:237,186
DA:238,133
DA:239,15
DA:240,118
DA:241,1
DA:242,117
DA:243,1
DA:244,116
DA:245,42
DA:246,74
DA:247,1
DA:248,73
DA:249,7
DA:251,66
DA:253,374
DA:263,1
DA:264,1
DA:265,1
DA:266,1
DA:267,1
DA:268,1
DA:269,1
DA:270,1
DA:273,1
DA:274,1
DA:275,1
DA:276,1
DA:277,1
DA:279,1
DA:280,1
DA:281,1
DA:283,1
DA:284,1
DA:285,1
DA:287,1
DA:288,1
DA:289,1
DA:291,1
DA:292,1
DA:293,1
DA:294,1
DA:297,1
DA:298,1
DA:299,1
DA:300,1
DA:301,1
DA:302,1
DA:303,1
DA:305,1
DA:306,1
DA:307,1
DA:308,1
DA:309,1
DA:310,1
DA:313,1
DA:314,1
DA:315,1
DA:316,1
DA:317,1
DA:318,1
DA:319,1
DA:321,1
DA:322,1
DA:323,1
DA:324,1
DA:325,1
DA:326,1
DA:329,1
DA:330,1
DA:331,1
DA:332,1
DA:333,1
DA:334,1
DA:335,1
DA:337,1
DA:338,1
DA:339,1
DA:340,1
DA:341,1
DA:342,1
DA:345,1
DA:346,1
DA:347,1
DA:348,1
DA:349,1
DA:350,1
DA:351,1
DA:352,1
DA:353,1
DA:354,1
DA:355,1
DA:358,1
DA:359,1
DA:360,1
DA:361,1
DA:362,1
DA:363,1
DA:364,1
DA:365,1
DA:366,1
DA:367,1
DA:368,1
DA:371,1
DA:372,1
DA:373,1
DA:374,1
DA:375,1
DA:376,1
DA:377,1
DA:378,1
DA:381,1
DA:382,1
DA:383,1
DA:384,1
DA:385,1
DA:386,1
DA:387,1
DA:388,1
DA:391,1
DA:392,1
DA:393,1
DA:394,1
DA:395,1
DA:396,1
DA:397,1
DA:398,1
DA:401,1
DA:402,1
DA:403,1
DA:404,1
DA:405,1
DA:406,1
DA:407,1
DA:408,1
DA:411,1
DA:412,1
DA:413,1
DA:414,1
DA:415,1
DA:416,1
DA:417,1
DA:418,1
DA:419,1
DA:420,1
DA:421,1
DA:422,1
DA:424,5
DA:425,5
DA:426,5
DA:427,5
DA:428,5
DA:429,5
DA:430,5
DA:432,5
DA:433,5
DA:434,5
DA:435,5
DA:436,5
DA:437,5
BRF:0
BRH:0
LF:303
LH:293
end_of_record
SF:D:\opensource\hayabusa\src\detections\rule\condition_parser.rs
FN:44,_RNvMNtNtNtCs5DPfXlAluY4_8hayabusa10detections4rule16condition_parserNtB2_14ConditionToken19into_selection_node
FN:94,_RNvMNtNtNtCs5DPfXlAluY4_8hayabusa10detections4rule16condition_parserNtB2_14ConditionToken18to_condition_token
FN:118,_RNvMs_NtNtNtCs5DPfXlAluY4_8hayabusa10detections4rule16condition_parserNtB4_17ConditionCompiler3new
FN:122,_RNvMs_NtNtNtCs5DPfXlAluY4_8hayabusa10detections4rule16condition_parserNtB4_17ConditionCompiler17compile_condition
FN:147,_RNvMs_NtNtNtCs5DPfXlAluY4_8hayabusa10detections4rule16condition_parserNtB4_17ConditionCompiler17convert_condition
FN:162,_RNCNvMs_NtNtNtCs5DPfXlAluY4_8hayabusa10detections4rule16condition_parserNtB6_17ConditionCompiler17convert_condition0Bc_
FN:171,_RNvMs_NtNtNtCs5DPfXlAluY4_8hayabusa10detections4rule16condition_parserNtB4_17ConditionCompiler22compile_condition_body
FN:184,_RNvMs_NtNtNtCs5DPfXlAluY4_8hayabusa10detections4rule16condition_parserNtB4_17ConditionCompiler5parse
FN:193,_RNvMs_NtNtNtCs5DPfXlAluY4_8hayabusa10detections4rule16condition_parserNtB4_17ConditionCompiler8tokenize
FN:198,_RNCNvMs_NtNtNtCs5DPfXlAluY4_8hayabusa10detections4rule16condition_parserNtB6_17ConditionCompiler8tokenize0Bc_
FN:222,_RNvMs_NtNtNtCs5DPfXlAluY4_8hayabusa10detections4rule16condition_parserNtB4_17ConditionCompiler17parse_parenthesis
FN:265,_RNCNvMs_NtNtNtCs5DPfXlAluY4_8hayabusa10detections4rule16condition_parserNtB6_17ConditionCompiler17parse_parenthesis0Bc_
FN:274,_RNvMs_NtNtNtCs5DPfXlAluY4_8hayabusa10detections4rule16condition_parserNtB4_17ConditionCompiler21parse_and_or_operator
FN:334,_RNvMs_NtNtNtCs5DPfXlAluY4_8hayabusa10detections4rule16condition_parserNtB4_17ConditionCompiler23parse_operand_container
FN:381,_RNvMs_NtNtNtCs5DPfXlAluY4_8hayabusa10detections4rule16condition_parserNtB4_17ConditionCompiler10is_logical
FN:386,_RNvMs_NtNtNtCs5DPfXlAluY4_8hayabusa10detections4rule16condition_parserNtB4_17ConditionCompiler20to_operand_container
FN:44,_RNvMNtNtNtCsNhz5SapXcJ_8hayabusa10detections4rule16condition_parserNtB2_14ConditionToken19into_selection_node
FN:94,_RNvMNtNtNtCsNhz5SapXcJ_8hayabusa10detections4rule16condition_parserNtB2_14ConditionToken18to_condition_token
FN:118,_RNvMs_NtNtNtCsNhz5SapXcJ_8hayabusa10detections4rule16condition_parserNtB4_17ConditionCompiler3new
FN:122,_RNvMs_NtNtNtCsNhz5SapXcJ_8hayabusa10detections4rule16condition_parserNtB4_17ConditionCompiler17compile_condition
FN:147,_RNvMs_NtNtNtCsNhz5SapXcJ_8hayabusa10detections4rule16condition_parserNtB4_17ConditionCompiler17convert_condition
FN:162,_RNCNvMs_NtNtNtCsNhz5SapXcJ_8hayabusa10detections4rule16condition_parserNtB6_17ConditionCompiler17convert_condition0Bc_
FN:171,_RNvMs_NtNtNtCsNhz5SapXcJ_8hayabusa10detections4rule16condition_parserNtB4_17ConditionCompiler22compile_condition_body
FN:184,_RNvMs_NtNtNtCsNhz5SapXcJ_8hayabusa10detections4rule16condition_parserNtB4_17ConditionCompiler5parse
FN:193,_RNvMs_NtNtNtCsNhz5SapXcJ_8hayabusa10detections4rule16condition_parserNtB4_17ConditionCompiler8tokenize
FN:198,_RNCNvMs_NtNtNtCsNhz5SapXcJ_8hayabusa10detections4rule16condition_parserNtB6_17ConditionCompiler8tokenize0Bc_
FN:222,_RNvMs_NtNtNtCsNhz5SapXcJ_8hayabusa10detections4rule16condition_parserNtB4_17ConditionCompiler17parse_parenthesis
FN:265,_RNCNvMs_NtNtNtCsNhz5SapXcJ_8hayabusa10detections4rule16condition_parserNtB6_17ConditionCompiler17parse_parenthesis0Bc_
FN:274,_RNvMs_NtNtNtCsNhz5SapXcJ_8hayabusa10detections4rule16condition_parserNtB4_17ConditionCompiler21parse_and_or_operator
FN:334,_RNvMs_NtNtNtCsNhz5SapXcJ_8hayabusa10detections4rule16condition_parserNtB4_17ConditionCompiler23parse_operand_container
FN:381,_RNvMs_NtNtNtCsNhz5SapXcJ_8hayabusa10detections4rule16condition_parserNtB4_17ConditionCompiler10is_logical
FN:386,_RNvMs_NtNtNtCsNhz5SapXcJ_8hayabusa10detections4rule16condition_parserNtB4_17ConditionCompiler20to_operand_container
FN:450,_RNvNtNtNtNtCsNhz5SapXcJ_8hayabusa10detections4rule16condition_parser5tests26create_dummy_stored_static
FN:521,_RNvNtNtNtNtCsNhz5SapXcJ_8hayabusa10detections4rule16condition_parser5tests22check_rule_parse_error
FN:528,_RNvNtNtNtNtCsNhz5SapXcJ_8hayabusa10detections4rule16condition_parser5tests12check_select
FN:555,_RNvNtNtNtNtCsNhz5SapXcJ_8hayabusa10detections4rule16condition_parser5testss_17test_no_condition
FN:588,_RNvNtNtNtNtCsNhz5SapXcJ_8hayabusa10detections4rule16condition_parser5testss_27test_no_condition_notdetect
FN:622,_RNvNtNtNtNtCsNhz5SapXcJ_8hayabusa10detections4rule16condition_parser5testss_25test_condition_and_detect
FN:641,_RNvNtNtNtNtCsNhz5SapXcJ_8hayabusa10detections4rule16condition_parser5testss_28test_condition_and_notdetect
FN:661,_RNvNtNtNtNtCsNhz5SapXcJ_8hayabusa10detections4rule16condition_parser5testss_29test_condition_and_notdetect2
FN:681,_RNvNtNtNtNtCsNhz5SapXcJ_8hayabusa10detections4rule16condition_parser5testss_26test_condition_and_detect3
FN:701,_RNvNtNtNtNtCsNhz5SapXcJ_8hayabusa10detections4rule16condition_parser5testss_29test_condition_and_notdetect4
FN:721,_RNvNtNtNtNtCsNhz5SapXcJ_8hayabusa10detections4rule16condition_parser5testss_29test_condition_and_notdetect5
FN:741,_RNvNtNtNtNtCsNhz5SapXcJ_8hayabusa10detections4rule16condition_parser5testss_24test_condition_or_detect
FN:760,_RNvNtNtNtNtCsNhz5SapXcJ_8hayabusa10detections4rule16condition_parser5testss_25test_condition_or_detect2
FN:779,_RNvNtNtNtNtCsNhz5SapXcJ_8hayabusa10detections4rule16condition_parser5testss_25test_condition_or_detect3
FN:798,_RNvNtNtNtNtCsNhz5SapXcJ_8hayabusa10detections4rule16condition_parser5testss_25test_condition_or_detect4
FN:817,_RNvNtNtNtNtCsNhz5SapXcJ_8hayabusa10detections4rule16condition_parser5testss_25test_condition_or_detect5
FN:836,_RNvNtNtNtNtCsNhz5SapXcJ_8hayabusa10detections4rule16condition_parser5testss_25test_condition_or_detect6
FN:855,_RNvNtNtNtNtCsNhz5SapXcJ_8hayabusa10detections4rule16condition_parser5testss_25test_condition_or_detect7
FN:874,_RNvNtNtNtNtCsNhz5SapXcJ_8hayabusa10detections4rule16condition_parser5testss_27test_condition_or_notdetect
FN:893,_RNvNtNtNtNtCsNhz5SapXcJ_8hayabusa10detections4rule16condition_parser5testss_25test_condition_not_detect
FN:908,_RNvNtNtNtNtCsNhz5SapXcJ_8hayabusa10detections4rule16condition_parser5testss_28test_condition_not_notdetect
FN:923,_RNvNtNtNtNtCsNhz5SapXcJ_8hayabusa10detections4rule16condition_parser5testss_33test_condition_parenthesis_detect
FN:942,_RNvNtNtNtNtCsNhz5SapXcJ_8hayabusa10detections4rule16condition_parser5testss_37test_condition_parenthesis_not_detect
FN:961,_RNvNtNtNtNtCsNhz5SapXcJ_8hayabusa10detections4rule16condition_parser5testss_38test_condition_many_parenthesis_detect
FN:980,_RNvNtNtNtNtCsNhz5SapXcJ_8hayabusa10detections4rule16condition_parser5testss_41test_condition_manyparenthesis_not_detect
FN:999,_RNvNtNtNtNtCsNhz5SapXcJ_8hayabusa10detections4rule16condition_parser5testss_36test_condition_notparenthesis_detect
FN:1018,_RNvNtNtNtNtCsNhz5SapXcJ_8hayabusa10detections4rule16condition_parser5testss_39test_condition_notparenthesis_notdetect
FN:1037,_RNvNtNtNtNtCsNhz5SapXcJ_8hayabusa10detections4rule16condition_parser5testss_38test_condition_manyparenthesis_detect2
FN:1056,_RNvNtNtNtNtCsNhz5SapXcJ_8hayabusa10detections4rule16condition_parser5testss_41test_condition_manyparenthesis_notdetect2
FN:1075,_RNvNtNtNtNtCsNhz5SapXcJ_8hayabusa10detections4rule16condition_parser5testss_38test_condition_manyparenthesis_detect3
FN:1096,_RNvNtNtNtNtCsNhz5SapXcJ_8hayabusa10detections4rule16condition_parser5testss_41test_condition_manyparenthesis_notdetect3
FN:1117,_RNvNtNtNtNtCsNhz5SapXcJ_8hayabusa10detections4rule16condition_parser5testss_38test_condition_manyparenthesis_detect4
FN:1138,_RNvNtNtNtNtCsNhz5SapXcJ_8hayabusa10detections4rule16condition_parser5testss_41test_condition_manyparenthesis_notdetect4
FN:1159,_RNvNtNtNtNtCsNhz5SapXcJ_8hayabusa10detections4rule16condition_parser5testss_33test_rule_parseerror_no_condition
FN:1184,_RNvNtNtNtNtCsNhz5SapXcJ_8hayabusa10detections4rule16condition_parser5testss_45test_condition_err_condition_forbit_character
FN:1208,_RNvNtNtNtNtCsNhz5SapXcJ_8hayabusa10detections4rule16condition_parser5testss_39test_condition_err_leftparenthesis_over
FN:1231,_RNvNtNtNtNtCsNhz5SapXcJ_8hayabusa10detections4rule16condition_parser5testss_40test_condition_err_rightparenthesis_over
FN:1254,_RNvNtNtNtNtCsNhz5SapXcJ_8hayabusa10detections4rule16condition_parser5testss_46test_condition_err_parenthesis_direction_wrong
FN:1277,_RNvNtNtNtNtCsNhz5SapXcJ_8hayabusa10detections4rule16condition_parser5testss_29test_condition_err_no_logical
FN:1295,_RNvNtNtNtNtCsNhz5SapXcJ_8hayabusa10detections4rule16condition_parser5testss_32test_condition_err_first_logical
FN:1319,_RNvNtNtNtNtCsNhz5SapXcJ_8hayabusa10detections4rule16condition_parser5testss_31test_condition_err_last_logical
FN:1343,_RNvNtNtNtNtCsNhz5SapXcJ_8hayabusa10detections4rule16condition_parser5testss_38test_condition_err_consecutive_logical
FN:1361,_RNvNtNtNtNtCsNhz5SapXcJ_8hayabusa10detections4rule16condition_parser5testss_27test_condition_err_only_not
FN:1382,_RNvNtNtNtNtCsNhz5SapXcJ_8hayabusa10detections4rule16condition_parser5testss_26test_condition_err_not_not
FN:1403,_RNvNtNtNtNtCsNhz5SapXcJ_8hayabusa10detections4rule16condition_parser5testss_39test_convert_condition_all_of_selection
FN:1422,_RNvNtNtNtNtCsNhz5SapXcJ_8hayabusa10detections4rule16condition_parser5testss_48test_convert_condition_multiple_all_of_selection
FN:1437,_RNvNtNtNtNtCsNhz5SapXcJ_8hayabusa10detections4rule16condition_parser5testss_39test_convert_condition_one_of_selection
FN:1456,_RNvNtNtNtNtCsNhz5SapXcJ_8hayabusa10detections4rule16condition_parser5testss_48test_convert_condition_multiple_one_of_selection
FN:1470,_RNvNtNtNtNtCsNhz5SapXcJ_8hayabusa10detections4rule16condition_parser5testss_48test_convert_condition_convert_complex_condition
FN:1486,_RNvNtNtNtNtCsNhz5SapXcJ_8hayabusa10detections4rule16condition_parser5testss_34test_convert_condition_not_convert
FN:1494,_RNvNtNtNtNtCsNhz5SapXcJ_8hayabusa10detections4rule16condition_parser5testss_33test_condition_1_of_select_detect
FN:1513,_RNvNtNtNtNtCsNhz5SapXcJ_8hayabusa10detections4rule16condition_parser5testss_37test_condition_1_of_select_not_detect
FN:1532,_RNvNtNtNtNtCsNhz5SapXcJ_8hayabusa10detections4rule16condition_parser5testss_35test_condition_all_of_select_detect
FN:1551,_RNvNtNtNtNtCsNhz5SapXcJ_8hayabusa10detections4rule16condition_parser5testss_39test_condition_all_of_select_not_detect
FN:1570,_RNvNtNtNtNtCsNhz5SapXcJ_8hayabusa10detections4rule16condition_parser5testss_35test_condition_complex_of_selection
FN:1571,_RNCNvNtNtNtNtCsNhz5SapXcJ_8hayabusa10detections4rule16condition_parser5testss_35test_condition_complex_of_selection0Bb_
FNDA:5,_RNvMNtNtNtCs5DPfXlAluY4_8hayabusa10detections4rule16condition_parserNtB2_14ConditionToken19into_selection_node
FNDA:5,_RNvMNtNtNtCs5DPfXlAluY4_8hayabusa10detections4rule16condition_parserNtB2_14ConditionToken18to_condition_token
FNDA:5,_RNvMs_NtNtNtCs5DPfXlAluY4_8hayabusa10detections4rule16condition_parserNtB4_17ConditionCompiler3new
FNDA:5,_RNvMs_NtNtNtCs5DPfXlAluY4_8hayabusa10detections4rule16condition_parserNtB4_17ConditionCompiler17compile_condition
FNDA:5,_RNvMs_NtNtNtCs5DPfXlAluY4_8hayabusa10detections4rule16condition_parserNtB4_17ConditionCompiler17convert_condition
FNDA:0,_RNCNvMs_NtNtNtCs5DPfXlAluY4_8hayabusa10detections4rule16condition_parserNtB6_17ConditionCompiler17convert_condition0Bc_
FNDA:5,_RNvMs_NtNtNtCs5DPfXlAluY4_8hayabusa10detections4rule16condition_parserNtB4_17ConditionCompiler22compile_condition_body
FNDA:5,_RNvMs_NtNtNtCs5DPfXlAluY4_8hayabusa10detections4rule16condition_parserNtB4_17ConditionCompiler5parse
FNDA:5,_RNvMs_NtNtNtCs5DPfXlAluY4_8hayabusa10detections4rule16condition_parserNtB4_17ConditionCompiler8tokenize
FNDA:20,_RNCNvMs_NtNtNtCs5DPfXlAluY4_8hayabusa10detections4rule16condition_parserNtB6_17ConditionCompiler8tokenize0Bc_
FNDA:5,_RNvMs_NtNtNtCs5DPfXlAluY4_8hayabusa10detections4rule16condition_parserNtB4_17ConditionCompiler17parse_parenthesis
FNDA:5,_RNCNvMs_NtNtNtCs5DPfXlAluY4_8hayabusa10detections4rule16condition_parserNtB6_17ConditionCompiler17parse_parenthesis0Bc_
FNDA:5,_RNvMs_NtNtNtCs5DPfXlAluY4_8hayabusa10detections4rule16condition_parserNtB4_17ConditionCompiler21parse_and_or_operator
FNDA:5,_RNvMs_NtNtNtCs5DPfXlAluY4_8hayabusa10detections4rule16condition_parserNtB4_17ConditionCompiler23parse_operand_container
FNDA:20,_RNvMs_NtNtNtCs5DPfXlAluY4_8hayabusa10detections4rule16condition_parserNtB4_17ConditionCompiler10is_logical
FNDA:5,_RNvMs_NtNtNtCs5DPfXlAluY4_8hayabusa10detections4rule16condition_parserNtB4_17ConditionCompiler20to_operand_container
FNDA:445,_RNvMNtNtNtCsNhz5SapXcJ_8hayabusa10detections4rule16condition_parserNtB2_14ConditionToken19into_selection_node
FNDA:894,_RNvMNtNtNtCsNhz5SapXcJ_8hayabusa10detections4rule16condition_parserNtB2_14ConditionToken18to_condition_token
FNDA:192,_RNvMs_NtNtNtCsNhz5SapXcJ_8hayabusa10detections4rule16condition_parserNtB4_17ConditionCompiler3new
FNDA:192,_RNvMs_NtNtNtCsNhz5SapXcJ_8hayabusa10detections4rule16condition_parserNtB4_17ConditionCompiler17compile_condition
FNDA:200,_RNvMs_NtNtNtCsNhz5SapXcJ_8hayabusa10detections4rule16condition_parserNtB4_17ConditionCompiler17convert_condition
FNDA:120,_RNCNvMs_NtNtNtCsNhz5SapXcJ_8hayabusa10detections4rule16condition_parserNtB6_17ConditionCompiler17convert_condition0Bc_
FNDA:192,_RNvMs_NtNtNtCsNhz5SapXcJ_8hayabusa10detections4rule16condition_parserNtB4_17ConditionCompiler22compile_condition_body
FNDA:246,_RNvMs_NtNtNtCsNhz5SapXcJ_8hayabusa10detections4rule16condition_parserNtB4_17ConditionCompiler5parse
FNDA:192,_RNvMs_NtNtNtCsNhz5SapXcJ_8hayabusa10detections4rule16condition_parserNtB4_17ConditionCompiler8tokenize
FNDA:2966,_RNCNvMs_NtNtNtCsNhz5SapXcJ_8hayabusa10detections4rule16condition_parserNtB6_17ConditionCompiler8tokenize0Bc_
FNDA:246,_RNvMs_NtNtNtCsNhz5SapXcJ_8hayabusa10detections4rule16condition_parserNtB4_17ConditionCompiler17parse_parenthesis
FNDA:497,_RNCNvMs_NtNtNtCsNhz5SapXcJ_8hayabusa10detections4rule16condition_parserNtB6_17ConditionCompiler17parse_parenthesis0Bc_
FNDA:241,_RNvMs_NtNtNtCsNhz5SapXcJ_8hayabusa10detections4rule16condition_parserNtB4_17ConditionCompiler21parse_and_or_operator
FNDA:359,_RNvMs_NtNtNtCsNhz5SapXcJ_8hayabusa10detections4rule16condition_parserNtB4_17ConditionCompiler23parse_operand_container
FNDA:1436,_RNvMs_NtNtNtCsNhz5SapXcJ_8hayabusa10detections4rule16condition_parserNtB4_17ConditionCompiler10is_logical
FNDA:241,_RNvMs_NtNtNtCsNhz5SapXcJ_8hayabusa10detections4rule16condition_parserNtB4_17ConditionCompiler20to_operand_container
FNDA:51,_RNvNtNtNtNtCsNhz5SapXcJ_8hayabusa10detections4rule16condition_parser5tests26create_dummy_stored_static
FNDA:10,_RNvNtNtNtNtCsNhz5SapXcJ_8hayabusa10detections4rule16condition_parser5tests22check_rule_parse_error
FNDA:40,_RNvNtNtNtNtCsNhz5SapXcJ_8hayabusa10detections4rule16condition_parser5tests12check_select
FNDA:1,_RNvNtNtNtNtCsNhz5SapXcJ_8hayabusa10detections4rule16condition_parser5testss_17test_no_condition
FNDA:1,_RNvNtNtNtNtCsNhz5SapXcJ_8hayabusa10detections4rule16condition_parser5testss_27test_no_condition_notdetect
FNDA:1,_RNvNtNtNtNtCsNhz5SapXcJ_8hayabusa10detections4rule16condition_parser5testss_25test_condition_and_detect
FNDA:1,_RNvNtNtNtNtCsNhz5SapXcJ_8hayabusa10detections4rule16condition_parser5testss_28test_condition_and_notdetect
FNDA:1,_RNvNtNtNtNtCsNhz5SapXcJ_8hayabusa10detections4rule16condition_parser5testss_29test_condition_and_notdetect2
FNDA:1,_RNvNtNtNtNtCsNhz5SapXcJ_8hayabusa10detections4rule16condition_parser5testss_26test_condition_and_detect3
FNDA:1,_RNvNtNtNtNtCsNhz5SapXcJ_8hayabusa10detections4rule16condition_parser5testss_29test_condition_and_notdetect4
FNDA:1,_RNvNtNtNtNtCsNhz5SapXcJ_8hayabusa10detections4rule16condition_parser5testss_29test_condition_and_notdetect5
FNDA:1,_RNvNtNtNtNtCsNhz5SapXcJ_8hayabusa10detections4rule16condition_parser5testss_24test_condition_or_detect
FNDA:1,_RNvNtNtNtNtCsNhz5SapXcJ_8hayabusa10detections4rule16condition_parser5testss_25test_condition_or_detect2
FNDA:1,_RNvNtNtNtNtCsNhz5SapXcJ_8hayabusa10detections4rule16condition_parser5testss_25test_condition_or_detect3
FNDA:1,_RNvNtNtNtNtCsNhz5SapXcJ_8hayabusa10detections4rule16condition_parser5testss_25test_condition_or_detect4
FNDA:1,_RNvNtNtNtNtCsNhz5SapXcJ_8hayabusa10detections4rule16condition_parser5testss_25test_condition_or_detect5
FNDA:1,_RNvNtNtNtNtCsNhz5SapXcJ_8hayabusa10detections4rule16condition_parser5testss_25test_condition_or_detect6
FNDA:1,_RNvNtNtNtNtCsNhz5SapXcJ_8hayabusa10detections4rule16condition_parser5testss_25test_condition_or_detect7
FNDA:1,_RNvNtNtNtNtCsNhz5SapXcJ_8hayabusa10detections4rule16condition_parser5testss_27test_condition_or_notdetect
FNDA:1,_RNvNtNtNtNtCsNhz5SapXcJ_8hayabusa10detections4rule16condition_parser5testss_25test_condition_not_detect
FNDA:1,_RNvNtNtNtNtCsNhz5SapXcJ_8hayabusa10detections4rule16condition_parser5testss_28test_condition_not_notdetect
FNDA:1,_RNvNtNtNtNtCsNhz5SapXcJ_8hayabusa10detections4rule16condition_parser5testss_33test_condition_parenthesis_detect
FNDA:1,_RNvNtNtNtNtCsNhz5SapXcJ_8hayabusa10detections4rule16condition_parser5testss_37test_condition_parenthesis_not_detect
FNDA:1,_RNvNtNtNtNtCsNhz5SapXcJ_8hayabusa10detections4rule16condition_parser5testss_38test_condition_many_parenthesis_detect
FNDA:1,_RNvNtNtNtNtCsNhz5SapXcJ_8hayabusa10detections4rule16condition_parser5testss_41test_condition_manyparenthesis_not_detect
FNDA:1,_RNvNtNtNtNtCsNhz5SapXcJ_8hayabusa10detections4rule16condition_parser5testss_36test_condition_notparenthesis_detect
FNDA:1,_RNvNtNtNtNtCsNhz5SapXcJ_8hayabusa10detections4rule16condition_parser5testss_39test_condition_notparenthesis_notdetect
FNDA:1,_RNvNtNtNtNtCsNhz5SapXcJ_8hayabusa10detections4rule16condition_parser5testss_38test_condition_manyparenthesis_detect2
FNDA:1,_RNvNtNtNtNtCsNhz5SapXcJ_8hayabusa10detections4rule16condition_parser5testss_41test_condition_manyparenthesis_notdetect2
FNDA:1,_RNvNtNtNtNtCsNhz5SapXcJ_8hayabusa10detections4rule16condition_parser5testss_38test_condition_manyparenthesis_detect3
FNDA:1,_RNvNtNtNtNtCsNhz5SapXcJ_8hayabusa10detections4rule16condition_parser5testss_41test_condition_manyparenthesis_notdetect3
FNDA:1,_RNvNtNtNtNtCsNhz5SapXcJ_8hayabusa10detections4rule16condition_parser5testss_38test_condition_manyparenthesis_detect4
FNDA:1,_RNvNtNtNtNtCsNhz5SapXcJ_8hayabusa10detections4rule16condition_parser5testss_41test_condition_manyparenthesis_notdetect4
FNDA:1,_RNvNtNtNtNtCsNhz5SapXcJ_8hayabusa10detections4rule16condition_parser5testss_33test_rule_parseerror_no_condition
FNDA:1,_RNvNtNtNtNtCsNhz5SapXcJ_8hayabusa10detections4rule16condition_parser5testss_45test_condition_err_condition_forbit_character
FNDA:1,_RNvNtNtNtNtCsNhz5SapXcJ_8hayabusa10detections4rule16condition_parser5testss_39test_condition_err_leftparenthesis_over
FNDA:1,_RNvNtNtNtNtCsNhz5SapXcJ_8hayabusa10detections4rule16condition_parser5testss_40test_condition_err_rightparenthesis_over
FNDA:1,_RNvNtNtNtNtCsNhz5SapXcJ_8hayabusa10detections4rule16condition_parser5testss_46test_condition_err_parenthesis_direction_wrong
FNDA:1,_RNvNtNtNtNtCsNhz5SapXcJ_8hayabusa10detections4rule16condition_parser5testss_29test_condition_err_no_logical
FNDA:1,_RNvNtNtNtNtCsNhz5SapXcJ_8hayabusa10detections4rule16condition_parser5testss_32test_condition_err_first_logical
FNDA:1,_RNvNtNtNtNtCsNhz5SapXcJ_8hayabusa10detections4rule16condition_parser5testss_31test_condition_err_last_logical
FNDA:1,_RNvNtNtNtNtCsNhz5SapXcJ_8hayabusa10detections4rule16condition_parser5testss_38test_condition_err_consecutive_logical
FNDA:1,_RNvNtNtNtNtCsNhz5SapXcJ_8hayabusa10detections4rule16condition_parser5testss_27test_condition_err_only_not
FNDA:1,_RNvNtNtNtNtCsNhz5SapXcJ_8hayabusa10detections4rule16condition_parser5testss_26test_condition_err_not_not
FNDA:1,_RNvNtNtNtNtCsNhz5SapXcJ_8hayabusa10detections4rule16condition_parser5testss_39test_convert_condition_all_of_selection
FNDA:1,_RNvNtNtNtNtCsNhz5SapXcJ_8hayabusa10detections4rule16condition_parser5testss_48test_convert_condition_multiple_all_of_selection
FNDA:1,_RNvNtNtNtNtCsNhz5SapXcJ_8hayabusa10detections4rule16condition_parser5testss_39test_convert_condition_one_of_selection
FNDA:1,_RNvNtNtNtNtCsNhz5SapXcJ_8hayabusa10detections4rule16condition_parser5testss_48test_convert_condition_multiple_one_of_selection
FNDA:1,_RNvNtNtNtNtCsNhz5SapXcJ_8hayabusa10detections4rule16condition_parser5testss_48test_convert_condition_convert_complex_condition
FNDA:1,_RNvNtNtNtNtCsNhz5SapXcJ_8hayabusa10detections4rule16condition_parser5testss_34test_convert_condition_not_convert
FNDA:1,_RNvNtNtNtNtCsNhz5SapXcJ_8hayabusa10detections4rule16condition_parser5testss_33test_condition_1_of_select_detect
FNDA:1,_RNvNtNtNtNtCsNhz5SapXcJ_8hayabusa10detections4rule16condition_parser5testss_37test_condition_1_of_select_not_detect
FNDA:1,_RNvNtNtNtNtCsNhz5SapXcJ_8hayabusa10detections4rule16condition_parser5testss_35test_condition_all_of_select_detect
FNDA:1,_RNvNtNtNtNtCsNhz5SapXcJ_8hayabusa10detections4rule16condition_parser5testss_39test_condition_all_of_select_not_detect
FNDA:1,_RNvNtNtNtNtCsNhz5SapXcJ_8hayabusa10detections4rule16condition_parser5testss_35test_condition_complex_of_selection
FNDA:6,_RNCNvNtNtNtNtCsNhz5SapXcJ_8hayabusa10detections4rule16condition_parser5testss_35test_condition_complex_of_selection0Bb_
FNF:72
FNH:72
DA:44,450
DA:45,450
DA:46,450
DA:47,450
DA:48,450
DA:49,302
DA:50,302
DA:51,302
DA:52,302
DA:53,302
DA:54,302
DA:55,302
DA:57,0
DA:58,0
DA:61,52
DA:62,52
DA:64,60
DA:65,60
DA:66,200
DA:67,140
DA:68,140
DA:70,60
DA:72,25
DA:73,25
DA:74,85
DA:75,60
DA:76,60
DA:78,25
DA:80,11
DA:81,11
DA:82,11
DA:83,11
DA:85,0
DA:86,0
DA:87,0
DA:88,0
DA:89,0
DA:90,0
DA:92,450
DA:94,899
DA:95,899
DA:96,58
DA:97,841
DA:98,58
DA:99,783
DA:100,324
DA:101,459
DA:102,14
DA:103,445
DA:104,84
DA:105,361
DA:106,42
DA:108,319
DA:110,899
DA:118,197
DA:119,197
DA:120,197
DA:122,197
DA:123,197
DA:124,197
DA:125,197
DA:126,197
DA:127,197
DA:128,197
DA:129,197
DA:130,197
DA:131,197
DA:132,41
DA:133,41
DA:135,156
DA:138,197
DA:139,197
DA:140,10
DA:142,187
DA:144,197
DA:147,205
DA:148,205
DA:149,205
DA:150,26
DA:151,26
DA:152,13
DA:154,13
DA:156,26
DA:157,26
DA:158,26
DA:159,26
DA:160,26
DA:161,26
DA:162,120
DA:163,26
DA:164,26
DA:165,26
DA:167,205
DA:168,205
DA:171,197
DA:172,197
DA:173,197
DA:174,197
DA:175,197
DA:176,197
DA:178,196
DA:180,187
DA:181,197
DA:184,251
DA:186,251
DA:189,246
DA:190,251
DA:193,197
DA:194,197
DA:195,197
DA:196,197
DA:197,1096
DA:198,2986
DA:199,2986
DA:200,2986
DA:201,900
DA:203,1
DA:204,899
DA:205,899
DA:206,899
DA:207,899
DA:208,899
DA:210,324
DA:211,324
DA:212,575
DA:213,575
DA:214,575
DA:215,575
DA:218,196
DA:219,197
DA:222,251
DA:223,251
DA:224,251
DA:225,251
DA:226,251
DA:227,763
DA:229,516
DA:230,516
DA:231,459
DA:232,459
DA:233,57
DA:234,57
DA:235,57
DA:236,57
DA:237,57
DA:238,57
DA:239,318
DA:240,318
DA:241,29
DA:242,289
DA:243,84
DA:244,205
DA:245,318
DA:246,55
DA:247,263
DA:248,263
DA:251,57
DA:252,2
DA:253,55
DA:256,55
DA:257,53
DA:258,53
DA:259,53
DA:263,247
DA:264,247
DA:265,502
DA:266,247
DA:267,1
DA:268,246
DA:269,246
DA:270,246
DA:271,251
DA:274,246
DA:275,246
DA:277,0
DA:278,246
DA:281,246
DA:284,243
DA:285,2
DA:286,241
DA:287,241
DA:288,241
DA:289,241
DA:290,241
DA:291,473
DA:292,473
DA:294,1
DA:295,1
DA:296,1
DA:297,472
DA:298,472
DA:299,472
DA:300,356
DA:301,356
DA:302,356
DA:303,116
DA:304,116
DA:308,240
DA:309,240
DA:310,240
DA:311,240
DA:312,355
DA:313,355
DA:314,275
DA:315,215
DA:316,215
DA:317,60
DA:318,60
DA:319,60
DA:320,275
DA:321,80
DA:322,80
DA:323,80
DA:326,240
DA:327,215
DA:328,25
DA:329,25
DA:330,25
DA:331,246
DA:334,364
DA:335,364
DA:336,364
DA:337,364
DA:338,364
DA:339,364
DA:340,0
DA:341,0
DA:342,0
DA:343,0
DA:344,364
DA:345,364
DA:346,364
DA:347,364
DA:348,0
DA:349,364
DA:350,364
DA:351,364
DA:352,364
DA:353,351
DA:354,351
DA:355,1
DA:356,350
DA:357,350
DA:358,350
DA:359,13
DA:360,13
DA:361,13
DA:362,13
DA:363,13
DA:364,13
DA:365,13
DA:366,12
DA:367,1
DA:369,11
DA:370,11
DA:373,1
DA:374,1
DA:375,1
DA:376,1
DA:378,364
DA:381,1456
DA:382,1456
DA:383,1456
DA:386,246
DA:387,246
DA:388,246
DA:389,246
DA:390,246
DA:391,246
DA:392,498
DA:393,498
DA:395,121
DA:396,2
DA:397,2
DA:398,119
DA:399,119
DA:400,119
DA:401,119
DA:402,119
DA:403,119
DA:404,119
DA:405,119
DA:406,377
DA:407,377
DA:408,377
DA:410,246
DA:411,245
DA:412,245
DA:413,245
DA:414,1
DA:416,243
DA:417,246
DA:450,51
DA:451,51
DA:452,51
DA:453,51
DA:454,51
DA:455,51
DA:456,51
DA:457,51
DA:458,51
DA:459,51
DA:460,51
DA:461,51
DA:462,51
DA:463,51
DA:464,51
DA:465,51
DA:466,51
DA:467,51
DA:468,51
DA:469,51
DA:470,51
DA:471,51
DA:472,51
DA:473,51
DA:474,51
DA:475,51
DA:476,51
DA:477,51
DA:478,51
DA:479,51
DA:480,51
DA:481,51
DA:482,51
DA:483,51
DA:484,51
DA:485,51
DA:486,51
DA:487,51
DA:488,51
DA:489,51
DA:490,51
DA:491,51
DA:492,51
DA:493,51
DA:494,51
DA:495,51
DA:496,51
DA:497,51
DA:498,51
DA:499,51
DA:500,51
DA:501,51
DA:502,51
DA:503,51
DA:504,51
DA:505,51
DA:506,51
DA:507,51
DA:508,51
DA:509,51
DA:510,51
DA:511,51
DA:512,51
DA:513,51
DA:514,51
DA:515,51
DA:516,51
DA:517,51
DA:518,51
DA:519,51
DA:521,10
DA:522,10
DA:523,10
DA:524,10
DA:525,10
DA:526,10
DA:528,40
DA:529,40
DA:530,40
DA:531,40
DA:532,40
DA:533,40
DA:534,40
DA:535,40
DA:536,40
DA:537,40
DA:538,40
DA:539,40
DA:540,40
DA:541,40
DA:542,40
DA:543,40
DA:544,40
DA:545,40
DA:546,40
DA:548,0
DA:549,0
DA:552,40
DA:555,1
DA:556,1
DA:557,1
DA:558,1
DA:559,1
DA:560,1
DA:561,1
DA:562,1
DA:563,1
DA:564,1
DA:565,1
DA:566,1
DA:567,1
DA:568,1
DA:569,1
DA:570,1
DA:571,1
DA:572,1
DA:573,1
DA:574,1
DA:575,1
DA:576,1
DA:577,1
DA:578,1
DA:579,1
DA:580,1
DA:581,1
DA:582,1
DA:583,1
DA:584,1
DA:585,1
DA:588,1
DA:589,1
DA:590,1
DA:591,1
DA:592,1
DA:593,1
DA:594,1
DA:595,1
DA:596,1
DA:597,1
DA:598,1
DA:599,1
DA:600,1
DA:601,1
DA:602,1
DA:603,1
DA:604,1
DA:605,1
DA:606,1
DA:607,1
DA:608,1
DA:609,1
DA:610,1
DA:611,1
DA:612,1
DA:613,1
DA:614,1
DA:615,1
DA:616,1
DA:617,1
DA:618,1
DA:619,1
DA:622,1
DA:623,1
DA:624,1
DA:625,1
DA:626,1
DA:627,1
DA:628,1
DA:629,1
DA:630,1
DA:631,1
DA:632,1
DA:633,1
DA:634,1
DA:635,1
DA:636,1
DA:637,1
DA:638,1
DA:641,1
DA:642,1
DA:643,1
DA:644,1
DA:645,1
DA:646,1
DA:647,1
DA:648,1
DA:649,1
DA:650,1
DA:651,1
DA:652,1
DA:653,1
DA:654,1
DA:655,1
DA:656,1
DA:657,1
DA:658,1
DA:661,1
DA:662,1
DA:663,1
DA:664,1
DA:665,1
DA:666,1
DA:667,1
DA:668,1
DA:669,1
DA:670,1
DA:671,1
DA:672,1
DA:673,1
DA:674,1
DA:675,1
DA:676,1
DA:677,1
DA:678,1
DA:681,1
DA:682,1
DA:683,1
DA:684,1
DA:685,1
DA:686,1
DA:687,1
DA:688,1
DA:689,1
DA:690,1
DA:691,1
DA:692,1
DA:693,1
DA:694,1
DA:695,1
DA:696,1
DA:697,1
DA:698,1
DA:701,1
DA:702,1
DA:703,1
DA:704,1
DA:705,1
DA:706,1
DA:707,1
DA:708,1
DA:709,1
DA:710,1
DA:711,1
DA:712,1
DA:713,1
DA:714,1
DA:715,1
DA:716,1
DA:717,1
DA:718,1
DA:721,1
DA:722,1
DA:723,1
DA:724,1
DA:725,1
DA:726,1
DA:727,1
DA:728,1
DA:729,1
DA:730,1
DA:731,1
DA:732,1
DA:733,1
DA:734,1
DA:735,1
DA:736,1
DA:737,1
DA:738,1
DA:741,1
DA:742,1
DA:743,1
DA:744,1
DA:745,1
DA:746,1
DA:747,1
DA:748,1
DA:749,1
DA:750,1
DA:751,1
DA:752,1
DA:753,1
DA:754,1
DA:755,1
DA:756,1
DA:757,1
DA:760,1
DA:761,1
DA:762,1
DA:763,1
DA:764,1
DA:765,1
DA:766,1
DA:767,1
DA:768,1
DA:769,1
DA:770,1
DA:771,1
DA:772,1
DA:773,1
DA:774,1
DA:775,1
DA:776,1
DA:779,1
DA:780,1
DA:781,1
DA:782,1
DA:783,1
DA:784,1
DA:785,1
DA:786,1
DA:787,1
DA:788,1
DA:789,1
DA:790,1
DA:791,1
DA:792,1
DA:793,1
DA:794,1
DA:795,1
DA:798,1
DA:799,1
DA:800,1
DA:801,1
DA:802,1
DA:803,1
DA:804,1
DA:805,1
DA:806,1
DA:807,1
DA:808,1
DA:809,1
DA:810,1
DA:811,1
DA:812,1
DA:813,1
DA:814,1
DA:817,1
DA:818,1
DA:819,1
DA:820,1
DA:821,1
DA:822,1
DA:823,1
DA:824,1
DA:825,1
DA:826,1
DA:827,1
DA:828,1
DA:829,1
DA:830,1
DA:831,1
DA:832,1
DA:833,1
DA:836,1
DA:837,1
DA:838,1
DA:839,1
DA:840,1
DA:841,1
DA:842,1
DA:843,1
DA:844,1
DA:845,1
DA:846,1
DA:847,1
DA:848,1
DA:849,1
DA:850,1
DA:851,1
DA:852,1
DA:855,1
DA:856,1
DA:857,1
DA:858,1
DA:859,1
DA:860,1
DA:861,1
DA:862,1
DA:863,1
DA:864,1
DA:865,1
DA:866,1
DA:867,1
DA:868,1
DA:869,1
DA:870,1
DA:871,1
DA:874,1
DA:875,1
DA:876,1
DA:877,1
DA:878,1
DA:879,1
DA:880,1
DA:881,1
DA:882,1
DA:883,1
DA:884,1
DA:885,1
DA:886,1
DA:887,1
DA:888,1
DA:889,1
DA:890,1
DA:893,1
DA:894,1
DA:895,1
DA:896,1
DA:897,1
DA:898,1
DA:899,1
DA:900,1
DA:901,1
DA:902,1
DA:903,1
DA:904,1
DA:905,1
DA:908,1
DA:909,1
DA:910,1
DA:911,1
DA:912,1
DA:913,1
DA:914,1
DA:915,1
DA:916,1
DA:917,1
DA:918,1
DA:919,1
DA:920,1
DA:923,1
DA:924,1
DA:925,1
DA:926,1
DA:927,1
DA:928,1
DA:929,1
DA:930,1
DA:931,1
DA:932,1
DA:933,1
DA:934,1
DA:935,1
DA:936,1
DA:937,1
DA:938,1
DA:939,1
DA:942,1
DA:943,1
DA:944,1
DA:945,1
DA:946,1
DA:947,1
DA:948,1
DA:949,1
DA:950,1
DA:951,1
DA:952,1
DA:953,1
DA:954,1
DA:955,1
DA:956,1
DA:957,1
DA:958,1
DA:961,1
DA:962,1
DA:963,1
DA:964,1
DA:965,1
DA:966,1
DA:967,1
DA:968,1
DA:969,1
DA:970,1
DA:971,1
DA:972,1
DA:973,1
DA:974,1
DA:975,1
DA:976,1
DA:977,1
DA:980,1
DA:981,1
DA:982,1
DA:983,1
DA:984,1
DA:985,1
DA:986,1
DA:987,1
DA:988,1
DA:989,1
DA:990,1
DA:991,1
DA:992,1
DA:993,1
DA:994,1
DA:995,1
DA:996,1
DA:999,1
DA:1000,1
DA:1001,1
DA:1002,1
DA:1003,1
DA:1004,1
DA:1005,1
DA:1006,1
DA:1007,1
DA:1008,1
DA:1009,1
DA:1010,1
DA:1011,1
DA:1012,1
DA:1013,1
DA:1014,1
DA:1015,1
DA:1018,1
DA:1019,1
DA:1020,1
DA:1021,1
DA:1022,1
DA:1023,1
DA:1024,1
DA:1025,1
DA:1026,1
DA:1027,1
DA:1028,1
DA:1029,1
DA:1030,1
DA:1031,1
DA:1032,1
DA:1033,1
DA:1034,1
DA:1037,1
DA:1038,1
DA:1039,1
DA:1040,1
DA:1041,1
DA:1042,1
DA:1043,1
DA:1044,1
DA:1045,1
DA:1046,1
DA:1047,1
DA:1048,1
DA:1049,1
DA:1050,1
DA:1051,1
DA:1052,1
DA:1053,1
DA:1056,1
DA:1057,1
DA:1058,1
DA:1059,1
DA:1060,1
DA:1061,1
DA:1062,1
DA:1063,1
DA:1064,1
DA:1065,1
DA:1066,1
DA:1067,1
DA:1068,1
DA:1069,1
DA:1070,1
DA:1071,1
DA:1072,1
DA:1075,1
DA:1076,1
DA:1077,1
DA:1078,1
DA:1079,1
DA:1080,1
DA:1081,1
DA:1082,1
DA:1083,1
DA:1084,1
DA:1085,1
DA:1086,1
DA:1087,1
DA:1088,1
DA:1089,1
DA:1090,1
DA:1091,1
DA:1092,1
DA:1093,1
DA:1096,1
DA:1097,1
DA:1098,1
DA:1099,1
DA:1100,1
DA:1101,1
DA:1102,1
DA:1103,1
DA:1104,1
DA:1105,1
DA:1106,1
DA:1107,1
DA:1108,1
DA:1109,1
DA:1110,1
DA:1111,1
DA:1112,1
DA:1113,1
DA:1114,1
DA:1117,1
DA:1118,1
DA:1119,1
DA:1120,1
DA:1121,1
DA:1122,1
DA:1123,1
DA:1124,1
DA:1125,1
DA:1126,1
DA:1127,1
DA:1128,1
DA:1129,1
DA:1130,1
DA:1131,1
DA:1132,1
DA:1133,1
DA:1134,1
DA:1135,1
DA:1138,1
DA:1139,1
DA:1140,1
DA:1141,1
DA:1142,1
DA:1143,1
DA:1144,1
DA:1145,1
DA:1146,1
DA:1147,1
DA:1148,1
DA:1149,1
DA:1150,1
DA:1151,1
DA:1152,1
DA:1153,1
DA:1154,1
DA:1155,1
DA:1156,1
DA:1159,1
DA:1160,1
DA:1161,1
DA:1162,1
DA:1163,1
DA:1164,1
DA:1165,1
DA:1166,1
DA:1167,1
DA:1168,1
DA:1169,1
DA:1170,1
DA:1171,1
DA:1172,1
DA:1173,1
DA:1174,1
DA:1175,1
DA:1176,1
DA:1177,1
DA:1178,1
DA:1179,1
DA:1180,1
DA:1181,1
DA:1184,1
DA:1185,1
DA:1186,1
DA:1187,1
DA:1188,1
DA:1189,1
DA:1190,1
DA:1191,1
DA:1192,1
DA:1193,1
DA:1194,1
DA:1195,1
DA:1196,1
DA:1197,1
DA:1198,1
DA:1199,1
DA:1200,1
DA:1201,1
DA:1202,1
DA:1203,1
DA:1204,1
DA:1205,1
DA:1208,1
DA:1209,1
DA:1210,1
DA:1211,1
DA:1212,1
DA:1213,1
DA:1214,1
DA:1215,1
DA:1216,1
DA:1217,1
DA:1218,1
DA:1219,1
DA:1220,1
DA:1221,1
DA:1222,1
DA:1223,1
DA:1224,1
DA:1225,1
DA:1226,1
DA:1227,1
DA:1228,1
DA:1231,1
DA:1232,1
DA:1233,1
DA:1234,1
DA:1235,1
DA:1236,1
DA:1237,1
DA:1238,1
DA:1239,1
DA:1240,1
DA:1241,1
DA:1242,1
DA:1243,1
DA:1244,1
DA:1245,1
DA:1246,1
DA:1247,1
DA:1248,1
DA:1249,1
DA:1250,1
DA:1251,1
DA:1254,1
DA:1255,1
DA:1256,1
DA:1257,1
DA:1258,1
DA:1259,1
DA:1260,1
DA:1261,1
DA:1262,1
DA:1263,1
DA:1264,1
DA:1265,1
DA:1266,1
DA:1267,1
DA:1268,1
DA:1269,1
DA:1270,1
DA:1271,1
DA:1272,1
DA:1273,1
DA:1274,1
DA:1277,1
DA:1278,1
DA:1279,1
DA:1280,1
DA:1281,1
DA:1282,1
DA:1283,1
DA:1284,1
DA:1285,1
DA:1286,1
DA:1287,1
DA:1288,1
DA:1289,1
DA:1290,1
DA:1291,1
DA:1292,1
DA:1295,1
DA:1296,1
DA:1297,1
DA:1298,1
DA:1299,1
DA:1300,1
DA:1301,1
DA:1302,1
DA:1303,1
DA:1304,1
DA:1305,1
DA:1306,1
DA:1307,1
DA:1308,1
DA:1309,1
DA:1310,1
DA:1311,1
DA:1312,1
DA:1313,1
DA:1314,1
DA:1315,1
DA:1316,1
DA:1319,1
DA:1320,1
DA:1321,1
DA:1322,1
DA:1323,1
DA:1324,1
DA:1325,1
DA:1326,1
DA:1327,1
DA:1328,1
DA:1329,1
DA:1330,1
DA:1331,1
DA:1332,1
DA:1333,1
DA:1334,1
DA:1335,1
DA:1336,1
DA:1337,1
DA:1338,1
DA:1339,1
DA:1340,1
DA:1343,1
DA:1344,1
DA:1345,1
DA:1346,1
DA:1347,1
DA:1348,1
DA:1349,1
DA:1350,1
DA:1351,1
DA:1352,1
DA:1353,1
DA:1354,1
DA:1355,1
DA:1356,1
DA:1357,1
DA:1358,1
DA:1361,1
DA:1362,1
DA:1363,1
DA:1364,1
DA:1365,1
DA:1366,1
DA:1367,1
DA:1368,1
DA:1369,1
DA:1370,1
DA:1371,1
DA:1372,1
DA:1373,1
DA:1374,1
DA:1375,1
DA:1376,1
DA:1377,1
DA:1378,1
DA:1379,1
DA:1382,1
DA:1383,1
DA:1384,1
DA:1385,1
DA:1386,1
DA:1387,1
DA:1388,1
DA:1389,1
DA:1390,1
DA:1391,1
DA:1392,1
DA:1393,1
DA:1394,1
DA:1395,1
DA:1396,1
DA:1397,1
DA:1398,1
DA:1399,1
DA:1400,1
DA:1403,1
DA:1404,1
DA:1405,1
DA:1406,1
DA:1407,1
DA:1408,1
DA:1409,1
DA:1411,1
DA:1412,1
DA:1413,1
DA:1414,1
DA:1415,1
DA:1416,1
DA:1417,1
DA:1418,1
DA:1419,1
DA:1422,1
DA:1423,1
DA:1424,1
DA:1425,1
DA:1426,1
DA:1427,1
DA:1428,1
DA:1429,1
DA:1430,1
DA:1431,1
DA:1432,1
DA:1433,1
DA:1434,1
DA:1437,1
DA:1438,1
DA:1439,1
DA:1440,1
DA:1441,1
DA:1442,1
DA:1443,1
DA:1445,1
DA:1446,1
DA:1447,1
DA:1448,1
DA:1449,1
DA:1450,1
DA:1451,1
DA:1452,1
DA:1453,1
DA:1456,1
DA:1457,1
DA:1458,1
DA:1459,1
DA:1460,1
DA:1461,1
DA:1462,1
DA:1463,1
DA:1464,1
DA:1465,1
DA:1466,1
DA:1467,1
DA:1470,1
DA:1471,1
DA:1472,1
DA:1473,1
DA:1474,1
DA:1475,1
DA:1476,1
DA:1477,1
DA:1478,1
DA:1479,1
DA:1480,1
DA:1481,1
DA:1482,1
DA:1483,1
DA:1486,1
DA:1487,1
DA:1488,1
DA:1489,1
DA:1490,1
DA:1491,1
DA:1494,1
DA:1495,1
DA:1496,1
DA:1497,1
DA:1498,1
DA:1499,1
DA:1500,1
DA:1501,1
DA:1502,1
DA:1503,1
DA:1504,1
DA:1505,1
DA:1506,1
DA:1507,1
DA:1508,1
DA:1509,1
DA:1510,1
DA:1513,1
DA:1514,1
DA:1515,1
DA:1516,1
DA:1517,1
DA:1518,1
DA:1519,1
DA:1520,1
DA:1521,1
DA:1522,1
DA:1523,1
DA:1524,1
DA:1525,1
DA:1526,1
DA:1527,1
DA:1528,1
DA:1529,1
DA:1532,1
DA:1533,1
DA:1534,1
DA:1535,1
DA:1536,1
DA:1537,1
DA:1538,1
DA:1539,1
DA:1540,1
DA:1541,1
DA:1542,1
DA:1543,1
DA:1544,1
DA:1545,1
DA:1546,1
DA:1547,1
DA:1548,1
DA:1551,1
DA:1552,1
DA:1553,1
DA:1554,1
DA:1555,1
DA:1556,1
DA:1557,1
DA:1558,1
DA:1559,1
DA:1560,1
DA:1561,1
DA:1562,1
DA:1563,1
DA:1564,1
DA:1565,1
DA:1566,1
DA:1567,1
DA:1570,1
DA:1571,6
DA:1572,6
DA:1573,6
DA:1574,6
DA:1575,6
DA:1576,6
DA:1577,6
DA:1578,6
DA:1579,6
DA:1580,6
DA:1581,6
DA:1582,6
DA:1583,6
DA:1584,6
DA:1585,6
DA:1586,6
DA:1587,6
DA:1588,6
DA:1589,6
DA:1590,6
DA:1591,6
DA:1592,6
DA:1593,6
DA:1594,6
DA:1595,6
DA:1596,6
DA:1597,6
DA:1598,1
DA:1599,1
DA:1600,1
DA:1601,1
DA:1602,1
DA:1603,1
DA:1604,1
DA:1605,1
DA:1606,1
DA:1607,1
DA:1608,1
DA:1609,1
DA:1610,1
DA:1611,1
DA:1612,1
DA:1613,1
DA:1614,1
DA:1615,1
DA:1616,1
DA:1617,1
DA:1618,1
DA:1619,1
DA:1620,1
DA:1621,1
DA:1622,1
DA:1623,1
DA:1624,1
DA:1625,1
DA:1626,1
DA:1627,1
DA:1628,1
BRF:0
BRH:0
LF:1366
LH:1350
end_of_record
SF:D:\opensource\hayabusa\src\detections\rule\count.rs
FN:299,_RINvNtNtNtCs5DPfXlAluY4_8hayabusa10detections4rule5count23__if_condition_fn_callerpppEB8_
FN:20,_RNvNtNtNtCs5DPfXlAluY4_8hayabusa10detections4rule5count5count
FN:63,_RNvNtNtNtCs5DPfXlAluY4_8hayabusa10detections4rule5count7countup
FN:79,_RNvNtNtNtCs5DPfXlAluY4_8hayabusa10detections4rule5count25get_alias_value_in_record
FN:131,_RNvNtNtNtCs5DPfXlAluY4_8hayabusa10detections4rule5count16create_count_key
FN:150,_RNCNvNtNtNtCs5DPfXlAluY4_8hayabusa10detections4rule5count16create_count_key0B9_
FN:157,_RNvNtNtNtCs5DPfXlAluY4_8hayabusa10detections4rule5count28aggregation_condition_select
FN:171,_RNvNtNtNtCs5DPfXlAluY4_8hayabusa10detections4rule5count14get_str_agg_eq
FN:216,_RNvMNtNtNtCs5DPfXlAluY4_8hayabusa10detections4rule5countNtB2_13TimeFrameInfo12parse_tframe
FN:250,_RNvNtNtNtCs5DPfXlAluY4_8hayabusa10detections4rule5count17get_sec_timeframe
FN:281,_RNvNtNtNtCs5DPfXlAluY4_8hayabusa10detections4rule5count13select_aggcon
FN:348,_RNvXs_NtNtNtCs5DPfXlAluY4_8hayabusa10detections4rule5countNtB4_13FieldStrategyNtB4_13CountStrategy8add_data
FN:363,_RNvXs_NtNtNtCs5DPfXlAluY4_8hayabusa10detections4rule5countNtB4_13FieldStrategyNtB4_13CountStrategy11remove_data
FN:383,_RNvXs_NtNtNtCs5DPfXlAluY4_8hayabusa10detections4rule5countNtB4_13FieldStrategyNtB4_13CountStrategy5count
FN:387,_RNvXs_NtNtNtCs5DPfXlAluY4_8hayabusa10detections4rule5countNtB4_13FieldStrategyNtB4_13CountStrategy17create_agg_result
FN:395,_RNCNvXs_NtNtNtCs5DPfXlAluY4_8hayabusa10detections4rule5countNtB6_13FieldStrategyNtB6_13CountStrategy17create_agg_result0Bc_
FN:414,_RNvXs0_NtNtNtCs5DPfXlAluY4_8hayabusa10detections4rule5countNtB5_15NoFieldStrategyNtB5_13CountStrategy8add_data
FN:422,_RNvXs0_NtNtNtCs5DPfXlAluY4_8hayabusa10detections4rule5countNtB5_15NoFieldStrategyNtB5_13CountStrategy11remove_data
FN:430,_RNvXs0_NtNtNtCs5DPfXlAluY4_8hayabusa10detections4rule5countNtB5_15NoFieldStrategyNtB5_13CountStrategy5count
FN:434,_RNvXs0_NtNtNtCs5DPfXlAluY4_8hayabusa10detections4rule5countNtB5_15NoFieldStrategyNtB5_13CountStrategy17create_agg_result
FN:454,_RNvNtNtNtCs5DPfXlAluY4_8hayabusa10detections4rule5count15__create_counter
FN:465,_RNvNtNtNtCs5DPfXlAluY4_8hayabusa10detections4rule5count14__get_timestamp
FN:469,_RNvNtNtNtCs5DPfXlAluY4_8hayabusa10detections4rule5count26__get_timestamp_subsec_nano
FN:474,_RNvNtNtNtCs5DPfXlAluY4_8hayabusa10detections4rule5count16__is_in_timeframe
FN:487,_RNvNtNtNtCs5DPfXlAluY4_8hayabusa10detections4rule5count15judge_timeframe
FN:500,_RNCNvNtNtNtCs5DPfXlAluY4_8hayabusa10detections4rule5count15judge_timeframe0B9_
FN:578,_RNvNtNtNtNtCsNhz5SapXcJ_8hayabusa10detections4rule5count5tests26create_dummy_stored_static
FN:1664,_RNvNtNtNtNtCsNhz5SapXcJ_8hayabusa10detections4rule5count5tests22test_create_recstr_std
FN:1668,_RNvNtNtNtNtCsNhz5SapXcJ_8hayabusa10detections4rule5count5tests18test_create_recstr
FN:1689,_RNvNtNtNtNtCsNhz5SapXcJ_8hayabusa10detections4rule5count5tests15create_std_rule
FN:1705,_RNvNtNtNtNtCsNhz5SapXcJ_8hayabusa10detections4rule5count5tests11check_count
FN:651,_RNvNtNtNtNtCsNhz5SapXcJ_8hayabusa10detections4rule5count5testss_26test_count_no_field_and_by
FN:702,_RNvNtNtNtNtCsNhz5SapXcJ_8hayabusa10detections4rule5count5testss_41test_count_no_field_and_by_with_timeframe
FN:763,_RNvNtNtNtNtCsNhz5SapXcJ_8hayabusa10detections4rule5count5testss_22test_count_exist_field
FN:795,_RNvNtNtNtNtCsNhz5SapXcJ_8hayabusa10detections4rule5count5testss_29test_count_exist_field_and_by
FN:853,_RNvNtNtNtNtCsNhz5SapXcJ_8hayabusa10detections4rule5count5testss_58test_count_exist_field_and_by_with_othervalue_in_timeframe
FN:911,_RNvNtNtNtNtCsNhz5SapXcJ_8hayabusa10detections4rule5count5testss_35test_count_not_satisfy_in_timeframe
FN:974,_RNvNtNtNtNtCsNhz5SapXcJ_8hayabusa10detections4rule5count5testss_44test_count_exist_field_and_by_with_timeframe
FN:1023,_RNvNtNtNtNtCsNhz5SapXcJ_8hayabusa10detections4rule5count5testss_62test_count_exist_field_and_by_with_timeframe_other_field_value
FN:1073,_RNvNtNtNtNtCsNhz5SapXcJ_8hayabusa10detections4rule5count5testss_28test_count_timeframe_seconds
FN:1107,_RNvNtNtNtNtCsNhz5SapXcJ_8hayabusa10detections4rule5count5testss_29test_count_timeframe_minitues
FN:1141,_RNvNtNtNtNtCsNhz5SapXcJ_8hayabusa10detections4rule5count5testss_25test_count_timeframe_hour
FN:1215,_RNvNtNtNtNtCsNhz5SapXcJ_8hayabusa10detections4rule5count5testss_24test_count_timeframe_day
FN:1249,_RNvNtNtNtNtCsNhz5SapXcJ_8hayabusa10detections4rule5count5testss_28test_count_timeframe_milsecs
FN:1283,_RNvNtNtNtNtCsNhz5SapXcJ_8hayabusa10detections4rule5count5testss_29test_count_timeframe_milsecs2
FN:1323,_RNvNtNtNtNtCsNhz5SapXcJ_8hayabusa10detections4rule5count5testss_29test_count_timeframe_milsecs3
FN:1363,_RNvNtNtNtNtCsNhz5SapXcJ_8hayabusa10detections4rule5count5testss_19test_count_norecord
FN:1375,_RNvNtNtNtNtCsNhz5SapXcJ_8hayabusa10detections4rule5count5testss_20test_count_onerecord
FN:1436,_RNvNtNtNtNtCsNhz5SapXcJ_8hayabusa10detections4rule5count5testss_21test_count_timeframe1
FN:1462,_RNvNtNtNtNtCsNhz5SapXcJ_8hayabusa10detections4rule5count5testss_21test_count_timeframe2
FN:1483,_RNvNtNtNtNtCsNhz5SapXcJ_8hayabusa10detections4rule5count5testss_19test_count_sametime
FN:1516,_RNvNtNtNtNtCsNhz5SapXcJ_8hayabusa10detections4rule5count5testss_19test_count_sentinel
FN:1552,_RNvNtNtNtNtCsNhz5SapXcJ_8hayabusa10detections4rule5count5testss_26test_count_timeframe_reset
FN:1621,_RNvNtNtNtNtCsNhz5SapXcJ_8hayabusa10detections4rule5count5testss_26test_count_timeframe_twice
FN:299,_RINvNtNtNtCsNhz5SapXcJ_8hayabusa10detections4rule5count23__if_condition_fn_callerpppEB8_
FN:20,_RNvNtNtNtCsNhz5SapXcJ_8hayabusa10detections4rule5count5count
FN:63,_RNvNtNtNtCsNhz5SapXcJ_8hayabusa10detections4rule5count7countup
FN:79,_RNvNtNtNtCsNhz5SapXcJ_8hayabusa10detections4rule5count25get_alias_value_in_record
FN:131,_RNvNtNtNtCsNhz5SapXcJ_8hayabusa10detections4rule5count16create_count_key
FN:150,_RNCNvNtNtNtCsNhz5SapXcJ_8hayabusa10detections4rule5count16create_count_key0B9_
FN:157,_RNvNtNtNtCsNhz5SapXcJ_8hayabusa10detections4rule5count28aggregation_condition_select
FN:171,_RNvNtNtNtCsNhz5SapXcJ_8hayabusa10detections4rule5count14get_str_agg_eq
FN:216,_RNvMNtNtNtCsNhz5SapXcJ_8hayabusa10detections4rule5countNtB2_13TimeFrameInfo12parse_tframe
FN:250,_RNvNtNtNtCsNhz5SapXcJ_8hayabusa10detections4rule5count17get_sec_timeframe
FN:281,_RNvNtNtNtCsNhz5SapXcJ_8hayabusa10detections4rule5count13select_aggcon
FN:348,_RNvXs_NtNtNtCsNhz5SapXcJ_8hayabusa10detections4rule5countNtB4_13FieldStrategyNtB4_13CountStrategy8add_data
FN:363,_RNvXs_NtNtNtCsNhz5SapXcJ_8hayabusa10detections4rule5countNtB4_13FieldStrategyNtB4_13CountStrategy11remove_data
FN:383,_RNvXs_NtNtNtCsNhz5SapXcJ_8hayabusa10detections4rule5countNtB4_13FieldStrategyNtB4_13CountStrategy5count
FN:387,_RNvXs_NtNtNtCsNhz5SapXcJ_8hayabusa10detections4rule5countNtB4_13FieldStrategyNtB4_13CountStrategy17create_agg_result
FN:395,_RNCNvXs_NtNtNtCsNhz5SapXcJ_8hayabusa10detections4rule5countNtB6_13FieldStrategyNtB6_13CountStrategy17create_agg_result0Bc_
FN:414,_RNvXs0_NtNtNtCsNhz5SapXcJ_8hayabusa10detections4rule5countNtB5_15NoFieldStrategyNtB5_13CountStrategy8add_data
FN:422,_RNvXs0_NtNtNtCsNhz5SapXcJ_8hayabusa10detections4rule5countNtB5_15NoFieldStrategyNtB5_13CountStrategy11remove_data
FN:430,_RNvXs0_NtNtNtCsNhz5SapXcJ_8hayabusa10detections4rule5countNtB5_15NoFieldStrategyNtB5_13CountStrategy5count
FN:434,_RNvXs0_NtNtNtCsNhz5SapXcJ_8hayabusa10detections4rule5countNtB5_15NoFieldStrategyNtB5_13CountStrategy17create_agg_result
FN:454,_RNvNtNtNtCsNhz5SapXcJ_8hayabusa10detections4rule5count15__create_counter
FN:465,_RNvNtNtNtCsNhz5SapXcJ_8hayabusa10detections4rule5count14__get_timestamp
FN:469,_RNvNtNtNtCsNhz5SapXcJ_8hayabusa10detections4rule5count26__get_timestamp_subsec_nano
FN:474,_RNvNtNtNtCsNhz5SapXcJ_8hayabusa10detections4rule5count16__is_in_timeframe
FN:487,_RNvNtNtNtCsNhz5SapXcJ_8hayabusa10detections4rule5count15judge_timeframe
FN:500,_RNCNvNtNtNtCsNhz5SapXcJ_8hayabusa10detections4rule5count15judge_timeframe0B9_
FNDA:0,_RINvNtNtNtCs5DPfXlAluY4_8hayabusa10detections4rule5count23__if_condition_fn_callerpppEB8_
FNDA:0,_RNvNtNtNtCs5DPfXlAluY4_8hayabusa10detections4rule5count5count
FNDA:0,_RNvNtNtNtCs5DPfXlAluY4_8hayabusa10detections4rule5count7countup
FNDA:0,_RNvNtNtNtCs5DPfXlAluY4_8hayabusa10detections4rule5count25get_alias_value_in_record
FNDA:0,_RNvNtNtNtCs5DPfXlAluY4_8hayabusa10detections4rule5count16create_count_key
FNDA:0,_RNCNvNtNtNtCs5DPfXlAluY4_8hayabusa10detections4rule5count16create_count_key0B9_
FNDA:0,_RNvNtNtNtCs5DPfXlAluY4_8hayabusa10detections4rule5count28aggregation_condition_select
FNDA:0,_RNvNtNtNtCs5DPfXlAluY4_8hayabusa10detections4rule5count14get_str_agg_eq
FNDA:0,_RNvMNtNtNtCs5DPfXlAluY4_8hayabusa10detections4rule5countNtB2_13TimeFrameInfo12parse_tframe
FNDA:0,_RNvNtNtNtCs5DPfXlAluY4_8hayabusa10detections4rule5count17get_sec_timeframe
FNDA:0,_RNvNtNtNtCs5DPfXlAluY4_8hayabusa10detections4rule5count13select_aggcon
FNDA:0,_RNvXs_NtNtNtCs5DPfXlAluY4_8hayabusa10detections4rule5countNtB4_13FieldStrategyNtB4_13CountStrategy8add_data
FNDA:0,_RNvXs_NtNtNtCs5DPfXlAluY4_8hayabusa10detections4rule5countNtB4_13FieldStrategyNtB4_13CountStrategy11remove_data
FNDA:0,_RNvXs_NtNtNtCs5DPfXlAluY4_8hayabusa10detections4rule5countNtB4_13FieldStrategyNtB4_13CountStrategy5count
FNDA:0,_RNvXs_NtNtNtCs5DPfXlAluY4_8hayabusa10detections4rule5countNtB4_13FieldStrategyNtB4_13CountStrategy17create_agg_result
FNDA:0,_RNCNvXs_NtNtNtCs5DPfXlAluY4_8hayabusa10detections4rule5countNtB6_13FieldStrategyNtB6_13CountStrategy17create_agg_result0Bc_
FNDA:0,_RNvXs0_NtNtNtCs5DPfXlAluY4_8hayabusa10detections4rule5countNtB5_15NoFieldStrategyNtB5_13CountStrategy8add_data
FNDA:0,_RNvXs0_NtNtNtCs5DPfXlAluY4_8hayabusa10detections4rule5countNtB5_15NoFieldStrategyNtB5_13CountStrategy11remove_data
FNDA:0,_RNvXs0_NtNtNtCs5DPfXlAluY4_8hayabusa10detections4rule5countNtB5_15NoFieldStrategyNtB5_13CountStrategy5count
FNDA:0,_RNvXs0_NtNtNtCs5DPfXlAluY4_8hayabusa10detections4rule5countNtB5_15NoFieldStrategyNtB5_13CountStrategy17create_agg_result
FNDA:0,_RNvNtNtNtCs5DPfXlAluY4_8hayabusa10detections4rule5count15__create_counter
FNDA:0,_RNvNtNtNtCs5DPfXlAluY4_8hayabusa10detections4rule5count14__get_timestamp
FNDA:0,_RNvNtNtNtCs5DPfXlAluY4_8hayabusa10detections4rule5count26__get_timestamp_subsec_nano
FNDA:0,_RNvNtNtNtCs5DPfXlAluY4_8hayabusa10detections4rule5count16__is_in_timeframe
FNDA:0,_RNvNtNtNtCs5DPfXlAluY4_8hayabusa10detections4rule5count15judge_timeframe
FNDA:0,_RNCNvNtNtNtCs5DPfXlAluY4_8hayabusa10detections4rule5count15judge_timeframe0B9_
FNDA:69,_RNvNtNtNtNtCsNhz5SapXcJ_8hayabusa10detections4rule5count5tests26create_dummy_stored_static
FNDA:66,_RNvNtNtNtNtCsNhz5SapXcJ_8hayabusa10detections4rule5count5tests22test_create_recstr_std
FNDA:66,_RNvNtNtNtNtCsNhz5SapXcJ_8hayabusa10detections4rule5count5tests18test_create_recstr
FNDA:27,_RNvNtNtNtNtCsNhz5SapXcJ_8hayabusa10detections4rule5count5tests15create_std_rule
FNDA:34,_RNvNtNtNtNtCsNhz5SapXcJ_8hayabusa10detections4rule5count5tests11check_count
FNDA:1,_RNvNtNtNtNtCsNhz5SapXcJ_8hayabusa10detections4rule5count5testss_26test_count_no_field_and_by
FNDA:1,_RNvNtNtNtNtCsNhz5SapXcJ_8hayabusa10detections4rule5count5testss_41test_count_no_field_and_by_with_timeframe
FNDA:1,_RNvNtNtNtNtCsNhz5SapXcJ_8hayabusa10detections4rule5count5testss_22test_count_exist_field
FNDA:1,_RNvNtNtNtNtCsNhz5SapXcJ_8hayabusa10detections4rule5count5testss_29test_count_exist_field_and_by
FNDA:1,_RNvNtNtNtNtCsNhz5SapXcJ_8hayabusa10detections4rule5count5testss_58test_count_exist_field_and_by_with_othervalue_in_timeframe
FNDA:1,_RNvNtNtNtNtCsNhz5SapXcJ_8hayabusa10detections4rule5count5testss_35test_count_not_satisfy_in_timeframe
FNDA:1,_RNvNtNtNtNtCsNhz5SapXcJ_8hayabusa10detections4rule5count5testss_44test_count_exist_field_and_by_with_timeframe
FNDA:1,_RNvNtNtNtNtCsNhz5SapXcJ_8hayabusa10detections4rule5count5testss_62test_count_exist_field_and_by_with_timeframe_other_field_value
FNDA:1,_RNvNtNtNtNtCsNhz5SapXcJ_8hayabusa10detections4rule5count5testss_28test_count_timeframe_seconds
FNDA:1,_RNvNtNtNtNtCsNhz5SapXcJ_8hayabusa10detections4rule5count5testss_29test_count_timeframe_minitues
FNDA:1,_RNvNtNtNtNtCsNhz5SapXcJ_8hayabusa10detections4rule5count5testss_25test_count_timeframe_hour
FNDA:1,_RNvNtNtNtNtCsNhz5SapXcJ_8hayabusa10detections4rule5count5testss_24test_count_timeframe_day
FNDA:1,_RNvNtNtNtNtCsNhz5SapXcJ_8hayabusa10detections4rule5count5testss_28test_count_timeframe_milsecs
FNDA:1,_RNvNtNtNtNtCsNhz5SapXcJ_8hayabusa10detections4rule5count5testss_29test_count_timeframe_milsecs2
FNDA:1,_RNvNtNtNtNtCsNhz5SapXcJ_8hayabusa10detections4rule5count5testss_29test_count_timeframe_milsecs3
FNDA:1,_RNvNtNtNtNtCsNhz5SapXcJ_8hayabusa10detections4rule5count5testss_19test_count_norecord
FNDA:1,_RNvNtNtNtNtCsNhz5SapXcJ_8hayabusa10detections4rule5count5testss_20test_count_onerecord
FNDA:1,_RNvNtNtNtNtCsNhz5SapXcJ_8hayabusa10detections4rule5count5testss_21test_count_timeframe1
FNDA:1,_RNvNtNtNtNtCsNhz5SapXcJ_8hayabusa10detections4rule5count5testss_21test_count_timeframe2
FNDA:1,_RNvNtNtNtNtCsNhz5SapXcJ_8hayabusa10detections4rule5count5testss_19test_count_sametime
FNDA:1,_RNvNtNtNtNtCsNhz5SapXcJ_8hayabusa10detections4rule5count5testss_19test_count_sentinel
FNDA:1,_RNvNtNtNtNtCsNhz5SapXcJ_8hayabusa10detections4rule5count5testss_26test_count_timeframe_reset
FNDA:1,_RNvNtNtNtNtCsNhz5SapXcJ_8hayabusa10detections4rule5count5testss_26test_count_timeframe_twice
FNDA:0,_RINvNtNtNtCsNhz5SapXcJ_8hayabusa10detections4rule5count23__if_condition_fn_callerpppEB8_
FNDA:115,_RNvNtNtNtCsNhz5SapXcJ_8hayabusa10detections4rule5count5count
FNDA:115,_RNvNtNtNtCsNhz5SapXcJ_8hayabusa10detections4rule5count7countup
FNDA:124,_RNvNtNtNtCsNhz5SapXcJ_8hayabusa10detections4rule5count25get_alias_value_in_record
FNDA:115,_RNvNtNtNtCsNhz5SapXcJ_8hayabusa10detections4rule5count16create_count_key
FNDA:0,_RNCNvNtNtNtCsNhz5SapXcJ_8hayabusa10detections4rule5count16create_count_key0B9_
FNDA:35,_RNvNtNtNtCsNhz5SapXcJ_8hayabusa10detections4rule5count28aggregation_condition_select
FNDA:29,_RNvNtNtNtCsNhz5SapXcJ_8hayabusa10detections4rule5count14get_str_agg_eq
FNDA:33,_RNvMNtNtNtCsNhz5SapXcJ_8hayabusa10detections4rule5countNtB2_13TimeFrameInfo12parse_tframe
FNDA:36,_RNvNtNtNtCsNhz5SapXcJ_8hayabusa10detections4rule5count17get_sec_timeframe
FNDA:59,_RNvNtNtNtCsNhz5SapXcJ_8hayabusa10detections4rule5count13select_aggcon
FNDA:123,_RNvXs_NtNtNtCsNhz5SapXcJ_8hayabusa10detections4rule5countNtB4_13FieldStrategyNtB4_13CountStrategy8add_data
FNDA:30,_RNvXs_NtNtNtCsNhz5SapXcJ_8hayabusa10detections4rule5countNtB4_13FieldStrategyNtB4_13CountStrategy11remove_data
FNDA:56,_RNvXs_NtNtNtCsNhz5SapXcJ_8hayabusa10detections4rule5countNtB4_13FieldStrategyNtB4_13CountStrategy5count
FNDA:26,_RNvXs_NtNtNtCsNhz5SapXcJ_8hayabusa10detections4rule5countNtB4_13FieldStrategyNtB4_13CountStrategy17create_agg_result
FNDA:67,_RNCNvXs_NtNtNtCsNhz5SapXcJ_8hayabusa10detections4rule5countNtB6_13FieldStrategyNtB6_13CountStrategy17create_agg_result0Bc_
FNDA:4,_RNvXs0_NtNtNtCsNhz5SapXcJ_8hayabusa10detections4rule5countNtB5_15NoFieldStrategyNtB5_13CountStrategy8add_data
FNDA:0,_RNvXs0_NtNtNtCsNhz5SapXcJ_8hayabusa10detections4rule5countNtB5_15NoFieldStrategyNtB5_13CountStrategy11remove_data
FNDA:3,_RNvXs0_NtNtNtCsNhz5SapXcJ_8hayabusa10detections4rule5countNtB5_15NoFieldStrategyNtB5_13CountStrategy5count
FNDA:3,_RNvXs0_NtNtNtCsNhz5SapXcJ_8hayabusa10detections4rule5countNtB5_15NoFieldStrategyNtB5_13CountStrategy17create_agg_result
FNDA:36,_RNvNtNtNtCsNhz5SapXcJ_8hayabusa10detections4rule5count15__create_counter
FNDA:240,_RNvNtNtNtCsNhz5SapXcJ_8hayabusa10detections4rule5count14__get_timestamp
FNDA:240,_RNvNtNtNtCsNhz5SapXcJ_8hayabusa10detections4rule5count26__get_timestamp_subsec_nano
FNDA:120,_RNvNtNtNtCsNhz5SapXcJ_8hayabusa10detections4rule5count16__is_in_timeframe
FNDA:36,_RNvNtNtNtCsNhz5SapXcJ_8hayabusa10detections4rule5count15judge_timeframe
FNDA:79,_RNCNvNtNtNtCsNhz5SapXcJ_8hayabusa10detections4rule5count15judge_timeframe0B9_
FNF:54
FNH:51
DA:20,115
DA:21,115
DA:22,115
DA:23,115
DA:24,115
DA:25,115
DA:26,115
DA:27,115
DA:28,115
DA:29,115
DA:30,115
DA:31,115
DA:32,115
DA:33,115
DA:34,115
DA:35,115
DA:36,0
DA:37,115
DA:38,115
DA:39,115
DA:40,115
DA:41,115
DA:43,115
DA:44,115
DA:45,115
DA:46,115
DA:47,115
DA:48,115
DA:49,115
DA:50,115
DA:51,115
DA:52,115
DA:53,115
DA:54,115
DA:55,115
DA:56,115
DA:57,115
DA:58,115
DA:59,115
DA:60,115
DA:63,115
DA:64,115
DA:65,115
DA:66,115
DA:67,115
DA:68,115
DA:69,115
DA:70,115
DA:71,115
DA:72,115
DA:73,115
DA:74,115
DA:79,124
DA:80,124
DA:81,124
DA:82,124
DA:83,124
DA:84,124
DA:85,124
DA:86,124
DA:87,124
DA:88,124
DA:89,4
DA:90,120
DA:91,120
DA:92,120
DA:94,0
DA:95,0
DA:96,0
DA:97,0
DA:98,0
DA:99,0
DA:100,0
DA:101,0
DA:102,0
DA:103,0
DA:104,0
DA:105,0
DA:106,0
DA:107,0
DA:108,0
DA:109,0
DA:110,0
DA:111,0
DA:112,0
DA:114,0
DA:115,0
DA:116,0
DA:117,0
DA:118,0
DA:119,0
DA:120,0
DA:121,0
DA:122,0
DA:123,0
DA:126,124
DA:131,115
DA:132,115
DA:133,115
DA:134,115
DA:135,115
DA:136,115
DA:137,115
DA:138,115
DA:139,115
DA:140,9
DA:141,9
DA:142,9
DA:143,9
DA:144,9
DA:145,9
DA:146,9
DA:147,9
DA:148,9
DA:149,9
DA:150,9
DA:152,106
DA:154,115
DA:157,35
DA:158,35
DA:159,35
DA:160,35
DA:161,35
DA:162,35
DA:163,35
DA:164,71
DA:165,36
DA:166,36
DA:167,35
DA:168,35
DA:171,29
DA:172,29
DA:173,29
DA:174,29
DA:175,29
DA:176,0
DA:177,0
DA:178,0
DA:179,29
DA:180,29
DA:181,29
DA:182,0
DA:183,0
DA:184,0
DA:185,0
DA:186,0
DA:187,0
DA:188,0
DA:189,0
DA:190,0
DA:193,0
DA:196,29
DA:197,29
DA:198,29
DA:216,33
DA:217,33
DA:218,33
DA:219,33
DA:220,11
DA:221,22
DA:222,7
DA:223,15
DA:224,11
DA:225,11
DA:226,4
DA:227,4
DA:228,0
DA:229,0
DA:230,0
DA:231,0
DA:232,0
DA:233,0
DA:234,0
DA:235,0
DA:236,0
DA:237,0
DA:239,33
DA:240,33
DA:241,33
DA:242,33
DA:243,33
DA:244,33
DA:245,33
DA:246,33
DA:250,36
DA:251,36
DA:252,36
DA:253,32
DA:254,32
DA:255,32
DA:256,4
DA:257,28
DA:258,12
DA:259,16
DA:260,6
DA:262,10
DA:265,0
DA:266,0
DA:267,0
DA:268,0
DA:269,0
DA:270,0
DA:271,0
DA:272,0
DA:273,0
DA:274,0
DA:275,0
DA:276,0
DA:279,36
DA:281,59
DA:282,59
DA:283,59
DA:284,0
DA:285,59
DA:286,59
DA:287,59
DA:288,59
DA:289,0
DA:290,59
DA:291,0
DA:292,0
DA:293,0
DA:294,0
DA:296,59
DA:299,0
DA:300,0
DA:301,0
DA:302,0
DA:303,0
DA:304,0
DA:305,0
DA:307,0
DA:309,0
DA:348,123
DA:349,123
DA:350,12
DA:351,111
DA:352,111
DA:353,111
DA:354,111
DA:355,111
DA:356,9
DA:357,9
DA:358,102
DA:359,102
DA:360,102
DA:361,123
DA:363,30
DA:364,30
DA:365,0
DA:366,30
DA:367,30
DA:368,30
DA:369,30
DA:370,30
DA:371,0
DA:372,30
DA:373,30
DA:374,30
DA:375,30
DA:376,21
DA:377,21
DA:378,21
DA:379,9
DA:380,9
DA:381,30
DA:383,56
DA:384,56
DA:385,56
DA:387,26
DA:388,26
DA:389,26
DA:390,26
DA:391,26
DA:392,26
DA:393,26
DA:394,26
DA:395,67
DA:396,26
DA:397,26
DA:398,26
DA:399,26
DA:400,26
DA:401,26
DA:402,26
DA:403,26
DA:414,4
DA:415,4
DA:416,0
DA:417,4
DA:418,4
DA:419,4
DA:420,4
DA:422,0
DA:423,0
DA:424,0
DA:425,0
DA:426,0
DA:427,0
DA:428,0
DA:430,3
DA:431,3
DA:432,3
DA:434,3
DA:435,3
DA:436,3
DA:437,3
DA:438,3
DA:439,3
DA:440,3
DA:441,3
DA:442,3
DA:443,3
DA:444,3
DA:445,3
DA:446,3
DA:447,3
DA:448,3
DA:449,3
DA:450,3
DA:451,3
DA:454,36
DA:455,36
DA:456,36
DA:457,34
DA:458,34
DA:459,34
DA:461,2
DA:463,36
DA:465,240
DA:466,240
DA:467,240
DA:469,240
DA:470,240
DA:471,240
DA:474,120
DA:475,120
DA:476,120
DA:477,120
DA:478,120
DA:479,120
DA:480,120
DA:481,4
DA:482,116
DA:483,120
DA:484,120
DA:487,36
DA:488,36
DA:489,36
DA:490,36
DA:491,36
DA:492,36
DA:493,36
DA:494,36
DA:495,0
DA:496,36
DA:497,36
DA:498,36
DA:499,36
DA:500,79
DA:501,36
DA:502,36
DA:503,36
DA:504,36
DA:505,36
DA:506,36
DA:507,36
DA:508,36
DA:509,36
DA:510,36
DA:511,36
DA:513,95
DA:515,156
DA:516,97
DA:517,97
DA:518,97
DA:520,59
DA:521,59
DA:522,29
DA:523,29
DA:524,29
DA:525,30
DA:526,30
DA:527,30
DA:528,30
DA:529,30
DA:530,30
DA:531,30
DA:534,36
DA:535,36
DA:578,69
DA:579,69
DA:580,69
DA:581,69
DA:582,69
DA:583,69
DA:584,69
DA:585,69
DA:586,69
DA:587,69
DA:588,69
DA:589,69
DA:590,69
DA:591,69
DA:592,69
DA:593,69
DA:594,69
DA:595,69
DA:596,69
DA:597,69
DA:598,69
DA:599,69
DA:600,69
DA:601,69
DA:602,69
DA:603,69
DA:604,69
DA:605,69
DA:606,69
DA:607,69
DA:608,69
DA:609,69
DA:610,69
DA:611,69
DA:612,69
DA:613,69
DA:614,69
DA:615,69
DA:616,69
DA:617,69
DA:618,69
DA:619,69
DA:620,69
DA:621,69
DA:622,69
DA:623,69
DA:624,69
DA:625,69
DA:626,69
DA:627,69
DA:628,69
DA:629,69
DA:630,69
DA:631,69
DA:632,69
DA:633,69
DA:634,69
DA:635,69
DA:636,69
DA:637,69
DA:638,69
DA:639,69
DA:640,69
DA:641,69
DA:642,69
DA:643,69
DA:644,69
DA:645,69
DA:646,69
DA:647,69
DA:651,1
DA:652,1
DA:653,1
DA:654,1
DA:655,1
DA:656,1
DA:657,1
DA:658,1
DA:659,1
DA:660,1
DA:661,1
DA:662,1
DA:663,1
DA:664,1
DA:665,1
DA:666,1
DA:667,1
DA:668,1
DA:669,1
DA:670,1
DA:671,1
DA:672,1
DA:673,1
DA:674,1
DA:675,1
DA:676,1
DA:677,1
DA:678,1
DA:679,1
DA:680,1
DA:681,1
DA:682,1
DA:683,1
DA:684,1
DA:685,1
DA:686,1
DA:687,1
DA:688,1
DA:689,1
DA:690,1
DA:691,1
DA:692,1
DA:693,1
DA:694,1
DA:695,1
DA:696,1
DA:697,1
DA:698,1
DA:702,1
DA:703,1
DA:704,1
DA:705,1
DA:706,1
DA:707,1
DA:708,1
DA:709,1
DA:710,1
DA:711,1
DA:712,1
DA:713,1
DA:714,1
DA:715,1
DA:716,1
DA:717,1
DA:718,1
DA:719,1
DA:720,1
DA:721,1
DA:722,1
DA:723,1
DA:724,1
DA:725,1
DA:726,1
DA:727,1
DA:728,1
DA:729,1
DA:730,1
DA:731,1
DA:732,1
DA:733,1
DA:734,1
DA:735,1
DA:736,1
DA:737,1
DA:738,1
DA:739,1
DA:740,1
DA:741,1
DA:742,1
DA:743,1
DA:744,1
DA:745,1
DA:746,1
DA:747,1
DA:748,1
DA:749,1
DA:750,1
DA:751,1
DA:752,1
DA:753,1
DA:754,1
DA:755,1
DA:756,1
DA:757,1
DA:758,1
DA:759,1
DA:763,1
DA:764,1
DA:765,1
DA:766,1
DA:767,1
DA:768,1
DA:769,1
DA:770,1
DA:771,1
DA:772,1
DA:773,1
DA:774,1
DA:775,1
DA:776,1
DA:777,1
DA:778,1
DA:779,1
DA:780,1
DA:781,1
DA:782,1
DA:783,1
DA:784,1
DA:785,1
DA:786,1
DA:787,1
DA:788,1
DA:789,1
DA:790,1
DA:791,1
DA:795,1
DA:796,1
DA:797,1
DA:798,1
DA:799,1
DA:800,1
DA:801,1
DA:802,1
DA:803,1
DA:804,1
DA:805,1
DA:806,1
DA:807,1
DA:808,1
DA:809,1
DA:810,1
DA:811,1
DA:812,1
DA:813,1
DA:814,1
DA:815,1
DA:816,1
DA:817,1
DA:818,1
DA:819,1
DA:820,1
DA:821,1
DA:822,1
DA:823,1
DA:824,1
DA:825,1
DA:826,1
DA:827,1
DA:828,1
DA:829,1
DA:830,1
DA:831,1
DA:832,1
DA:833,1
DA:834,1
DA:835,1
DA:836,1
DA:837,1
DA:838,1
DA:839,1
DA:840,1
DA:841,1
DA:842,1
DA:843,1
DA:844,1
DA:845,1
DA:846,1
DA:847,1
DA:848,1
DA:849,1
DA:853,1
DA:854,1
DA:855,1
DA:856,1
DA:857,1
DA:858,1
DA:859,1
DA:860,1
DA:861,1
DA:862,1
DA:863,1
DA:864,1
DA:865,1
DA:866,1
DA:867,1
DA:868,1
DA:869,1
DA:870,1
DA:871,1
DA:872,1
DA:873,1
DA:874,1
DA:875,1
DA:876,1
DA:877,1
DA:878,1
DA:879,1
DA:880,1
DA:881,1
DA:882,1
DA:883,1
DA:884,1
DA:885,1
DA:886,1
DA:887,1
DA:888,1
DA:889,1
DA:890,1
DA:891,1
DA:892,1
DA:893,1
DA:894,1
DA:895,1
DA:896,1
DA:897,1
DA:898,1
DA:899,1
DA:900,1
DA:901,1
DA:902,1
DA:903,1
DA:904,1
DA:905,1
DA:906,1
DA:907,1
DA:911,1
DA:912,1
DA:913,1
DA:914,1
DA:915,1
DA:916,1
DA:917,1
DA:918,1
DA:919,1
DA:920,1
DA:921,1
DA:922,1
DA:923,1
DA:924,1
DA:925,1
DA:926,1
DA:927,1
DA:928,1
DA:929,1
DA:930,1
DA:931,1
DA:932,1
DA:933,1
DA:934,1
DA:935,1
DA:936,1
DA:937,1
DA:938,1
DA:939,1
DA:940,1
DA:941,1
DA:942,1
DA:943,1
DA:944,1
DA:945,3
DA:946,2
DA:947,2
DA:948,2
DA:949,2
DA:950,2
DA:951,2
DA:952,2
DA:953,2
DA:954,2
DA:955,2
DA:956,2
DA:957,2
DA:958,2
DA:960,0
DA:965,1
DA:966,1
DA:967,1
DA:968,1
DA:969,1
DA:970,1
DA:971,1
DA:974,1
DA:975,1
DA:976,1
DA:977,1
DA:978,1
DA:979,1
DA:980,1
DA:981,1
DA:982,1
DA:983,1
DA:984,1
DA:985,1
DA:986,1
DA:987,1
DA:988,1
DA:989,1
DA:990,1
DA:991,1
DA:992,1
DA:993,1
DA:994,1
DA:995,1
DA:996,1
DA:997,1
DA:998,1
DA:999,1
DA:1000,1
DA:1001,1
DA:1002,1
DA:1003,1
DA:1004,1
DA:1005,1
DA:1006,1
DA:1007,1
DA:1008,1
DA:1009,1
DA:1010,1
DA:1011,1
DA:1012,1
DA:1013,1
DA:1014,1
DA:1015,1
DA:1016,1
DA:1017,1
DA:1018,1
DA:1019,1
DA:1023,1
DA:1024,1
DA:1025,1
DA:1026,1
DA:1027,1
DA:1028,1
DA:1029,1
DA:1030,1
DA:1031,1
DA:1032,1
DA:1033,1
DA:1034,1
DA:1035,1
DA:1036,1
DA:1037,1
DA:1038,1
DA:1039,1
DA:1040,1
DA:1041,1
DA:1042,1
DA:1043,1
DA:1044,1
DA:1045,1
DA:1046,1
DA:1047,1
DA:1048,1
DA:1049,1
DA:1050,1
DA:1051,1
DA:1052,1
DA:1053,1
DA:1054,1
DA:1055,1
DA:1056,1
DA:1057,1
DA:1058,1
DA:1059,1
DA:1060,1
DA:1061,1
DA:1062,1
DA:1063,1
DA:1064,1
DA:1065,1
DA:1066,1
DA:1067,1
DA:1068,1
DA:1069,1
DA:1073,1
DA:1074,1
DA:1075,1
DA:1076,1
DA:1077,1
DA:1078,1
DA:1079,1
DA:1080,1
DA:1081,1
DA:1082,1
DA:1083,1
DA:1084,1
DA:1085,1
DA:1086,1
DA:1087,1
DA:1088,1
DA:1089,1
DA:1090,1
DA:1091,1
DA:1092,1
DA:1093,1
DA:1094,1
DA:1095,1
DA:1096,1
DA:1097,1
DA:1098,1
DA:1099,1
DA:1100,1
DA:1101,1
DA:1102,1
DA:1103,1
DA:1107,1
DA:1108,1
DA:1109,1
DA:1110,1
DA:1111,1
DA:1112,1
DA:1113,1
DA:1114,1
DA:1115,1
DA:1116,1
DA:1117,1
DA:1118,1
DA:1119,1
DA:1120,1
DA:1121,1
DA:1122,1
DA:1123,1
DA:1124,1
DA:1125,1
DA:1126,1
DA:1127,1
DA:1128,1
DA:1129,1
DA:1130,1
DA:1131,1
DA:1132,1
DA:1133,1
DA:1134,1
DA:1135,1
DA:1136,1
DA:1137,1
DA:1141,1
DA:1142,1
DA:1143,1
DA:1144,1
DA:1145,1
DA:1146,1
DA:1147,1
DA:1148,1
DA:1149,1
DA:1150,1
DA:1151,1
DA:1152,1
DA:1153,1
DA:1154,1
DA:1155,1
DA:1156,1
DA:1157,1
DA:1158,1
DA:1159,1
DA:1160,1
DA:1161,1
DA:1162,1
DA:1163,1
DA:1164,1
DA:1165,1
DA:1166,1
DA:1167,1
DA:1168,1
DA:1169,1
DA:1170,1
DA:1171,1
DA:1172,1
DA:1173,1
DA:1174,1
DA:1175,1
DA:1176,1
DA:1177,1
DA:1178,1
DA:1179,1
DA:1180,1
DA:1181,1
DA:1182,1
DA:1183,1
DA:1184,1
DA:1185,1
DA:1186,1
DA:1187,1
DA:1188,1
DA:1189,1
DA:1190,1
DA:1191,1
DA:1192,1
DA:1193,1
DA:1194,1
DA:1195,1
DA:1196,1
DA:1197,1
DA:1198,1
DA:1199,1
DA:1200,1
DA:1201,1
DA:1202,1
DA:1203,1
DA:1204,1
DA:1205,1
DA:1206,1
DA:1207,1
DA:1208,1
DA:1209,1
DA:1210,1
DA:1211,1
DA:1215,1
DA:1216,1
DA:1217,1
DA:1218,1
DA:1219,1
DA:1220,1
DA:1221,1
DA:1222,1
DA:1223,1
DA:1224,1
DA:1225,1
DA:1226,1
DA:1227,1
DA:1228,1
DA:1229,1
DA:1230,1
DA:1231,1
DA:1232,1
DA:1233,1
DA:1234,1
DA:1235,1
DA:1236,1
DA:1237,1
DA:1238,1
DA:1239,1
DA:1240,1
DA:1241,1
DA:1242,1
DA:1243,1
DA:1244,1
DA:1245,1
DA:1249,1
DA:1250,1
DA:1251,1
DA:1252,1
DA:1253,1
DA:1254,1
DA:1255,1
DA:1256,1
DA:1257,1
DA:1258,1
DA:1259,1
DA:1260,1
DA:1261,1
DA:1262,1
DA:1263,1
DA:1264,1
DA:1265,1
DA:1266,1
DA:1267,1
DA:1268,1
DA:1269,1
DA:1270,1
DA:1271,1
DA:1272,1
DA:1273,1
DA:1274,1
DA:1275,1
DA:1276,1
DA:1277,1
DA:1278,1
DA:1279,1
DA:1283,1
DA:1284,1
DA:1285,1
DA:1286,1
DA:1287,1
DA:1288,1
DA:1289,1
DA:1290,1
DA:1291,1
DA:1292,1
DA:1293,1
DA:1294,1
DA:1295,1
DA:1296,1
DA:1297,1
DA:1298,1
DA:1299,1
DA:1300,1
DA:1301,1
DA:1302,1
DA:1303,1
DA:1304,1
DA:1305,1
DA:1306,1
DA:1307,1
DA:1308,1
DA:1309,1
DA:1310,1
DA:1311,1
DA:1312,1
DA:1313,1
DA:1314,1
DA:1315,1
DA:1316,1
DA:1317,1
DA:1318,1
DA:1319,1
DA:1323,1
DA:1324,1
DA:1325,1
DA:1326,1
DA:1327,1
DA:1328,1
DA:1329,1
DA:1330,1
DA:1331,1
DA:1332,1
DA:1333,1
DA:1334,1
DA:1335,1
DA:1336,1
DA:1337,1
DA:1338,1
DA:1339,1
DA:1340,1
DA:1341,1
DA:1342,1
DA:1343,1
DA:1344,1
DA:1345,1
DA:1346,1
DA:1347,1
DA:1348,1
DA:1349,1
DA:1350,1
DA:1351,1
DA:1352,1
DA:1353,1
DA:1354,1
DA:1355,1
DA:1356,1
DA:1357,1
DA:1358,1
DA:1359,1
DA:1363,1
DA:1364,1
DA:1365,1
DA:1366,1
DA:1367,1
DA:1368,1
DA:1369,1
DA:1370,1
DA:1371,1
DA:1375,1
DA:1376,1
DA:1377,1
DA:1378,1
DA:1379,1
DA:1380,1
DA:1381,1
DA:1382,1
DA:1383,1
DA:1384,1
DA:1385,1
DA:1386,1
DA:1387,1
DA:1388,1
DA:1389,1
DA:1390,1
DA:1391,1
DA:1392,1
DA:1393,1
DA:1394,1
DA:1395,1
DA:1396,1
DA:1397,1
DA:1398,1
DA:1399,1
DA:1400,1
DA:1401,1
DA:1402,1
DA:1403,1
DA:1404,1
DA:1405,1
DA:1406,1
DA:1407,1
DA:1408,1
DA:1409,1
DA:1410,1
DA:1411,1
DA:1412,1
DA:1413,1
DA:1414,1
DA:1415,1
DA:1416,1
DA:1417,1
DA:1418,1
DA:1419,1
DA:1420,1
DA:1421,1
DA:1436,1
DA:1437,1
DA:1438,1
DA:1439,1
DA:1440,1
DA:1441,1
DA:1442,1
DA:1443,1
DA:1444,1
DA:1445,1
DA:1446,1
DA:1447,1
DA:1448,1
DA:1449,1
DA:1450,1
DA:1451,1
DA:1452,1
DA:1453,1
DA:1454,1
DA:1455,1
DA:1456,1
DA:1457,1
DA:1458,1
DA:1462,1
DA:1463,1
DA:1464,1
DA:1465,1
DA:1466,1
DA:1467,1
DA:1468,1
DA:1469,1
DA:1470,1
DA:1471,1
DA:1472,1
DA:1473,1
DA:1474,1
DA:1475,1
DA:1476,1
DA:1477,1
DA:1478,1
DA:1479,1
DA:1483,1
DA:1484,1
DA:1485,1
DA:1486,1
DA:1487,1
DA:1488,1
DA:1489,1
DA:1490,1
DA:1491,1
DA:1492,1
DA:1493,1
DA:1494,1
DA:1495,1
DA:1496,1
DA:1497,1
DA:1498,1
DA:1499,1
DA:1500,1
DA:1501,1
DA:1502,1
DA:1503,1
DA:1504,1
DA:1505,1
DA:1506,1
DA:1507,1
DA:1508,1
DA:1509,1
DA:1510,1
DA:1511,1
DA:1516,1
DA:1517,1
DA:1518,1
DA:1519,1
DA:1520,1
DA:1521,1
DA:1522,1
DA:1523,1
DA:1524,1
DA:1525,1
DA:1526,1
DA:1527,1
DA:1528,1
DA:1529,1
DA:1530,1
DA:1531,1
DA:1532,1
DA:1533,1
DA:1534,1
DA:1535,1
DA:1536,1
DA:1537,1
DA:1538,1
DA:1539,1
DA:1540,1
DA:1541,1
DA:1542,1
DA:1543,1
DA:1544,1
DA:1545,1
DA:1546,1
DA:1547,1
DA:1552,1
DA:1553,1
DA:1554,1
DA:1555,1
DA:1556,1
DA:1557,1
DA:1558,1
DA:1559,1
DA:1560,1
DA:1561,1
DA:1562,1
DA:1563,1
DA:1564,1
DA:1565,1
DA:1566,1
DA:1567,1
DA:1568,1
DA:1569,1
DA:1570,1
DA:1571,1
DA:1572,1
DA:1573,1
DA:1574,1
DA:1575,1
DA:1576,1
DA:1577,1
DA:1578,1
DA:1579,1
DA:1580,1
DA:1581,1
DA:1582,1
DA:1583,1
DA:1584,1
DA:1585,1
DA:1586,1
DA:1587,1
DA:1588,1
DA:1589,1
DA:1590,1
DA:1591,1
DA:1592,1
DA:1593,1
DA:1594,1
DA:1595,1
DA:1596,1
DA:1597,1
DA:1598,1
DA:1599,1
DA:1600,1
DA:1601,1
DA:1602,1
DA:1603,1
DA:1604,1
DA:1605,1
DA:1606,1
DA:1607,1
DA:1608,1
DA:1609,1
DA:1610,1
DA:1611,1
DA:1612,1
DA:1613,1
DA:1614,1
DA:1621,1
DA:1622,1
DA:1623,1
DA:1624,1
DA:1625,1
DA:1626,1
DA:1627,1
DA:1628,1
DA:1629,1
DA:1630,1
DA:1631,1
DA:1632,1
DA:1633,1
DA:1634,1
DA:1635,1
DA:1636,1
DA:1637,1
DA:1638,1
DA:1639,1
DA:1640,1
DA:1641,1
DA:1642,1
DA:1643,1
DA:1644,1
DA:1645,1
DA:1646,1
DA:1647,1
DA:1648,1
DA:1649,1
DA:1650,1
DA:1651,1
DA:1652,1
DA:1653,1
DA:1654,1
DA:1655,1
DA:1656,1
DA:1657,1
DA:1658,1
DA:1659,1
DA:1660,1
DA:1661,1
DA:1662,1
DA:1664,66
DA:1665,66
DA:1666,66
DA:1668,66
DA:1669,66
DA:1670,66
DA:1671,66
DA:1672,66
DA:1673,66
DA:1674,66
DA:1675,66
DA:1676,66
DA:1677,66
DA:1678,66
DA:1679,66
DA:1680,66
DA:1681,66
DA:1682,66
DA:1683,66
DA:1684,66
DA:1685,66
DA:1686,66
DA:1687,66
DA:1689,27
DA:1690,27
DA:1691,27
DA:1692,27
DA:1693,27
DA:1694,27
DA:1695,27
DA:1696,27
DA:1697,27
DA:1698,27
DA:1699,27
DA:1700,27
DA:1701,27
DA:1702,27
DA:1705,34
DA:1706,34
DA:1707,34
DA:1708,34
DA:1709,34
DA:1710,34
DA:1711,34
DA:1712,34
DA:1713,34
DA:1714,34
DA:1715,34
DA:1716,0
DA:1717,34
DA:1718,34
DA:1719,34
DA:1721,147
DA:1722,113
DA:1723,113
DA:1724,113
DA:1725,113
DA:1726,113
DA:1727,113
DA:1728,113
DA:1729,113
DA:1730,113
DA:1731,113
DA:1732,113
DA:1733,113
DA:1734,113
DA:1735,113
DA:1736,113
DA:1737,113
DA:1738,113
DA:1739,113
DA:1741,0
DA:1742,0
DA:1746,34
DA:1747,34
DA:1749,34
DA:1750,34
DA:1751,34
DA:1752,34
DA:1753,34
DA:1754,63
DA:1755,29
DA:1756,29
DA:1757,29
DA:1758,29
DA:1759,29
DA:1760,29
DA:1761,29
DA:1762,29
DA:1763,29
DA:1764,29
DA:1765,29
DA:1767,63
DA:1768,29
DA:1769,29
DA:1770,29
DA:1771,29
DA:1772,29
DA:1773,29
DA:1774,29
DA:1775,29
DA:1776,67
DA:1779,67
DA:1781,29
DA:1783,34
BRF:0
BRH:0
LF:1494
LH:1398
end_of_record
SF:D:\opensource\hayabusa\src\detections\rule\matchers.rs
FN:39,_RNvMNtNtNtCs5DPfXlAluY4_8hayabusa10detections4rule8matchersNtB2_16MinlengthMatcher3new
FN:45,_RNvXs_NtNtNtCs5DPfXlAluY4_8hayabusa10detections4rule8matchersNtB4_16MinlengthMatcherNtB4_11LeafMatcher13is_target_key
FN:53,_RNvXs_NtNtNtCs5DPfXlAluY4_8hayabusa10detections4rule8matchersNtB4_16MinlengthMatcherNtB4_11LeafMatcher4init
FN:67,_RNvXs_NtNtNtCs5DPfXlAluY4_8hayabusa10detections4rule8matchersNtB4_16MinlengthMatcherNtB4_11LeafMatcher8is_match
FN:82,_RNvMs0_NtNtNtCs5DPfXlAluY4_8hayabusa10detections4rule8matchersNtB5_18RegexesFileMatcher3new
FN:88,_RNvXs1_NtNtNtCs5DPfXlAluY4_8hayabusa10detections4rule8matchersNtB5_18RegexesFileMatcherNtB5_11LeafMatcher13is_target_key
FN:96,_RNvXs1_NtNtNtCs5DPfXlAluY4_8hayabusa10detections4rule8matchersNtB5_18RegexesFileMatcherNtB5_11LeafMatcher4init
FN:116,_RNCNvXs1_NtNtNtCs5DPfXlAluY4_8hayabusa10detections4rule8matchersNtB7_18RegexesFileMatcherNtB7_11LeafMatcher4init0Bd_
FN:122,_RNvXs1_NtNtNtCs5DPfXlAluY4_8hayabusa10detections4rule8matchersNtB5_18RegexesFileMatcherNtB5_11LeafMatcher8is_match
FN:137,_RNvMs2_NtNtNtCs5DPfXlAluY4_8hayabusa10detections4rule8matchersNtB5_20AllowlistFileMatcher3new
FN:143,_RNvXs3_NtNtNtCs5DPfXlAluY4_8hayabusa10detections4rule8matchersNtB5_20AllowlistFileMatcherNtB5_11LeafMatcher13is_target_key
FN:151,_RNvXs3_NtNtNtCs5DPfXlAluY4_8hayabusa10detections4rule8matchersNtB5_20AllowlistFileMatcherNtB5_11LeafMatcher4init
FN:173,_RNCNvXs3_NtNtNtCs5DPfXlAluY4_8hayabusa10detections4rule8matchersNtB7_20AllowlistFileMatcherNtB7_11LeafMatcher4init0Bd_
FN:179,_RNvXs3_NtNtNtCs5DPfXlAluY4_8hayabusa10detections4rule8matchersNtB5_20AllowlistFileMatcherNtB5_11LeafMatcher8is_match
FN:207,_RNvMs4_NtNtNtCs5DPfXlAluY4_8hayabusa10detections4rule8matchersNtB5_14DefaultMatcher3new
FN:216,_RNvMs4_NtNtNtCs5DPfXlAluY4_8hayabusa10detections4rule8matchersNtB5_14DefaultMatcher15get_eqfield_key
FN:222,_RNvMs4_NtNtNtCs5DPfXlAluY4_8hayabusa10detections4rule8matchersNtB5_14DefaultMatcher18is_regex_fullmatch
FN:228,_RNvMs4_NtNtNtCs5DPfXlAluY4_8hayabusa10detections4rule8matchersNtB5_14DefaultMatcher25from_pattern_to_regex_str
FN:232,_RNCNvMs4_NtNtNtCs5DPfXlAluY4_8hayabusa10detections4rule8matchersNtB7_14DefaultMatcher25from_pattern_to_regex_str0Bd_
FN:235,_RNvMs4_NtNtNtCs5DPfXlAluY4_8hayabusa10detections4rule8matchersNtB5_14DefaultMatcher14eq_ignore_case
FN:242,_RNvMs4_NtNtNtCs5DPfXlAluY4_8hayabusa10detections4rule8matchersNtB5_14DefaultMatcher23starts_with_ignore_case
FN:255,_RNvMs4_NtNtNtCs5DPfXlAluY4_8hayabusa10detections4rule8matchersNtB5_14DefaultMatcher21ends_with_ignore_case
FN:270,_RNvMs4_NtNtNtCs5DPfXlAluY4_8hayabusa10detections4rule8matchersNtB5_14DefaultMatcher21convert_to_fast_match
FN:271,_RNCNvMs4_NtNtNtCs5DPfXlAluY4_8hayabusa10detections4rule8matchersNtB7_14DefaultMatcher21convert_to_fast_match0Bd_
FN:272,_RNCNvMs4_NtNtNtCs5DPfXlAluY4_8hayabusa10detections4rule8matchersNtB7_14DefaultMatcher21convert_to_fast_matchs_0Bd_
FN:314,_RNvXs5_NtNtNtCs5DPfXlAluY4_8hayabusa10detections4rule8matchersNtB5_14DefaultMatcherNtB5_11LeafMatcher13is_target_key
FN:322,_RNvXs5_NtNtNtCs5DPfXlAluY4_8hayabusa10detections4rule8matchersNtB5_14DefaultMatcherNtB5_11LeafMatcher4init
FN:409,_RNCNvXs5_NtNtNtCs5DPfXlAluY4_8hayabusa10detections4rule8matchersNtB7_14DefaultMatcherNtB7_11LeafMatcher4init0Bd_
FN:411,_RNCNvXs5_NtNtNtCs5DPfXlAluY4_8hayabusa10detections4rule8matchersNtB7_14DefaultMatcherNtB7_11LeafMatcher4inits_0Bd_
FN:483,_RNCNvXs5_NtNtNtCs5DPfXlAluY4_8hayabusa10detections4rule8matchersNtB7_14DefaultMatcherNtB7_11LeafMatcher4inits0_0Bd_
FN:495,_RNCNvXs5_NtNtNtCs5DPfXlAluY4_8hayabusa10detections4rule8matchersNtB7_14DefaultMatcherNtB7_11LeafMatcher4inits1_0Bd_
FN:517,_RNvXs5_NtNtNtCs5DPfXlAluY4_8hayabusa10detections4rule8matchersNtB5_14DefaultMatcherNtB5_11LeafMatcher8is_match
FN:577,_RNCNvXs5_NtNtNtCs5DPfXlAluY4_8hayabusa10detections4rule8matchersNtB7_14DefaultMatcherNtB7_11LeafMatcher8is_match0Bd_
FN:609,_RNvMs6_NtNtNtCs5DPfXlAluY4_8hayabusa10detections4rule8matchersNtB5_11PipeElement3new
FN:634,_RNvMs6_NtNtNtCs5DPfXlAluY4_8hayabusa10detections4rule8matchersNtB5_11PipeElement11get_eqfield
FN:642,_RNvMs6_NtNtNtCs5DPfXlAluY4_8hayabusa10detections4rule8matchersNtB5_11PipeElement16is_eqfield_match
FN:669,_RNvMs6_NtNtNtCs5DPfXlAluY4_8hayabusa10detections4rule8matchersNtB5_11PipeElement12pipe_pattern
FN:671,_RNCNvMs6_NtNtNtCs5DPfXlAluY4_8hayabusa10detections4rule8matchersNtB7_11PipeElement12pipe_pattern0Bd_
FN:686,_RNCNvMs6_NtNtNtCs5DPfXlAluY4_8hayabusa10detections4rule8matchersNtB7_11PipeElement12pipe_patterns_0Bd_
FN:713,_RNvMs6_NtNtNtCs5DPfXlAluY4_8hayabusa10detections4rule8matchersNtB5_11PipeElement21pipe_pattern_wildcard
FN:769,_RNCNvMs6_NtNtNtCs5DPfXlAluY4_8hayabusa10detections4rule8matchersNtB7_11PipeElement21pipe_pattern_wildcard0Bd_
FN:39,_RNvMNtNtNtCsNhz5SapXcJ_8hayabusa10detections4rule8matchersNtB2_16MinlengthMatcher3new
FN:45,_RNvXs_NtNtNtCsNhz5SapXcJ_8hayabusa10detections4rule8matchersNtB4_16MinlengthMatcherNtB4_11LeafMatcher13is_target_key
FN:53,_RNvXs_NtNtNtCsNhz5SapXcJ_8hayabusa10detections4rule8matchersNtB4_16MinlengthMatcherNtB4_11LeafMatcher4init
FN:67,_RNvXs_NtNtNtCsNhz5SapXcJ_8hayabusa10detections4rule8matchersNtB4_16MinlengthMatcherNtB4_11LeafMatcher8is_match
FN:82,_RNvMs0_NtNtNtCsNhz5SapXcJ_8hayabusa10detections4rule8matchersNtB5_18RegexesFileMatcher3new
FN:88,_RNvXs1_NtNtNtCsNhz5SapXcJ_8hayabusa10detections4rule8matchersNtB5_18RegexesFileMatcherNtB5_11LeafMatcher13is_target_key
FN:96,_RNvXs1_NtNtNtCsNhz5SapXcJ_8hayabusa10detections4rule8matchersNtB5_18RegexesFileMatcherNtB5_11LeafMatcher4init
FN:116,_RNCNvXs1_NtNtNtCsNhz5SapXcJ_8hayabusa10detections4rule8matchersNtB7_18RegexesFileMatcherNtB7_11LeafMatcher4init0Bd_
FN:122,_RNvXs1_NtNtNtCsNhz5SapXcJ_8hayabusa10detections4rule8matchersNtB5_18RegexesFileMatcherNtB5_11LeafMatcher8is_match
FN:137,_RNvMs2_NtNtNtCsNhz5SapXcJ_8hayabusa10detections4rule8matchersNtB5_20AllowlistFileMatcher3new
FN:143,_RNvXs3_NtNtNtCsNhz5SapXcJ_8hayabusa10detections4rule8matchersNtB5_20AllowlistFileMatcherNtB5_11LeafMatcher13is_target_key
FN:151,_RNvXs3_NtNtNtCsNhz5SapXcJ_8hayabusa10detections4rule8matchersNtB5_20AllowlistFileMatcherNtB5_11LeafMatcher4init
FN:173,_RNCNvXs3_NtNtNtCsNhz5SapXcJ_8hayabusa10detections4rule8matchersNtB7_20AllowlistFileMatcherNtB7_11LeafMatcher4init0Bd_
FN:179,_RNvXs3_NtNtNtCsNhz5SapXcJ_8hayabusa10detections4rule8matchersNtB5_20AllowlistFileMatcherNtB5_11LeafMatcher8is_match
FN:207,_RNvMs4_NtNtNtCsNhz5SapXcJ_8hayabusa10detections4rule8matchersNtB5_14DefaultMatcher3new
FN:216,_RNvMs4_NtNtNtCsNhz5SapXcJ_8hayabusa10detections4rule8matchersNtB5_14DefaultMatcher15get_eqfield_key
FN:222,_RNvMs4_NtNtNtCsNhz5SapXcJ_8hayabusa10detections4rule8matchersNtB5_14DefaultMatcher18is_regex_fullmatch
FN:228,_RNvMs4_NtNtNtCsNhz5SapXcJ_8hayabusa10detections4rule8matchersNtB5_14DefaultMatcher25from_pattern_to_regex_str
FN:232,_RNCNvMs4_NtNtNtCsNhz5SapXcJ_8hayabusa10detections4rule8matchersNtB7_14DefaultMatcher25from_pattern_to_regex_str0Bd_
FN:235,_RNvMs4_NtNtNtCsNhz5SapXcJ_8hayabusa10detections4rule8matchersNtB5_14DefaultMatcher14eq_ignore_case
FN:242,_RNvMs4_NtNtNtCsNhz5SapXcJ_8hayabusa10detections4rule8matchersNtB5_14DefaultMatcher23starts_with_ignore_case
FN:255,_RNvMs4_NtNtNtCsNhz5SapXcJ_8hayabusa10detections4rule8matchersNtB5_14DefaultMatcher21ends_with_ignore_case
FN:270,_RNvMs4_NtNtNtCsNhz5SapXcJ_8hayabusa10detections4rule8matchersNtB5_14DefaultMatcher21convert_to_fast_match
FN:271,_RNCNvMs4_NtNtNtCsNhz5SapXcJ_8hayabusa10detections4rule8matchersNtB7_14DefaultMatcher21convert_to_fast_match0Bd_
FN:272,_RNCNvMs4_NtNtNtCsNhz5SapXcJ_8hayabusa10detections4rule8matchersNtB7_14DefaultMatcher21convert_to_fast_matchs_0Bd_
FN:314,_RNvXs5_NtNtNtCsNhz5SapXcJ_8hayabusa10detections4rule8matchersNtB5_14DefaultMatcherNtB5_11LeafMatcher13is_target_key
FN:322,_RNvXs5_NtNtNtCsNhz5SapXcJ_8hayabusa10detections4rule8matchersNtB5_14DefaultMatcherNtB5_11LeafMatcher4init
FN:409,_RNCNvXs5_NtNtNtCsNhz5SapXcJ_8hayabusa10detections4rule8matchersNtB7_14DefaultMatcherNtB7_11LeafMatcher4init0Bd_
FN:411,_RNCNvXs5_NtNtNtCsNhz5SapXcJ_8hayabusa10detections4rule8matchersNtB7_14DefaultMatcherNtB7_11LeafMatcher4inits_0Bd_
FN:483,_RNCNvXs5_NtNtNtCsNhz5SapXcJ_8hayabusa10detections4rule8matchersNtB7_14DefaultMatcherNtB7_11LeafMatcher4inits0_0Bd_
FN:495,_RNCNvXs5_NtNtNtCsNhz5SapXcJ_8hayabusa10detections4rule8matchersNtB7_14DefaultMatcherNtB7_11LeafMatcher4inits1_0Bd_
FN:517,_RNvXs5_NtNtNtCsNhz5SapXcJ_8hayabusa10detections4rule8matchersNtB5_14DefaultMatcherNtB5_11LeafMatcher8is_match
FN:577,_RNCNvXs5_NtNtNtCsNhz5SapXcJ_8hayabusa10detections4rule8matchersNtB7_14DefaultMatcherNtB7_11LeafMatcher8is_match0Bd_
FN:609,_RNvMs6_NtNtNtCsNhz5SapXcJ_8hayabusa10detections4rule8matchersNtB5_11PipeElement3new
FN:634,_RNvMs6_NtNtNtCsNhz5SapXcJ_8hayabusa10detections4rule8matchersNtB5_11PipeElement11get_eqfield
FN:642,_RNvMs6_NtNtNtCsNhz5SapXcJ_8hayabusa10detections4rule8matchersNtB5_11PipeElement16is_eqfield_match
FN:669,_RNvMs6_NtNtNtCsNhz5SapXcJ_8hayabusa10detections4rule8matchersNtB5_11PipeElement12pipe_pattern
FN:671,_RNCNvMs6_NtNtNtCsNhz5SapXcJ_8hayabusa10detections4rule8matchersNtB7_11PipeElement12pipe_pattern0Bd_
FN:686,_RNCNvMs6_NtNtNtCsNhz5SapXcJ_8hayabusa10detections4rule8matchersNtB7_11PipeElement12pipe_patterns_0Bd_
FN:713,_RNvMs6_NtNtNtCsNhz5SapXcJ_8hayabusa10detections4rule8matchersNtB5_11PipeElement21pipe_pattern_wildcard
FN:769,_RNCNvMs6_NtNtNtCsNhz5SapXcJ_8hayabusa10detections4rule8matchersNtB7_11PipeElement21pipe_pattern_wildcard0Bd_
FN:812,_RNvNtNtNtNtCsNhz5SapXcJ_8hayabusa10detections4rule8matchers5tests12check_select
FN:908,_RNvNtNtNtNtCsNhz5SapXcJ_8hayabusa10detections4rule8matchers5testss_15test_rule_parse
FN:1112,_RNvNtNtNtNtCsNhz5SapXcJ_8hayabusa10detections4rule8matchers5testss_28test_notdetect_regex_eventid
FN:1132,_RNvNtNtNtNtCsNhz5SapXcJ_8hayabusa10detections4rule8matchers5testss_29test_notdetect_regex_eventid2
FN:1152,_RNvNtNtNtNtCsNhz5SapXcJ_8hayabusa10detections4rule8matchers5testss_25test_detect_regex_eventid
FN:1172,_RNvNtNtNtNtCsNhz5SapXcJ_8hayabusa10detections4rule8matchers5testss_24test_notdetect_regex_str
FN:1193,_RNvNtNtNtNtCsNhz5SapXcJ_8hayabusa10detections4rule8matchers5testss_25test_notdetect_regex_str2
FN:1214,_RNvNtNtNtNtCsNhz5SapXcJ_8hayabusa10detections4rule8matchers5testss_21test_detect_regex_str
FN:1234,_RNvNtNtNtNtCsNhz5SapXcJ_8hayabusa10detections4rule8matchers5testss_29test_notdetect_regex_emptystr
FN:1254,_RNvNtNtNtNtCsNhz5SapXcJ_8hayabusa10detections4rule8matchers5testss_21test_notdetect_minlen
FN:1275,_RNvNtNtNtNtCsNhz5SapXcJ_8hayabusa10detections4rule8matchers5testss_18test_detect_minlen
FN:1296,_RNvNtNtNtNtCsNhz5SapXcJ_8hayabusa10detections4rule8matchers5testss_19test_detect_minlen2
FN:1317,_RNvNtNtNtNtCsNhz5SapXcJ_8hayabusa10detections4rule8matchers5testss_22test_detect_minlen_and
FN:1338,_RNvNtNtNtNtCsNhz5SapXcJ_8hayabusa10detections4rule8matchers5testss_25test_notdetect_minlen_and
FN:1359,_RNvNtNtNtNtCsNhz5SapXcJ_8hayabusa10detections4rule8matchers5testss_17test_detect_regex
FN:1379,_RNvNtNtNtNtCsNhz5SapXcJ_8hayabusa10detections4rule8matchers5testss_31test_detect_regex_partial_match
FN:1399,_RNvNtNtNtNtCsNhz5SapXcJ_8hayabusa10detections4rule8matchers5testss_19test_detect_regexes
FN:1423,_RNvNtNtNtNtCsNhz5SapXcJ_8hayabusa10detections4rule8matchers5testss_21test_detect_allowlist
FN:1447,_RNvNtNtNtNtCsNhz5SapXcJ_8hayabusa10detections4rule8matchers5testss_22test_detect_allowlist2
FN:1469,_RNvNtNtNtNtCsNhz5SapXcJ_8hayabusa10detections4rule8matchers5testss_23test_detect_startswith1
FN:1501,_RNvNtNtNtNtCsNhz5SapXcJ_8hayabusa10detections4rule8matchers5testss_23test_detect_startswith2
FN:1533,_RNvNtNtNtNtCsNhz5SapXcJ_8hayabusa10detections4rule8matchers5testss_39test_detect_startswith_case_insensitive
FN:1564,_RNvNtNtNtNtCsNhz5SapXcJ_8hayabusa10detections4rule8matchers5testss_21test_detect_endswith1
FN:1596,_RNvNtNtNtNtCsNhz5SapXcJ_8hayabusa10detections4rule8matchers5testss_21test_detect_endswith2
FN:1627,_RNvNtNtNtNtCsNhz5SapXcJ_8hayabusa10detections4rule8matchers5testss_37test_detect_endswith_case_insensitive
FN:1658,_RNvNtNtNtNtCsNhz5SapXcJ_8hayabusa10detections4rule8matchers5testss_21test_detect_contains1
FN:1690,_RNvNtNtNtNtCsNhz5SapXcJ_8hayabusa10detections4rule8matchers5testss_21test_detect_contains2
FN:1722,_RNvNtNtNtNtCsNhz5SapXcJ_8hayabusa10detections4rule8matchers5testss_37test_detect_contains_case_insensitive
FN:1753,_RNvNtNtNtNtCsNhz5SapXcJ_8hayabusa10detections4rule8matchers5testss_30test_detect_wildcard_multibyte
FN:1773,_RNvNtNtNtNtCsNhz5SapXcJ_8hayabusa10detections4rule8matchers5testss_40test_detect_wildcard_multibyte_notdetect
FN:1792,_RNvNtNtNtNtCsNhz5SapXcJ_8hayabusa10detections4rule8matchers5testss_30test_wildcard_case_insensitive
FN:1812,_RNvNtNtNtNtCsNhz5SapXcJ_8hayabusa10detections4rule8matchers5testss_35test_pipe_pattern_wildcard_asterisk
FN:1818,_RNvNtNtNtNtCsNhz5SapXcJ_8hayabusa10detections4rule8matchers5testss_36test_pipe_pattern_wildcard_asterisk2
FN:1826,_RNvNtNtNtNtCsNhz5SapXcJ_8hayabusa10detections4rule8matchers5testss_36test_pipe_pattern_wildcard_asterisk3
FN:1837,_RNvNtNtNtNtCsNhz5SapXcJ_8hayabusa10detections4rule8matchers5testss_35test_pipe_pattern_wildcard_question
FN:1843,_RNvNtNtNtNtCsNhz5SapXcJ_8hayabusa10detections4rule8matchers5testss_36test_pipe_pattern_wildcard_question2
FN:1849,_RNvNtNtNtNtCsNhz5SapXcJ_8hayabusa10detections4rule8matchers5testss_36test_pipe_pattern_wildcard_question3
FN:1855,_RNvNtNtNtNtCsNhz5SapXcJ_8hayabusa10detections4rule8matchers5testss_36test_pipe_pattern_wildcard_backshash
FN:1861,_RNvNtNtNtNtCsNhz5SapXcJ_8hayabusa10detections4rule8matchers5testss_32test_pipe_pattern_wildcard_mixed
FN:1870,_RNvNtNtNtNtCsNhz5SapXcJ_8hayabusa10detections4rule8matchers5testss_42test_pipe_pattern_wildcard_many_backshashs
FN:1879,_RNvNtNtNtNtCsNhz5SapXcJ_8hayabusa10detections4rule8matchers5testss_15test_grep_match
FN:1898,_RNvNtNtNtNtCsNhz5SapXcJ_8hayabusa10detections4rule8matchers5testss_19test_grep_not_match
FN:1918,_RNvNtNtNtNtCsNhz5SapXcJ_8hayabusa10detections4rule8matchers5testss_25test_detect_value_keyword
FN:1940,_RNvNtNtNtNtCsNhz5SapXcJ_8hayabusa10detections4rule8matchers5testss_28test_notdetect_value_keyword
FN:1962,_RNvNtNtNtNtCsNhz5SapXcJ_8hayabusa10detections4rule8matchers5testss_19test_endswith_field
FN:1981,_RNvNtNtNtNtCsNhz5SapXcJ_8hayabusa10detections4rule8matchers5testss_20test_endswith_field2
FN:2000,_RNvNtNtNtNtCsNhz5SapXcJ_8hayabusa10detections4rule8matchers5testss_35test_endswith_field_caseinsensitive
FN:2019,_RNvNtNtNtNtCsNhz5SapXcJ_8hayabusa10detections4rule8matchers5testss_36test_endswith_field_caseinsensitive2
FN:2038,_RNvNtNtNtNtCsNhz5SapXcJ_8hayabusa10detections4rule8matchers5testss_29test_endswith_field_notdetect
FN:2057,_RNvNtNtNtNtCsNhz5SapXcJ_8hayabusa10detections4rule8matchers5testss_30test_endswith_field_notdetect2
FN:2076,_RNvNtNtNtNtCsNhz5SapXcJ_8hayabusa10detections4rule8matchers5testss_13test_eq_field
FN:2095,_RNvNtNtNtNtCsNhz5SapXcJ_8hayabusa10detections4rule8matchers5testss_23test_eq_field_notdetect
FN:2113,_RNvNtNtNtNtCsNhz5SapXcJ_8hayabusa10detections4rule8matchers5testss_24test_eq_field_emptyfield
FN:2148,_RNvNtNtNtNtCsNhz5SapXcJ_8hayabusa10detections4rule8matchers5testss_15test_field_null
FN:2170,_RNvNtNtNtNtCsNhz5SapXcJ_8hayabusa10detections4rule8matchers5testss_26test_field_null_not_detect
FN:2189,_RNvNtNtNtNtCsNhz5SapXcJ_8hayabusa10detections4rule8matchers5testss_35test_wildcard_converted_starts_with
FN:2208,_RNvNtNtNtNtCsNhz5SapXcJ_8hayabusa10detections4rule8matchers5testss_45test_wildcard_converted_starts_with_notdetect
FN:2227,_RNvNtNtNtNtCsNhz5SapXcJ_8hayabusa10detections4rule8matchers5testss_45test_wildcard_converted_starts_with_exact_val
FN:2246,_RNvNtNtNtNtCsNhz5SapXcJ_8hayabusa10detections4rule8matchers5testss_57test_wildcard_converted_starts_with_shorter_val_notdetect
FN:2265,_RNvNtNtNtNtCsNhz5SapXcJ_8hayabusa10detections4rule8matchers5testss_46test_wildcard_converted_starts_with_multibytes
FN:2284,_RNvNtNtNtNtCsNhz5SapXcJ_8hayabusa10detections4rule8matchers5testss_33test_wildcard_converted_ends_with
FN:2303,_RNvNtNtNtNtCsNhz5SapXcJ_8hayabusa10detections4rule8matchers5testss_55test_wildcard_converted_ends_with_starts_with_exact_val
FN:2322,_RNvNtNtNtNtCsNhz5SapXcJ_8hayabusa10detections4rule8matchers5testss_55test_wildcard_converted_ends_with_shorter_val_notdetect
FN:2341,_RNvNtNtNtNtCsNhz5SapXcJ_8hayabusa10detections4rule8matchers5testss_18test_only_wildcard
FN:2360,_RNvNtNtNtNtCsNhz5SapXcJ_8hayabusa10detections4rule8matchers5testss_18test_two_wildcards
FN:2379,_RNvNtNtNtNtCsNhz5SapXcJ_8hayabusa10detections4rule8matchers5testss_19test_eq_ignore_case
FN:2387,_RNvNtNtNtNtCsNhz5SapXcJ_8hayabusa10detections4rule8matchers5testss_28test_starts_with_ignore_case
FN:2395,_RNvNtNtNtNtCsNhz5SapXcJ_8hayabusa10detections4rule8matchers5testss_26test_ends_with_ignore_case
FN:2403,_RNvNtNtNtNtCsNhz5SapXcJ_8hayabusa10detections4rule8matchers5testss_26test_convert_to_fast_match
FN:2441,_RNvNtNtNtNtCsNhz5SapXcJ_8hayabusa10detections4rule8matchers5testss_26test_base64offset_contains
FN:2461,_RNvNtNtNtNtCsNhz5SapXcJ_8hayabusa10detections4rule8matchers5testss_36test_base64offset_contains_not_match
FN:2481,_RNvNtNtNtNtCsNhz5SapXcJ_8hayabusa10detections4rule8matchers5testss_21test_cidr_ipv4_detect
FN:2500,_RNvNtNtNtNtCsNhz5SapXcJ_8hayabusa10detections4rule8matchers5testss_25test_cidr_ipv4_not_detect
FN:2519,_RNvNtNtNtNtCsNhz5SapXcJ_8hayabusa10detections4rule8matchers5testss_21test_cidr_ipv6_detect
FN:2538,_RNvNtNtNtNtCsNhz5SapXcJ_8hayabusa10detections4rule8matchers5testss_25test_cidr_ipv6_not_detect
FN:2557,_RNvNtNtNtNtCsNhz5SapXcJ_8hayabusa10detections4rule8matchers5testss_40test_cidr_ip_field_not_exists_not_detect
FN:2576,_RNvNtNtNtNtCsNhz5SapXcJ_8hayabusa10detections4rule8matchers5testss_33test_detect_backslash_exact_match
FN:2603,_RNvNtNtNtNtCsNhz5SapXcJ_8hayabusa10detections4rule8matchers5testss_33test_detect_startswith_backslash1
FN:2629,_RNvNtNtNtNtCsNhz5SapXcJ_8hayabusa10detections4rule8matchers5testss_33test_detect_startswith_backslash2
FN:2655,_RNvNtNtNtNtCsNhz5SapXcJ_8hayabusa10detections4rule8matchers5testss_31test_detect_contains_backslash1
FN:2681,_RNvNtNtNtNtCsNhz5SapXcJ_8hayabusa10detections4rule8matchers5testss_31test_detect_contains_backslash2
FN:2707,_RNvNtNtNtNtCsNhz5SapXcJ_8hayabusa10detections4rule8matchers5testss_30test_detect_backslash_endswith
FN:2734,_RNvNtNtNtNtCsNhz5SapXcJ_8hayabusa10detections4rule8matchers5testss_27test_detect_backslash_regex
FN:2761,_RNvNtNtNtNtCsNhz5SapXcJ_8hayabusa10detections4rule8matchers5testss_18test_all_only_true
FN:2792,_RNvNtNtNtNtCsNhz5SapXcJ_8hayabusa10detections4rule8matchers5testss_19test_all_only_false
FN:2823,_RNvNtNtNtNtCsNhz5SapXcJ_8hayabusa10detections4rule8matchers5testss_22test_all_only_or_false
FNDA:5,_RNvMNtNtNtCs5DPfXlAluY4_8hayabusa10detections4rule8matchersNtB2_16MinlengthMatcher3new
FNDA:5,_RNvXs_NtNtNtCs5DPfXlAluY4_8hayabusa10detections4rule8matchersNtB4_16MinlengthMatcherNtB4_11LeafMatcher13is_target_key
FNDA:0,_RNvXs_NtNtNtCs5DPfXlAluY4_8hayabusa10detections4rule8matchersNtB4_16MinlengthMatcherNtB4_11LeafMatcher4init
FNDA:0,_RNvXs_NtNtNtCs5DPfXlAluY4_8hayabusa10detections4rule8matchersNtB4_16MinlengthMatcherNtB4_11LeafMatcher8is_match
FNDA:5,_RNvMs0_NtNtNtCs5DPfXlAluY4_8hayabusa10detections4rule8matchersNtB5_18RegexesFileMatcher3new
FNDA:5,_RNvXs1_NtNtNtCs5DPfXlAluY4_8hayabusa10detections4rule8matchersNtB5_18RegexesFileMatcherNtB5_11LeafMatcher13is_target_key
FNDA:0,_RNvXs1_NtNtNtCs5DPfXlAluY4_8hayabusa10detections4rule8matchersNtB5_18RegexesFileMatcherNtB5_11LeafMatcher4init
FNDA:0,_RNCNvXs1_NtNtNtCs5DPfXlAluY4_8hayabusa10detections4rule8matchersNtB7_18RegexesFileMatcherNtB7_11LeafMatcher4init0Bd_
FNDA:0,_RNvXs1_NtNtNtCs5DPfXlAluY4_8hayabusa10detections4rule8matchersNtB5_18RegexesFileMatcherNtB5_11LeafMatcher8is_match
FNDA:5,_RNvMs2_NtNtNtCs5DPfXlAluY4_8hayabusa10detections4rule8matchersNtB5_20AllowlistFileMatcher3new
FNDA:5,_RNvXs3_NtNtNtCs5DPfXlAluY4_8hayabusa10detections4rule8matchersNtB5_20AllowlistFileMatcherNtB5_11LeafMatcher13is_target_key
FNDA:0,_RNvXs3_NtNtNtCs5DPfXlAluY4_8hayabusa10detections4rule8matchersNtB5_20AllowlistFileMatcherNtB5_11LeafMatcher4init
FNDA:0,_RNCNvXs3_NtNtNtCs5DPfXlAluY4_8hayabusa10detections4rule8matchersNtB7_20AllowlistFileMatcherNtB7_11LeafMatcher4init0Bd_
FNDA:0,_RNvXs3_NtNtNtCs5DPfXlAluY4_8hayabusa10detections4rule8matchersNtB5_20AllowlistFileMatcherNtB5_11LeafMatcher8is_match
FNDA:5,_RNvMs4_NtNtNtCs5DPfXlAluY4_8hayabusa10detections4rule8matchersNtB5_14DefaultMatcher3new
FNDA:5,_RNvMs4_NtNtNtCs5DPfXlAluY4_8hayabusa10detections4rule8matchersNtB5_14DefaultMatcher15get_eqfield_key
FNDA:0,_RNvMs4_NtNtNtCs5DPfXlAluY4_8hayabusa10detections4rule8matchersNtB5_14DefaultMatcher18is_regex_fullmatch
FNDA:0,_RNvMs4_NtNtNtCs5DPfXlAluY4_8hayabusa10detections4rule8matchersNtB5_14DefaultMatcher25from_pattern_to_regex_str
FNDA:0,_RNCNvMs4_NtNtNtCs5DPfXlAluY4_8hayabusa10detections4rule8matchersNtB7_14DefaultMatcher25from_pattern_to_regex_str0Bd_
FNDA:3,_RNvMs4_NtNtNtCs5DPfXlAluY4_8hayabusa10detections4rule8matchersNtB5_14DefaultMatcher14eq_ignore_case
FNDA:0,_RNvMs4_NtNtNtCs5DPfXlAluY4_8hayabusa10detections4rule8matchersNtB5_14DefaultMatcher23starts_with_ignore_case
FNDA:0,_RNvMs4_NtNtNtCs5DPfXlAluY4_8hayabusa10detections4rule8matchersNtB5_14DefaultMatcher21ends_with_ignore_case
FNDA:5,_RNvMs4_NtNtNtCs5DPfXlAluY4_8hayabusa10detections4rule8matchersNtB5_14DefaultMatcher21convert_to_fast_match
FNDA:112,_RNCNvMs4_NtNtNtCs5DPfXlAluY4_8hayabusa10detections4rule8matchersNtB7_14DefaultMatcher21convert_to_fast_match0Bd_
FNDA:0,_RNCNvMs4_NtNtNtCs5DPfXlAluY4_8hayabusa10detections4rule8matchersNtB7_14DefaultMatcher21convert_to_fast_matchs_0Bd_
FNDA:5,_RNvXs5_NtNtNtCs5DPfXlAluY4_8hayabusa10detections4rule8matchersNtB5_14DefaultMatcherNtB5_11LeafMatcher13is_target_key
FNDA:5,_RNvXs5_NtNtNtCs5DPfXlAluY4_8hayabusa10detections4rule8matchersNtB5_14DefaultMatcherNtB5_11LeafMatcher4init
FNDA:0,_RNCNvXs5_NtNtNtCs5DPfXlAluY4_8hayabusa10detections4rule8matchersNtB7_14DefaultMatcherNtB7_11LeafMatcher4init0Bd_
FNDA:0,_RNCNvXs5_NtNtNtCs5DPfXlAluY4_8hayabusa10detections4rule8matchersNtB7_14DefaultMatcherNtB7_11LeafMatcher4inits_0Bd_
FNDA:0,_RNCNvXs5_NtNtNtCs5DPfXlAluY4_8hayabusa10detections4rule8matchersNtB7_14DefaultMatcherNtB7_11LeafMatcher4inits0_0Bd_
FNDA:0,_RNCNvXs5_NtNtNtCs5DPfXlAluY4_8hayabusa10detections4rule8matchersNtB7_14DefaultMatcherNtB7_11LeafMatcher4inits1_0Bd_
FNDA:3,_RNvXs5_NtNtNtCs5DPfXlAluY4_8hayabusa10detections4rule8matchersNtB5_14DefaultMatcherNtB5_11LeafMatcher8is_match
FNDA:0,_RNCNvXs5_NtNtNtCs5DPfXlAluY4_8hayabusa10detections4rule8matchersNtB7_14DefaultMatcherNtB7_11LeafMatcher8is_match0Bd_
FNDA:0,_RNvMs6_NtNtNtCs5DPfXlAluY4_8hayabusa10detections4rule8matchersNtB5_11PipeElement3new
FNDA:0,_RNvMs6_NtNtNtCs5DPfXlAluY4_8hayabusa10detections4rule8matchersNtB5_11PipeElement11get_eqfield
FNDA:0,_RNvMs6_NtNtNtCs5DPfXlAluY4_8hayabusa10detections4rule8matchersNtB5_11PipeElement16is_eqfield_match
FNDA:0,_RNvMs6_NtNtNtCs5DPfXlAluY4_8hayabusa10detections4rule8matchersNtB5_11PipeElement12pipe_pattern
FNDA:0,_RNCNvMs6_NtNtNtCs5DPfXlAluY4_8hayabusa10detections4rule8matchersNtB7_11PipeElement12pipe_pattern0Bd_
FNDA:0,_RNCNvMs6_NtNtNtCs5DPfXlAluY4_8hayabusa10detections4rule8matchersNtB7_11PipeElement12pipe_patterns_0Bd_
FNDA:0,_RNvMs6_NtNtNtCs5DPfXlAluY4_8hayabusa10detections4rule8matchersNtB5_11PipeElement21pipe_pattern_wildcard
FNDA:0,_RNCNvMs6_NtNtNtCs5DPfXlAluY4_8hayabusa10detections4rule8matchersNtB7_11PipeElement21pipe_pattern_wildcard0Bd_
FNDA:432,_RNvMNtNtNtCsNhz5SapXcJ_8hayabusa10detections4rule8matchersNtB2_16MinlengthMatcher3new
FNDA:432,_RNvXs_NtNtNtCsNhz5SapXcJ_8hayabusa10detections4rule8matchersNtB4_16MinlengthMatcherNtB4_11LeafMatcher13is_target_key
FNDA:6,_RNvXs_NtNtNtCsNhz5SapXcJ_8hayabusa10detections4rule8matchersNtB4_16MinlengthMatcherNtB4_11LeafMatcher4init
FNDA:5,_RNvXs_NtNtNtCsNhz5SapXcJ_8hayabusa10detections4rule8matchersNtB4_16MinlengthMatcherNtB4_11LeafMatcher8is_match
FNDA:432,_RNvMs0_NtNtNtCsNhz5SapXcJ_8hayabusa10detections4rule8matchersNtB5_18RegexesFileMatcher3new
FNDA:426,_RNvXs1_NtNtNtCsNhz5SapXcJ_8hayabusa10detections4rule8matchersNtB5_18RegexesFileMatcherNtB5_11LeafMatcher13is_target_key
FNDA:1,_RNvXs1_NtNtNtCsNhz5SapXcJ_8hayabusa10detections4rule8matchersNtB5_18RegexesFileMatcherNtB5_11LeafMatcher4init
FNDA:16,_RNCNvXs1_NtNtNtCsNhz5SapXcJ_8hayabusa10detections4rule8matchersNtB7_18RegexesFileMatcherNtB7_11LeafMatcher4init0Bd_
FNDA:0,_RNvXs1_NtNtNtCsNhz5SapXcJ_8hayabusa10detections4rule8matchersNtB5_18RegexesFileMatcherNtB5_11LeafMatcher8is_match
FNDA:432,_RNvMs2_NtNtNtCsNhz5SapXcJ_8hayabusa10detections4rule8matchersNtB5_20AllowlistFileMatcher3new
FNDA:425,_RNvXs3_NtNtNtCsNhz5SapXcJ_8hayabusa10detections4rule8matchersNtB5_20AllowlistFileMatcherNtB5_11LeafMatcher13is_target_key
FNDA:4,_RNvXs3_NtNtNtCsNhz5SapXcJ_8hayabusa10detections4rule8matchersNtB5_20AllowlistFileMatcherNtB5_11LeafMatcher4init
FNDA:8,_RNCNvXs3_NtNtNtCsNhz5SapXcJ_8hayabusa10detections4rule8matchersNtB7_20AllowlistFileMatcherNtB7_11LeafMatcher4init0Bd_
FNDA:3,_RNvXs3_NtNtNtCsNhz5SapXcJ_8hayabusa10detections4rule8matchersNtB5_20AllowlistFileMatcherNtB5_11LeafMatcher8is_match
FNDA:432,_RNvMs4_NtNtNtCsNhz5SapXcJ_8hayabusa10detections4rule8matchersNtB5_14DefaultMatcher3new
FNDA:436,_RNvMs4_NtNtNtCsNhz5SapXcJ_8hayabusa10detections4rule8matchersNtB5_14DefaultMatcher15get_eqfield_key
FNDA:16,_RNvMs4_NtNtNtCsNhz5SapXcJ_8hayabusa10detections4rule8matchersNtB5_14DefaultMatcher18is_regex_fullmatch
FNDA:65,_RNvMs4_NtNtNtCsNhz5SapXcJ_8hayabusa10detections4rule8matchersNtB5_14DefaultMatcher25from_pattern_to_regex_str
FNDA:101,_RNCNvMs4_NtNtNtCsNhz5SapXcJ_8hayabusa10detections4rule8matchersNtB7_14DefaultMatcher25from_pattern_to_regex_str0Bd_
FNDA:227,_RNvMs4_NtNtNtCsNhz5SapXcJ_8hayabusa10detections4rule8matchersNtB5_14DefaultMatcher14eq_ignore_case
FNDA:19,_RNvMs4_NtNtNtCsNhz5SapXcJ_8hayabusa10detections4rule8matchersNtB5_14DefaultMatcher23starts_with_ignore_case
FNDA:12,_RNvMs4_NtNtNtCsNhz5SapXcJ_8hayabusa10detections4rule8matchersNtB5_14DefaultMatcher21ends_with_ignore_case
FNDA:415,_RNvMs4_NtNtNtCsNhz5SapXcJ_8hayabusa10detections4rule8matchersNtB5_14DefaultMatcher21convert_to_fast_match
FNDA:3605,_RNCNvMs4_NtNtNtCsNhz5SapXcJ_8hayabusa10detections4rule8matchersNtB7_14DefaultMatcher21convert_to_fast_match0Bd_
FNDA:87,_RNCNvMs4_NtNtNtCsNhz5SapXcJ_8hayabusa10detections4rule8matchersNtB7_14DefaultMatcher21convert_to_fast_matchs_0Bd_
FNDA:421,_RNvXs5_NtNtNtCsNhz5SapXcJ_8hayabusa10detections4rule8matchersNtB5_14DefaultMatcherNtB5_11LeafMatcher13is_target_key
FNDA:421,_RNvXs5_NtNtNtCsNhz5SapXcJ_8hayabusa10detections4rule8matchersNtB5_14DefaultMatcherNtB5_11LeafMatcher4init
FNDA:6,_RNCNvXs5_NtNtNtCsNhz5SapXcJ_8hayabusa10detections4rule8matchersNtB7_14DefaultMatcherNtB7_11LeafMatcher4init0Bd_
FNDA:74,_RNCNvXs5_NtNtNtCsNhz5SapXcJ_8hayabusa10detections4rule8matchersNtB7_14DefaultMatcherNtB7_11LeafMatcher4inits_0Bd_
FNDA:51,_RNCNvXs5_NtNtNtCsNhz5SapXcJ_8hayabusa10detections4rule8matchersNtB7_14DefaultMatcherNtB7_11LeafMatcher4inits0_0Bd_
FNDA:40,_RNCNvXs5_NtNtNtCsNhz5SapXcJ_8hayabusa10detections4rule8matchersNtB7_14DefaultMatcherNtB7_11LeafMatcher4inits1_0Bd_
FNDA:307,_RNvXs5_NtNtNtCsNhz5SapXcJ_8hayabusa10detections4rule8matchersNtB5_14DefaultMatcherNtB5_11LeafMatcher8is_match
FNDA:4,_RNCNvXs5_NtNtNtCsNhz5SapXcJ_8hayabusa10detections4rule8matchersNtB7_14DefaultMatcherNtB7_11LeafMatcher8is_match0Bd_
FNDA:97,_RNvMs6_NtNtNtCsNhz5SapXcJ_8hayabusa10detections4rule8matchersNtB5_11PipeElement3new
FNDA:110,_RNvMs6_NtNtNtCsNhz5SapXcJ_8hayabusa10detections4rule8matchersNtB5_11PipeElement11get_eqfield
FNDA:11,_RNvMs6_NtNtNtCsNhz5SapXcJ_8hayabusa10detections4rule8matchersNtB5_11PipeElement16is_eqfield_match
FNDA:101,_RNvMs6_NtNtNtCsNhz5SapXcJ_8hayabusa10detections4rule8matchersNtB5_11PipeElement12pipe_pattern
FNDA:21,_RNCNvMs6_NtNtNtCsNhz5SapXcJ_8hayabusa10detections4rule8matchersNtB7_11PipeElement12pipe_pattern0Bd_
FNDA:6,_RNCNvMs6_NtNtNtCsNhz5SapXcJ_8hayabusa10detections4rule8matchersNtB7_11PipeElement12pipe_patterns_0Bd_
FNDA:70,_RNvMs6_NtNtNtCsNhz5SapXcJ_8hayabusa10detections4rule8matchersNtB5_11PipeElement21pipe_pattern_wildcard
FNDA:160,_RNCNvMs6_NtNtNtCsNhz5SapXcJ_8hayabusa10detections4rule8matchersNtB7_11PipeElement21pipe_pattern_wildcard0Bd_
FNDA:73,_RNvNtNtNtNtCsNhz5SapXcJ_8hayabusa10detections4rule8matchers5tests12check_select
FNDA:1,_RNvNtNtNtNtCsNhz5SapXcJ_8hayabusa10detections4rule8matchers5testss_15test_rule_parse
FNDA:1,_RNvNtNtNtNtCsNhz5SapXcJ_8hayabusa10detections4rule8matchers5testss_28test_notdetect_regex_eventid
FNDA:1,_RNvNtNtNtNtCsNhz5SapXcJ_8hayabusa10detections4rule8matchers5testss_29test_notdetect_regex_eventid2
FNDA:1,_RNvNtNtNtNtCsNhz5SapXcJ_8hayabusa10detections4rule8matchers5testss_25test_detect_regex_eventid
FNDA:1,_RNvNtNtNtNtCsNhz5SapXcJ_8hayabusa10detections4rule8matchers5testss_24test_notdetect_regex_str
FNDA:1,_RNvNtNtNtNtCsNhz5SapXcJ_8hayabusa10detections4rule8matchers5testss_25test_notdetect_regex_str2
FNDA:1,_RNvNtNtNtNtCsNhz5SapXcJ_8hayabusa10detections4rule8matchers5testss_21test_detect_regex_str
FNDA:1,_RNvNtNtNtNtCsNhz5SapXcJ_8hayabusa10detections4rule8matchers5testss_29test_notdetect_regex_emptystr
FNDA:1,_RNvNtNtNtNtCsNhz5SapXcJ_8hayabusa10detections4rule8matchers5testss_21test_notdetect_minlen
FNDA:1,_RNvNtNtNtNtCsNhz5SapXcJ_8hayabusa10detections4rule8matchers5testss_18test_detect_minlen
FNDA:1,_RNvNtNtNtNtCsNhz5SapXcJ_8hayabusa10detections4rule8matchers5testss_19test_detect_minlen2
FNDA:1,_RNvNtNtNtNtCsNhz5SapXcJ_8hayabusa10detections4rule8matchers5testss_22test_detect_minlen_and
FNDA:1,_RNvNtNtNtNtCsNhz5SapXcJ_8hayabusa10detections4rule8matchers5testss_25test_notdetect_minlen_and
FNDA:1,_RNvNtNtNtNtCsNhz5SapXcJ_8hayabusa10detections4rule8matchers5testss_17test_detect_regex
FNDA:1,_RNvNtNtNtNtCsNhz5SapXcJ_8hayabusa10detections4rule8matchers5testss_31test_detect_regex_partial_match
FNDA:1,_RNvNtNtNtNtCsNhz5SapXcJ_8hayabusa10detections4rule8matchers5testss_19test_detect_regexes
FNDA:1,_RNvNtNtNtNtCsNhz5SapXcJ_8hayabusa10detections4rule8matchers5testss_21test_detect_allowlist
FNDA:1,_RNvNtNtNtNtCsNhz5SapXcJ_8hayabusa10detections4rule8matchers5testss_22test_detect_allowlist2
FNDA:1,_RNvNtNtNtNtCsNhz5SapXcJ_8hayabusa10detections4rule8matchers5testss_23test_detect_startswith1
FNDA:1,_RNvNtNtNtNtCsNhz5SapXcJ_8hayabusa10detections4rule8matchers5testss_23test_detect_startswith2
FNDA:1,_RNvNtNtNtNtCsNhz5SapXcJ_8hayabusa10detections4rule8matchers5testss_39test_detect_startswith_case_insensitive
FNDA:1,_RNvNtNtNtNtCsNhz5SapXcJ_8hayabusa10detections4rule8matchers5testss_21test_detect_endswith1
FNDA:1,_RNvNtNtNtNtCsNhz5SapXcJ_8hayabusa10detections4rule8matchers5testss_21test_detect_endswith2
FNDA:1,_RNvNtNtNtNtCsNhz5SapXcJ_8hayabusa10detections4rule8matchers5testss_37test_detect_endswith_case_insensitive
FNDA:1,_RNvNtNtNtNtCsNhz5SapXcJ_8hayabusa10detections4rule8matchers5testss_21test_detect_contains1
FNDA:1,_RNvNtNtNtNtCsNhz5SapXcJ_8hayabusa10detections4rule8matchers5testss_21test_detect_contains2
FNDA:1,_RNvNtNtNtNtCsNhz5SapXcJ_8hayabusa10detections4rule8matchers5testss_37test_detect_contains_case_insensitive
FNDA:1,_RNvNtNtNtNtCsNhz5SapXcJ_8hayabusa10detections4rule8matchers5testss_30test_detect_wildcard_multibyte
FNDA:1,_RNvNtNtNtNtCsNhz5SapXcJ_8hayabusa10detections4rule8matchers5testss_40test_detect_wildcard_multibyte_notdetect
FNDA:1,_RNvNtNtNtNtCsNhz5SapXcJ_8hayabusa10detections4rule8matchers5testss_30test_wildcard_case_insensitive
FNDA:1,_RNvNtNtNtNtCsNhz5SapXcJ_8hayabusa10detections4rule8matchers5testss_35test_pipe_pattern_wildcard_asterisk
FNDA:1,_RNvNtNtNtNtCsNhz5SapXcJ_8hayabusa10detections4rule8matchers5testss_36test_pipe_pattern_wildcard_asterisk2
FNDA:1,_RNvNtNtNtNtCsNhz5SapXcJ_8hayabusa10detections4rule8matchers5testss_36test_pipe_pattern_wildcard_asterisk3
FNDA:1,_RNvNtNtNtNtCsNhz5SapXcJ_8hayabusa10detections4rule8matchers5testss_35test_pipe_pattern_wildcard_question
FNDA:1,_RNvNtNtNtNtCsNhz5SapXcJ_8hayabusa10detections4rule8matchers5testss_36test_pipe_pattern_wildcard_question2
FNDA:1,_RNvNtNtNtNtCsNhz5SapXcJ_8hayabusa10detections4rule8matchers5testss_36test_pipe_pattern_wildcard_question3
FNDA:1,_RNvNtNtNtNtCsNhz5SapXcJ_8hayabusa10detections4rule8matchers5testss_36test_pipe_pattern_wildcard_backshash
FNDA:1,_RNvNtNtNtNtCsNhz5SapXcJ_8hayabusa10detections4rule8matchers5testss_32test_pipe_pattern_wildcard_mixed
FNDA:1,_RNvNtNtNtNtCsNhz5SapXcJ_8hayabusa10detections4rule8matchers5testss_42test_pipe_pattern_wildcard_many_backshashs
FNDA:1,_RNvNtNtNtNtCsNhz5SapXcJ_8hayabusa10detections4rule8matchers5testss_15test_grep_match
FNDA:1,_RNvNtNtNtNtCsNhz5SapXcJ_8hayabusa10detections4rule8matchers5testss_19test_grep_not_match
FNDA:1,_RNvNtNtNtNtCsNhz5SapXcJ_8hayabusa10detections4rule8matchers5testss_25test_detect_value_keyword
FNDA:1,_RNvNtNtNtNtCsNhz5SapXcJ_8hayabusa10detections4rule8matchers5testss_28test_notdetect_value_keyword
FNDA:1,_RNvNtNtNtNtCsNhz5SapXcJ_8hayabusa10detections4rule8matchers5testss_19test_endswith_field
FNDA:1,_RNvNtNtNtNtCsNhz5SapXcJ_8hayabusa10detections4rule8matchers5testss_20test_endswith_field2
FNDA:1,_RNvNtNtNtNtCsNhz5SapXcJ_8hayabusa10detections4rule8matchers5testss_35test_endswith_field_caseinsensitive
FNDA:1,_RNvNtNtNtNtCsNhz5SapXcJ_8hayabusa10detections4rule8matchers5testss_36test_endswith_field_caseinsensitive2
FNDA:1,_RNvNtNtNtNtCsNhz5SapXcJ_8hayabusa10detections4rule8matchers5testss_29test_endswith_field_notdetect
FNDA:1,_RNvNtNtNtNtCsNhz5SapXcJ_8hayabusa10detections4rule8matchers5testss_30test_endswith_field_notdetect2
FNDA:1,_RNvNtNtNtNtCsNhz5SapXcJ_8hayabusa10detections4rule8matchers5testss_13test_eq_field
FNDA:1,_RNvNtNtNtNtCsNhz5SapXcJ_8hayabusa10detections4rule8matchers5testss_23test_eq_field_notdetect
FNDA:1,_RNvNtNtNtNtCsNhz5SapXcJ_8hayabusa10detections4rule8matchers5testss_24test_eq_field_emptyfield
FNDA:1,_RNvNtNtNtNtCsNhz5SapXcJ_8hayabusa10detections4rule8matchers5testss_15test_field_null
FNDA:1,_RNvNtNtNtNtCsNhz5SapXcJ_8hayabusa10detections4rule8matchers5testss_26test_field_null_not_detect
FNDA:1,_RNvNtNtNtNtCsNhz5SapXcJ_8hayabusa10detections4rule8matchers5testss_35test_wildcard_converted_starts_with
FNDA:1,_RNvNtNtNtNtCsNhz5SapXcJ_8hayabusa10detections4rule8matchers5testss_45test_wildcard_converted_starts_with_notdetect
FNDA:1,_RNvNtNtNtNtCsNhz5SapXcJ_8hayabusa10detections4rule8matchers5testss_45test_wildcard_converted_starts_with_exact_val
FNDA:1,_RNvNtNtNtNtCsNhz5SapXcJ_8hayabusa10detections4rule8matchers5testss_57test_wildcard_converted_starts_with_shorter_val_notdetect
FNDA:1,_RNvNtNtNtNtCsNhz5SapXcJ_8hayabusa10detections4rule8matchers5testss_46test_wildcard_converted_starts_with_multibytes
FNDA:1,_RNvNtNtNtNtCsNhz5SapXcJ_8hayabusa10detections4rule8matchers5testss_33test_wildcard_converted_ends_with
FNDA:1,_RNvNtNtNtNtCsNhz5SapXcJ_8hayabusa10detections4rule8matchers5testss_55test_wildcard_converted_ends_with_starts_with_exact_val
FNDA:1,_RNvNtNtNtNtCsNhz5SapXcJ_8hayabusa10detections4rule8matchers5testss_55test_wildcard_converted_ends_with_shorter_val_notdetect
FNDA:1,_RNvNtNtNtNtCsNhz5SapXcJ_8hayabusa10detections4rule8matchers5testss_18test_only_wildcard
FNDA:1,_RNvNtNtNtNtCsNhz5SapXcJ_8hayabusa10detections4rule8matchers5testss_18test_two_wildcards
FNDA:1,_RNvNtNtNtNtCsNhz5SapXcJ_8hayabusa10detections4rule8matchers5testss_19test_eq_ignore_case
FNDA:1,_RNvNtNtNtNtCsNhz5SapXcJ_8hayabusa10detections4rule8matchers5testss_28test_starts_with_ignore_case
FNDA:1,_RNvNtNtNtNtCsNhz5SapXcJ_8hayabusa10detections4rule8matchers5testss_26test_ends_with_ignore_case
FNDA:1,_RNvNtNtNtNtCsNhz5SapXcJ_8hayabusa10detections4rule8matchers5testss_26test_convert_to_fast_match
FNDA:1,_RNvNtNtNtNtCsNhz5SapXcJ_8hayabusa10detections4rule8matchers5testss_26test_base64offset_contains
FNDA:1,_RNvNtNtNtNtCsNhz5SapXcJ_8hayabusa10detections4rule8matchers5testss_36test_base64offset_contains_not_match
FNDA:1,_RNvNtNtNtNtCsNhz5SapXcJ_8hayabusa10detections4rule8matchers5testss_21test_cidr_ipv4_detect
FNDA:1,_RNvNtNtNtNtCsNhz5SapXcJ_8hayabusa10detections4rule8matchers5testss_25test_cidr_ipv4_not_detect
FNDA:1,_RNvNtNtNtNtCsNhz5SapXcJ_8hayabusa10detections4rule8matchers5testss_21test_cidr_ipv6_detect
FNDA:1,_RNvNtNtNtNtCsNhz5SapXcJ_8hayabusa10detections4rule8matchers5testss_25test_cidr_ipv6_not_detect
FNDA:1,_RNvNtNtNtNtCsNhz5SapXcJ_8hayabusa10detections4rule8matchers5testss_40test_cidr_ip_field_not_exists_not_detect
FNDA:1,_RNvNtNtNtNtCsNhz5SapXcJ_8hayabusa10detections4rule8matchers5testss_33test_detect_backslash_exact_match
FNDA:1,_RNvNtNtNtNtCsNhz5SapXcJ_8hayabusa10detections4rule8matchers5testss_33test_detect_startswith_backslash1
FNDA:1,_RNvNtNtNtNtCsNhz5SapXcJ_8hayabusa10detections4rule8matchers5testss_33test_detect_startswith_backslash2
FNDA:1,_RNvNtNtNtNtCsNhz5SapXcJ_8hayabusa10detections4rule8matchers5testss_31test_detect_contains_backslash1
FNDA:1,_RNvNtNtNtNtCsNhz5SapXcJ_8hayabusa10detections4rule8matchers5testss_31test_detect_contains_backslash2
FNDA:1,_RNvNtNtNtNtCsNhz5SapXcJ_8hayabusa10detections4rule8matchers5testss_30test_detect_backslash_endswith
FNDA:1,_RNvNtNtNtNtCsNhz5SapXcJ_8hayabusa10detections4rule8matchers5testss_27test_detect_backslash_regex
FNDA:1,_RNvNtNtNtNtCsNhz5SapXcJ_8hayabusa10detections4rule8matchers5testss_18test_all_only_true
FNDA:1,_RNvNtNtNtNtCsNhz5SapXcJ_8hayabusa10detections4rule8matchers5testss_19test_all_only_false
FNDA:1,_RNvNtNtNtNtCsNhz5SapXcJ_8hayabusa10detections4rule8matchers5testss_22test_all_only_or_false
FNF:127
FNH:126
DA:39,437
DA:40,437
DA:41,437
DA:45,437
DA:46,437
DA:47,422
DA:48,15
DA:49,15
DA:50,15
DA:51,437
DA:53,6
DA:54,6
DA:55,6
DA:56,0
DA:57,0
DA:58,0
DA:59,0
DA:60,0
DA:61,6
DA:62,6
DA:63,6
DA:64,6
DA:65,6
DA:67,5
DA:68,5
DA:69,5
DA:70,0
DA:72,5
DA:82,437
DA:83,437
DA:84,437
DA:88,431
DA:89,431
DA:90,422
DA:91,9
DA:92,9
DA:93,9
DA:94,431
DA:96,1
DA:97,1
DA:98,1
DA:99,0
DA:101,1
DA:102,0
DA:103,0
DA:104,0
DA:105,0
DA:106,0
DA:107,1
DA:108,1
DA:109,1
DA:110,1
DA:111,0
DA:112,1
DA:113,1
DA:114,1
DA:115,1
DA:116,16
DA:117,1
DA:118,1
DA:119,1
DA:120,1
DA:122,0
DA:123,0
DA:124,0
DA:125,0
DA:127,0
DA:137,437
DA:138,437
DA:139,437
DA:143,430
DA:144,430
DA:145,422
DA:146,8
DA:147,8
DA:148,8
DA:149,430
DA:151,4
DA:152,4
DA:153,4
DA:154,0
DA:155,0
DA:156,0
DA:158,4
DA:159,0
DA:160,0
DA:161,0
DA:162,0
DA:163,0
DA:164,4
DA:165,4
DA:166,4
DA:167,4
DA:168,0
DA:169,4
DA:170,4
DA:171,4
DA:172,4
DA:173,8
DA:174,4
DA:175,4
DA:176,4
DA:177,4
DA:179,3
DA:180,3
DA:181,3
DA:182,0
DA:184,3
DA:207,437
DA:208,437
DA:209,437
DA:210,437
DA:211,437
DA:212,437
DA:213,437
DA:214,437
DA:216,441
DA:217,441
DA:218,110
DA:219,441
DA:222,16
DA:223,16
DA:224,16
DA:228,65
DA:229,65
DA:230,65
DA:231,65
DA:232,101
DA:233,65
DA:235,230
DA:236,230
DA:237,196
DA:238,34
DA:239,34
DA:240,230
DA:242,19
DA:243,19
DA:244,19
DA:245,2
DA:246,17
DA:247,17
DA:248,17
DA:249,17
DA:250,17
DA:251,0
DA:252,0
DA:253,19
DA:255,12
DA:256,12
DA:257,12
DA:258,12
DA:259,1
DA:260,11
DA:261,11
DA:262,11
DA:263,11
DA:264,11
DA:265,0
DA:266,0
DA:267,12
DA:270,420
DA:271,3717
DA:272,420
DA:273,420
DA:274,418
DA:275,417
DA:278,4
DA:279,416
DA:280,6
DA:281,6
DA:282,6
DA:283,0
DA:284,0
DA:285,410
DA:286,63
DA:287,54
DA:288,47
DA:290,45
DA:291,45
DA:292,45
DA:293,39
DA:294,6
DA:295,6
DA:296,365
DA:298,14
DA:299,351
DA:301,23
DA:302,23
DA:303,23
DA:304,328
DA:306,10
DA:307,318
DA:308,318
DA:309,318
DA:310,420
DA:314,426
DA:315,426
DA:316,422
DA:317,4
DA:318,4
DA:319,4
DA:320,426
DA:322,426
DA:323,426
DA:324,426
DA:325,426
DA:326,426
DA:327,2
DA:328,424
DA:331,424
DA:332,0
DA:333,105
DA:334,0
DA:335,319
DA:336,0
DA:338,424
DA:339,0
DA:340,0
DA:341,0
DA:342,0
DA:343,0
DA:344,424
DA:345,424
DA:346,424
DA:347,424
DA:348,424
DA:349,424
DA:350,424
DA:351,424
DA:352,424
DA:353,424
DA:354,424
DA:355,424
DA:356,424
DA:357,424
DA:358,6
DA:359,418
DA:361,424
DA:362,424
DA:363,424
DA:364,424
DA:365,97
DA:366,97
DA:367,96
DA:368,96
DA:369,96
DA:370,1
DA:371,1
DA:372,1
DA:375,424
DA:376,1
DA:377,423
DA:378,423
DA:379,423
DA:380,333
DA:381,333
DA:382,333
DA:383,84
DA:384,84
DA:386,19
DA:389,4
DA:392,35
DA:395,6
DA:397,20
DA:399,6
DA:400,6
DA:403,2
DA:404,2
DA:405,2
DA:406,8
DA:407,6
DA:408,6
DA:409,6
DA:410,6
DA:411,74
DA:412,6
DA:413,6
DA:414,6
DA:415,6
DA:416,6
DA:418,6
DA:419,6
DA:421,2
DA:422,2
DA:424,0
DA:425,0
DA:429,2
DA:430,0
DA:432,2
DA:433,2
DA:434,2
DA:438,2
DA:439,0
DA:441,2
DA:445,6
DA:446,6
DA:447,6
DA:448,6
DA:449,6
DA:450,0
DA:451,0
DA:452,0
DA:453,0
DA:454,0
DA:455,0
DA:457,2
DA:458,2
DA:459,2
DA:460,4
DA:462,4
DA:463,4
DA:464,4
DA:465,4
DA:467,0
DA:468,0
DA:469,0
DA:470,0
DA:471,0
DA:473,423
DA:474,40
DA:475,395
DA:478,355
DA:481,347
DA:482,76
DA:483,76
DA:484,40
DA:485,51
DA:488,76
DA:489,76
DA:492,65
DA:493,65
DA:494,65
DA:495,65
DA:496,65
DA:497,61
DA:498,61
DA:500,65
DA:501,65
DA:502,65
DA:503,65
DA:504,0
DA:505,0
DA:506,0
DA:507,0
DA:508,0
DA:509,0
DA:510,65
DA:511,65
DA:512,11
DA:514,76
DA:515,426
DA:517,310
DA:518,310
DA:519,310
DA:521,11
DA:523,5
DA:524,5
DA:525,5
DA:526,5
DA:527,5
DA:528,5
DA:529,4
DA:530,1
DA:533,0
DA:535,294
DA:537,310
DA:538,16
DA:539,294
DA:540,294
DA:541,294
DA:542,294
DA:543,294
DA:544,0
DA:545,294
DA:546,294
DA:547,294
DA:548,294
DA:550,2
DA:551,2
DA:552,1
DA:553,1
DA:555,1
DA:556,292
DA:557,292
DA:558,292
DA:559,0
DA:560,292
DA:561,292
DA:562,292
DA:563,292
DA:565,3
DA:566,289
DA:567,273
DA:568,271
DA:569,226
DA:570,15
DA:571,8
DA:572,16
DA:573,22
DA:577,4
DA:578,4
DA:579,0
DA:580,4
DA:582,273
DA:583,273
DA:584,0
DA:585,16
DA:587,16
DA:588,310
DA:609,97
DA:610,97
DA:611,97
DA:612,78
DA:613,74
DA:614,33
DA:615,29
DA:616,24
DA:617,18
DA:618,16
DA:619,11
DA:620,7
DA:621,1
DA:624,97
DA:625,96
DA:627,1
DA:628,1
DA:629,1
DA:630,1
DA:632,97
DA:634,110
DA:635,110
DA:636,5
DA:637,6
DA:638,99
DA:640,110
DA:642,11
DA:643,11
DA:644,5
DA:645,5
DA:646,5
DA:647,5
DA:648,3
DA:649,2
DA:650,2
DA:651,2
DA:653,6
DA:654,6
DA:655,6
DA:656,6
DA:657,0
DA:658,6
DA:659,6
DA:660,6
DA:661,6
DA:662,6
DA:664,0
DA:666,11
DA:669,101
DA:670,101
DA:671,101
DA:672,21
DA:673,0
DA:674,21
DA:675,0
DA:676,21
DA:677,0
DA:678,21
DA:681,4
DA:683,17
DA:685,21
DA:686,101
DA:687,6
DA:688,0
DA:689,6
DA:690,0
DA:691,6
DA:692,0
DA:694,6
DA:696,6
DA:698,101
DA:700,19
DA:702,4
DA:704,2
DA:706,61
DA:707,15
DA:709,101
DA:713,70
DA:714,70
DA:715,70
DA:716,70
DA:717,70
DA:718,70
DA:719,70
DA:720,70
DA:721,600
DA:722,530
DA:723,1454
DA:724,997
DA:725,997
DA:727,14
DA:728,14
DA:729,14
DA:730,14
DA:731,14
DA:732,14
DA:733,14
DA:734,983
DA:736,9
DA:737,9
DA:738,9
DA:739,974
DA:741,50
DA:742,50
DA:743,50
DA:744,50
DA:745,50
DA:746,50
DA:747,924
DA:750,530
DA:751,73
DA:752,457
DA:753,457
DA:754,457
DA:755,457
DA:756,457
DA:757,457
DA:758,457
DA:759,457
DA:762,70
DA:763,32
DA:764,38
DA:767,70
DA:768,70
DA:769,160
DA:770,160
DA:772,96
DA:775,64
DA:776,57
DA:778,7
DA:780,64
DA:783,160
DA:784,160
DA:785,70
DA:786,70
DA:787,70
DA:788,70
DA:789,70
DA:790,70
DA:812,73
DA:813,73
DA:814,73
DA:815,73
DA:816,73
DA:817,73
DA:818,73
DA:819,73
DA:820,73
DA:821,73
DA:822,73
DA:823,73
DA:824,73
DA:825,73
DA:826,73
DA:827,73
DA:828,73
DA:829,73
DA:830,73
DA:831,73
DA:832,73
DA:833,73
DA:834,73
DA:835,73
DA:836,73
DA:837,73
DA:838,73
DA:839,73
DA:840,73
DA:841,73
DA:842,73
DA:843,73
DA:844,73
DA:845,73
DA:846,73
DA:847,73
DA:848,73
DA:849,73
DA:850,73
DA:851,73
DA:852,73
DA:853,73
DA:854,73
DA:855,73
DA:856,73
DA:857,73
DA:858,73
DA:859,73
DA:860,73
DA:861,73
DA:862,73
DA:863,73
DA:864,73
DA:865,73
DA:866,73
DA:867,73
DA:868,73
DA:869,73
DA:870,73
DA:871,73
DA:872,73
DA:873,73
DA:874,73
DA:875,73
DA:876,73
DA:877,73
DA:878,73
DA:879,73
DA:880,73
DA:881,73
DA:882,73
DA:883,73
DA:884,73
DA:885,73
DA:886,73
DA:887,73
DA:888,73
DA:889,73
DA:890,73
DA:891,73
DA:892,73
DA:893,73
DA:894,73
DA:895,73
DA:896,73
DA:897,73
DA:898,73
DA:899,73
DA:901,0
DA:902,0
DA:905,73
DA:908,1
DA:909,1
DA:910,1
DA:911,1
DA:912,1
DA:913,1
DA:914,1
DA:915,1
DA:916,1
DA:917,1
DA:918,1
DA:919,1
DA:920,1
DA:921,1
DA:922,1
DA:923,1
DA:924,1
DA:925,1
DA:926,1
DA:927,1
DA:928,1
DA:929,1
DA:930,1
DA:931,1
DA:932,1
DA:933,1
DA:934,1
DA:935,1
DA:936,1
DA:937,1
DA:938,1
DA:939,1
DA:940,1
DA:945,1
DA:946,1
DA:947,1
DA:948,1
DA:949,1
DA:952,1
DA:953,1
DA:954,1
DA:955,1
DA:956,1
DA:957,1
DA:958,1
DA:959,1
DA:960,1
DA:961,1
DA:962,1
DA:963,1
DA:964,1
DA:965,1
DA:971,1
DA:972,1
DA:973,1
DA:974,1
DA:975,1
DA:978,1
DA:979,1
DA:980,1
DA:981,1
DA:982,1
DA:983,1
DA:989,1
DA:990,1
DA:991,1
DA:992,1
DA:993,1
DA:997,1
DA:998,1
DA:999,1
DA:1000,1
DA:1001,1
DA:1002,1
DA:1003,1
DA:1004,1
DA:1005,1
DA:1006,1
DA:1007,1
DA:1008,1
DA:1009,1
DA:1010,1
DA:1011,1
DA:1014,1
DA:1015,1
DA:1016,1
DA:1017,1
DA:1018,1
DA:1019,1
DA:1020,1
DA:1021,1
DA:1022,1
DA:1023,1
DA:1024,1
DA:1025,1
DA:1026,1
DA:1027,1
DA:1028,1
DA:1034,1
DA:1035,1
DA:1036,1
DA:1037,1
DA:1038,1
DA:1042,1
DA:1043,1
DA:1044,1
DA:1045,1
DA:1046,1
DA:1047,1
DA:1048,1
DA:1049,1
DA:1050,1
DA:1051,1
DA:1056,1
DA:1057,1
DA:1058,1
DA:1059,1
DA:1060,1
DA:1061,1
DA:1062,1
DA:1063,1
DA:1064,1
DA:1065,1
DA:1066,1
DA:1067,1
DA:1068,1
DA:1069,1
DA:1070,1
DA:1071,1
DA:1072,1
DA:1073,1
DA:1074,1
DA:1075,1
DA:1076,1
DA:1077,1
DA:1078,1
DA:1079,1
DA:1084,1
DA:1085,1
DA:1086,1
DA:1087,1
DA:1088,1
DA:1089,1
DA:1090,1
DA:1091,1
DA:1092,1
DA:1093,1
DA:1094,1
DA:1095,1
DA:1096,1
DA:1097,1
DA:1099,1
DA:1100,1
DA:1101,1
DA:1102,1
DA:1103,1
DA:1104,1
DA:1105,1
DA:1106,1
DA:1109,1
DA:1112,1
DA:1113,1
DA:1114,1
DA:1115,1
DA:1116,1
DA:1117,1
DA:1118,1
DA:1119,1
DA:1120,1
DA:1121,1
DA:1122,1
DA:1123,1
DA:1124,1
DA:1125,1
DA:1126,1
DA:1127,1
DA:1128,1
DA:1129,1
DA:1132,1
DA:1133,1
DA:1134,1
DA:1135,1
DA:1136,1
DA:1137,1
DA:1138,1
DA:1139,1
DA:1140,1
DA:1141,1
DA:1142,1
DA:1143,1
DA:1144,1
DA:1145,1
DA:1146,1
DA:1147,1
DA:1148,1
DA:1149,1
DA:1152,1
DA:1153,1
DA:1154,1
DA:1155,1
DA:1156,1
DA:1157,1
DA:1158,1
DA:1159,1
DA:1160,1
DA:1161,1
DA:1162,1
DA:1163,1
DA:1164,1
DA:1165,1
DA:1166,1
DA:1167,1
DA:1168,1
DA:1169,1
DA:1172,1
DA:1173,1
DA:1174,1
DA:1175,1
DA:1176,1
DA:1177,1
DA:1178,1
DA:1179,1
DA:1180,1
DA:1181,1
DA:1182,1
DA:1183,1
DA:1184,1
DA:1185,1
DA:1186,1
DA:1187,1
DA:1188,1
DA:1189,1
DA:1190,1
DA:1193,1
DA:1194,1
DA:1195,1
DA:1196,1
DA:1197,1
DA:1198,1
DA:1199,1
DA:1200,1
DA:1201,1
DA:1202,1
DA:1203,1
DA:1204,1
DA:1205,1
DA:1206,1
DA:1207,1
DA:1208,1
DA:1209,1
DA:1210,1
DA:1211,1
DA:1214,1
DA:1215,1
DA:1216,1
DA:1217,1
DA:1218,1
DA:1219,1
DA:1220,1
DA:1221,1
DA:1222,1
DA:1223,1
DA:1224,1
DA:1225,1
DA:1226,1
DA:1227,1
DA:1228,1
DA:1229,1
DA:1230,1
DA:1231,1
DA:1234,1
DA:1235,1
DA:1236,1
DA:1237,1
DA:1238,1
DA:1239,1
DA:1240,1
DA:1241,1
DA:1242,1
DA:1243,1
DA:1244,1
DA:1245,1
DA:1246,1
DA:1247,1
DA:1248,1
DA:1249,1
DA:1250,1
DA:1251,1
DA:1254,1
DA:1255,1
DA:1256,1
DA:1257,1
DA:1258,1
DA:1259,1
DA:1260,1
DA:1261,1
DA:1262,1
DA:1263,1
DA:1264,1
DA:1265,1
DA:1266,1
DA:1267,1
DA:1268,1
DA:1269,1
DA:1270,1
DA:1271,1
DA:1272,1
DA:1275,1
DA:1276,1
DA:1277,1
DA:1278,1
DA:1279,1
DA:1280,1
DA:1281,1
DA:1282,1
DA:1283,1
DA:1284,1
DA:1285,1
DA:1286,1
DA:1287,1
DA:1288,1
DA:1289,1
DA:1290,1
DA:1291,1
DA:1292,1
DA:1293,1
DA:1296,1
DA:1297,1
DA:1298,1
DA:1299,1
DA:1300,1
DA:1301,1
DA:1302,1
DA:1303,1
DA:1304,1
DA:1305,1
DA:1306,1
DA:1307,1
DA:1308,1
DA:1309,1
DA:1310,1
DA:1311,1
DA:1312,1
DA:1313,1
DA:1314,1
DA:1317,1
DA:1318,1
DA:1319,1
DA:1320,1
DA:1321,1
DA:1322,1
DA:1323,1
DA:1324,1
DA:1325,1
DA:1326,1
DA:1327,1
DA:1328,1
DA:1329,1
DA:1330,1
DA:1331,1
DA:1332,1
DA:1333,1
DA:1334,1
DA:1335,1
DA:1338,1
DA:1339,1
DA:1340,1
DA:1341,1
DA:1342,1
DA:1343,1
DA:1344,1
DA:1345,1
DA:1346,1
DA:1347,1
DA:1348,1
DA:1349,1
DA:1350,1
DA:1351,1
DA:1352,1
DA:1353,1
DA:1354,1
DA:1355,1
DA:1356,1
DA:1359,1
DA:1360,1
DA:1361,1
DA:1362,1
DA:1363,1
DA:1364,1
DA:1365,1
DA:1366,1
DA:1367,1
DA:1368,1
DA:1369,1
DA:1370,1
DA:1371,1
DA:1372,1
DA:1373,1
DA:1374,1
DA:1375,1
DA:1376,1
DA:1379,1
DA:1380,1
DA:1381,1
DA:1382,1
DA:1383,1
DA:1384,1
DA:1385,1
DA:1386,1
DA:1387,1
DA:1388,1
DA:1389,1
DA:1390,1
DA:1391,1
DA:1392,1
DA:1393,1
DA:1394,1
DA:1395,1
DA:1396,1
DA:1399,1
DA:1400,1
DA:1401,1
DA:1402,1
DA:1403,1
DA:1404,1
DA:1405,1
DA:1406,1
DA:1407,1
DA:1408,1
DA:1409,1
DA:1410,1
DA:1411,1
DA:1412,1
DA:1413,1
DA:1414,1
DA:1415,1
DA:1416,1
DA:1417,1
DA:1418,1
DA:1419,1
DA:1420,1
DA:1423,1
DA:1424,1
DA:1425,1
DA:1426,1
DA:1427,1
DA:1428,1
DA:1429,1
DA:1430,1
DA:1431,1
DA:1432,1
DA:1433,1
DA:1434,1
DA:1435,1
DA:1436,1
DA:1437,1
DA:1438,1
DA:1439,1
DA:1440,1
DA:1441,1
DA:1442,1
DA:1443,1
DA:1444,1
DA:1447,1
DA:1448,1
DA:1449,1
DA:1450,1
DA:1451,1
DA:1452,1
DA:1453,1
DA:1454,1
DA:1455,1
DA:1456,1
DA:1457,1
DA:1458,1
DA:1459,1
DA:1460,1
DA:1461,1
DA:1462,1
DA:1463,1
DA:1464,1
DA:1465,1
DA:1466,1
DA:1469,1
DA:1470,1
DA:1471,1
DA:1472,1
DA:1473,1
DA:1474,1
DA:1475,1
DA:1476,1
DA:1477,1
DA:1478,1
DA:1479,1
DA:1480,1
DA:1481,1
DA:1482,1
DA:1483,1
DA:1484,1
DA:1485,1
DA:1486,1
DA:1487,1
DA:1488,1
DA:1489,1
DA:1490,1
DA:1491,1
DA:1492,1
DA:1493,1
DA:1494,1
DA:1495,1
DA:1496,1
DA:1497,1
DA:1498,1
DA:1501,1
DA:1502,1
DA:1503,1
DA:1504,1
DA:1505,1
DA:1506,1
DA:1507,1
DA:1508,1
DA:1509,1
DA:1510,1
DA:1511,1
DA:1512,1
DA:1513,1
DA:1514,1
DA:1515,1
DA:1516,1
DA:1517,1
DA:1518,1
DA:1519,1
DA:1520,1
DA:1521,1
DA:1522,1
DA:1523,1
DA:1524,1
DA:1525,1
DA:1526,1
DA:1527,1
DA:1528,1
DA:1529,1
DA:1530,1
DA:1533,1
DA:1534,1
DA:1535,1
DA:1536,1
DA:1537,1
DA:1538,1
DA:1539,1
DA:1540,1
DA:1541,1
DA:1542,1
DA:1543,1
DA:1544,1
DA:1545,1
DA:1546,1
DA:1547,1
DA:1548,1
DA:1549,1
DA:1550,1
DA:1551,1
DA:1552,1
DA:1553,1
DA:1554,1
DA:1555,1
DA:1556,1
DA:1557,1
DA:1558,1
DA:1559,1
DA:1560,1
DA:1561,1
DA:1564,1
DA:1565,1
DA:1566,1
DA:1567,1
DA:1568,1
DA:1569,1
DA:1570,1
DA:1571,1
DA:1572,1
DA:1573,1
DA:1574,1
DA:1575,1
DA:1576,1
DA:1577,1
DA:1578,1
DA:1579,1
DA:1580,1
DA:1581,1
DA:1582,1
DA:1583,1
DA:1584,1
DA:1585,1
DA:1586,1
DA:1587,1
DA:1588,1
DA:1589,1
DA:1590,1
DA:1591,1
DA:1592,1
DA:1593,1
DA:1596,1
DA:1597,1
DA:1598,1
DA:1599,1
DA:1600,1
DA:1601,1
DA:1602,1
DA:1603,1
DA:1604,1
DA:1605,1
DA:1606,1
DA:1607,1
DA:1608,1
DA:1609,1
DA:1610,1
DA:1611,1
DA:1612,1
DA:1613,1
DA:1614,1
DA:1615,1
DA:1616,1
DA:1617,1
DA:1618,1
DA:1619,1
DA:1620,1
DA:1621,1
DA:1622,1
DA:1623,1
DA:1624,1
DA:1627,1
DA:1628,1
DA:1629,1
DA:1630,1
DA:1631,1
DA:1632,1
DA:1633,1
DA:1634,1
DA:1635,1
DA:1636,1
DA:1637,1
DA:1638,1
DA:1639,1
DA:1640,1
DA:1641,1
DA:1642,1
DA:1643,1
DA:1644,1
DA:1645,1
DA:1646,1
DA:1647,1
DA:1648,1
DA:1649,1
DA:1650,1
DA:1651,1
DA:1652,1
DA:1653,1
DA:1654,1
DA:1655,1
DA:1658,1
DA:1659,1
DA:1660,1
DA:1661,1
DA:1662,1
DA:1663,1
DA:1664,1
DA:1665,1
DA:1666,1
DA:1667,1
DA:1668,1
DA:1669,1
DA:1670,1
DA:1671,1
DA:1672,1
DA:1673,1
DA:1674,1
DA:1675,1
DA:1676,1
DA:1677,1
DA:1678,1
DA:1679,1
DA:1680,1
DA:1681,1
DA:1682,1
DA:1683,1
DA:1684,1
DA:1685,1
DA:1686,1
DA:1687,1
DA:1690,1
DA:1691,1
DA:1692,1
DA:1693,1
DA:1694,1
DA:1695,1
DA:1696,1
DA:1697,1
DA:1698,1
DA:1699,1
DA:1700,1
DA:1701,1
DA:1702,1
DA:1703,1
DA:1704,1
DA:1705,1
DA:1706,1
DA:1707,1
DA:1708,1
DA:1709,1
DA:1710,1
DA:1711,1
DA:1712,1
DA:1713,1
DA:1714,1
DA:1715,1
DA:1716,1
DA:1717,1
DA:1718,1
DA:1719,1
DA:1722,1
DA:1723,1
DA:1724,1
DA:1725,1
DA:1726,1
DA:1727,1
DA:1728,1
DA:1729,1
DA:1730,1
DA:1731,1
DA:1732,1
DA:1733,1
DA:1734,1
DA:1735,1
DA:1736,1
DA:1737,1
DA:1738,1
DA:1739,1
DA:1740,1
DA:1741,1
DA:1742,1
DA:1743,1
DA:1744,1
DA:1745,1
DA:1746,1
DA:1747,1
DA:1748,1
DA:1749,1
DA:1750,1
DA:1753,1
DA:1754,1
DA:1755,1
DA:1756,1
DA:1757,1
DA:1758,1
DA:1759,1
DA:1760,1
DA:1761,1
DA:1762,1
DA:1763,1
DA:1764,1
DA:1765,1
DA:1766,1
DA:1767,1
DA:1768,1
DA:1769,1
DA:1770,1
DA:1773,1
DA:1774,1
DA:1775,1
DA:1776,1
DA:1777,1
DA:1778,1
DA:1779,1
DA:1780,1
DA:1781,1
DA:1782,1
DA:1783,1
DA:1784,1
DA:1785,1
DA:1786,1
DA:1787,1
DA:1788,1
DA:1789,1
DA:1792,1
DA:1793,1
DA:1794,1
DA:1795,1
DA:1796,1
DA:1797,1
DA:1798,1
DA:1799,1
DA:1800,1
DA:1801,1
DA:1802,1
DA:1803,1
DA:1804,1
DA:1805,1
DA:1806,1
DA:1807,1
DA:1808,1
DA:1809,1
DA:1812,1
DA:1813,1
DA:1814,1
DA:1815,1
DA:1818,1
DA:1819,1
DA:1820,1
DA:1821,1
DA:1822,1
DA:1823,1
DA:1826,1
DA:1827,1
DA:1828,1
DA:1829,1
DA:1830,1
DA:1831,1
DA:1832,1
DA:1833,1
DA:1834,1
DA:1837,1
DA:1838,1
DA:1839,1
DA:1840,1
DA:1843,1
DA:1844,1
DA:1845,1
DA:1846,1
DA:1849,1
DA:1850,1
DA:1851,1
DA:1852,1
DA:1855,1
DA:1856,1
DA:1857,1
DA:1858,1
DA:1861,1
DA:1862,1
DA:1863,1
DA:1864,1
DA:1865,1
DA:1866,1
DA:1867,1
DA:1870,1
DA:1871,1
DA:1872,1
DA:1873,1
DA:1874,1
DA:1875,1
DA:1876,1
DA:1879,1
DA:1880,1
DA:1881,1
DA:1882,1
DA:1883,1
DA:1884,1
DA:1885,1
DA:1886,1
DA:1887,1
DA:1888,1
DA:1889,1
DA:1890,1
DA:1891,1
DA:1892,1
DA:1893,1
DA:1894,1
DA:1895,1
DA:1898,1
DA:1899,1
DA:1900,1
DA:1901,1
DA:1902,1
DA:1903,1
DA:1904,1
DA:1905,1
DA:1906,1
DA:1907,1
DA:1908,1
DA:1909,1
DA:1910,1
DA:1911,1
DA:1912,1
DA:1913,1
DA:1914,1
DA:1915,1
DA:1918,1
DA:1919,1
DA:1920,1
DA:1921,1
DA:1922,1
DA:1923,1
DA:1924,1
DA:1925,1
DA:1926,1
DA:1927,1
DA:1928,1
DA:1929,1
DA:1930,1
DA:1931,1
DA:1932,1
DA:1933,1
DA:1934,1
DA:1935,1
DA:1936,1
DA:1937,1
DA:1940,1
DA:1941,1
DA:1942,1
DA:1943,1
DA:1944,1
DA:1945,1
DA:1946,1
DA:1947,1
DA:1948,1
DA:1949,1
DA:1950,1
DA:1951,1
DA:1952,1
DA:1953,1
DA:1954,1
DA:1955,1
DA:1956,1
DA:1957,1
DA:1958,1
DA:1959,1
DA:1962,1
DA:1963,1
DA:1964,1
DA:1965,1
DA:1966,1
DA:1967,1
DA:1968,1
DA:1969,1
DA:1970,1
DA:1971,1
DA:1972,1
DA:1973,1
DA:1974,1
DA:1975,1
DA:1976,1
DA:1977,1
DA:1978,1
DA:1981,1
DA:1982,1
DA:1983,1
DA:1984,1
DA:1985,1
DA:1986,1
DA:1987,1
DA:1988,1
DA:1989,1
DA:1990,1
DA:1991,1
DA:1992,1
DA:1993,1
DA:1994,1
DA:1995,1
DA:1996,1
DA:1997,1
DA:2000,1
DA:2001,1
DA:2002,1
DA:2003,1
DA:2004,1
DA:2005,1
DA:2006,1
DA:2007,1
DA:2008,1
DA:2009,1
DA:2010,1
DA:2011,1
DA:2012,1
DA:2013,1
DA:2014,1
DA:2015,1
DA:2016,1
DA:2019,1
DA:2020,1
DA:2021,1
DA:2022,1
DA:2023,1
DA:2024,1
DA:2025,1
DA:2026,1
DA:2027,1
DA:2028,1
DA:2029,1
DA:2030,1
DA:2031,1
DA:2032,1
DA:2033,1
DA:2034,1
DA:2035,1
DA:2038,1
DA:2039,1
DA:2040,1
DA:2041,1
DA:2042,1
DA:2043,1
DA:2044,1
DA:2045,1
DA:2046,1
DA:2047,1
DA:2048,1
DA:2049,1
DA:2050,1
DA:2051,1
DA:2052,1
DA:2053,1
DA:2054,1
DA:2057,1
DA:2058,1
DA:2059,1
DA:2060,1
DA:2061,1
DA:2062,1
DA:2063,1
DA:2064,1
DA:2065,1
DA:2066,1
DA:2067,1
DA:2068,1
DA:2069,1
DA:2070,1
DA:2071,1
DA:2072,1
DA:2073,1
DA:2076,1
DA:2077,1
DA:2078,1
DA:2079,1
DA:2080,1
DA:2081,1
DA:2082,1
DA:2083,1
DA:2084,1
DA:2085,1
DA:2086,1
DA:2087,1
DA:2088,1
DA:2089,1
DA:2090,1
DA:2091,1
DA:2092,1
DA:2095,1
DA:2096,1
DA:2097,1
DA:2098,1
DA:2099,1
DA:2100,1
DA:2101,1
DA:2102,1
DA:2103,1
DA:2104,1
DA:2105,1
DA:2106,1
DA:2107,1
DA:2108,1
DA:2109,1
DA:2110,1
DA:2113,1
DA:2114,1
DA:2115,1
DA:2116,1
DA:2117,1
DA:2118,1
DA:2119,1
DA:2120,1
DA:2121,1
DA:2122,1
DA:2123,1
DA:2124,1
DA:2125,1
DA:2126,1
DA:2127,1
DA:2128,1
DA:2129,1
DA:2130,1
DA:2131,1
DA:2132,1
DA:2133,1
DA:2134,1
DA:2135,1
DA:2136,1
DA:2137,1
DA:2138,1
DA:2139,1
DA:2140,1
DA:2141,1
DA:2142,1
DA:2143,1
DA:2144,1
DA:2145,1
DA:2148,1
DA:2149,1
DA:2150,1
DA:2151,1
DA:2152,1
DA:2153,1
DA:2154,1
DA:2155,1
DA:2156,1
DA:2157,1
DA:2158,1
DA:2159,1
DA:2160,1
DA:2161,1
DA:2162,1
DA:2163,1
DA:2164,1
DA:2165,1
DA:2166,1
DA:2167,1
DA:2170,1
DA:2171,1
DA:2172,1
DA:2173,1
DA:2174,1
DA:2175,1
DA:2176,1
DA:2177,1
DA:2178,1
DA:2179,1
DA:2180,1
DA:2181,1
DA:2182,1
DA:2183,1
DA:2184,1
DA:2185,1
DA:2186,1
DA:2189,1
DA:2190,1
DA:2191,1
DA:2192,1
DA:2193,1
DA:2194,1
DA:2195,1
DA:2196,1
DA:2197,1
DA:2198,1
DA:2199,1
DA:2200,1
DA:2201,1
DA:2202,1
DA:2203,1
DA:2204,1
DA:2205,1
DA:2208,1
DA:2209,1
DA:2210,1
DA:2211,1
DA:2212,1
DA:2213,1
DA:2214,1
DA:2215,1
DA:2216,1
DA:2217,1
DA:2218,1
DA:2219,1
DA:2220,1
DA:2221,1
DA:2222,1
DA:2223,1
DA:2224,1
DA:2227,1
DA:2228,1
DA:2229,1
DA:2230,1
DA:2231,1
DA:2232,1
DA:2233,1
DA:2234,1
DA:2235,1
DA:2236,1
DA:2237,1
DA:2238,1
DA:2239,1
DA:2240,1
DA:2241,1
DA:2242,1
DA:2243,1
DA:2246,1
DA:2247,1
DA:2248,1
DA:2249,1
DA:2250,1
DA:2251,1
DA:2252,1
DA:2253,1
DA:2254,1
DA:2255,1
DA:2256,1
DA:2257,1
DA:2258,1
DA:2259,1
DA:2260,1
DA:2261,1
DA:2262,1
DA:2265,1
DA:2266,1
DA:2267,1
DA:2268,1
DA:2269,1
DA:2270,1
DA:2271,1
DA:2272,1
DA:2273,1
DA:2274,1
DA:2275,1
DA:2276,1
DA:2277,1
DA:2278,1
DA:2279,1
DA:2280,1
DA:2281,1
DA:2284,1
DA:2285,1
DA:2286,1
DA:2287,1
DA:2288,1
DA:2289,1
DA:2290,1
DA:2291,1
DA:2292,1
DA:2293,1
DA:2294,1
DA:2295,1
DA:2296,1
DA:2297,1
DA:2298,1
DA:2299,1
DA:2300,1
DA:2303,1
DA:2304,1
DA:2305,1
DA:2306,1
DA:2307,1
DA:2308,1
DA:2309,1
DA:2310,1
DA:2311,1
DA:2312,1
DA:2313,1
DA:2314,1
DA:2315,1
DA:2316,1
DA:2317,1
DA:2318,1
DA:2319,1
DA:2322,1
DA:2323,1
DA:2324,1
DA:2325,1
DA:2326,1
DA:2327,1
DA:2328,1
DA:2329,1
DA:2330,1
DA:2331,1
DA:2332,1
DA:2333,1
DA:2334,1
DA:2335,1
DA:2336,1
DA:2337,1
DA:2338,1
DA:2341,1
DA:2342,1
DA:2343,1
DA:2344,1
DA:2345,1
DA:2346,1
DA:2347,1
DA:2348,1
DA:2349,1
DA:2350,1
DA:2351,1
DA:2352,1
DA:2353,1
DA:2354,1
DA:2355,1
DA:2356,1
DA:2357,1
DA:2360,1
DA:2361,1
DA:2362,1
DA:2363,1
DA:2364,1
DA:2365,1
DA:2366,1
DA:2367,1
DA:2368,1
DA:2369,1
DA:2370,1
DA:2371,1
DA:2372,1
DA:2373,1
DA:2374,1
DA:2375,1
DA:2376,1
DA:2379,1
DA:2380,1
DA:2381,1
DA:2382,1
DA:2383,1
DA:2384,1
DA:2387,1
DA:2388,1
DA:2389,1
DA:2390,1
DA:2391,1
DA:2392,1
DA:2395,1
DA:2396,1
DA:2397,1
DA:2398,1
DA:2399,1
DA:2400,1
DA:2403,1
DA:2404,1
DA:2405,1
DA:2406,1
DA:2407,1
DA:2408,1
DA:2409,1
DA:2410,1
DA:2411,1
DA:2412,1
DA:2413,1
DA:2414,1
DA:2415,1
DA:2416,1
DA:2417,1
DA:2418,1
DA:2419,1
DA:2420,1
DA:2421,1
DA:2422,1
DA:2423,1
DA:2424,1
DA:2425,1
DA:2426,1
DA:2427,1
DA:2428,1
DA:2429,1
DA:2430,1
DA:2431,1
DA:2432,1
DA:2433,1
DA:2434,1
DA:2435,1
DA:2436,1
DA:2437,1
DA:2438,1
DA:2441,1
DA:2442,1
DA:2443,1
DA:2444,1
DA:2445,1
DA:2446,1
DA:2447,1
DA:2448,1
DA:2449,1
DA:2450,1
DA:2451,1
DA:2452,1
DA:2453,1
DA:2454,1
DA:2455,1
DA:2456,1
DA:2457,1
DA:2458,1
DA:2461,1
DA:2462,1
DA:2463,1
DA:2464,1
DA:2465,1
DA:2466,1
DA:2467,1
DA:2468,1
DA:2469,1
DA:2470,1
DA:2471,1
DA:2472,1
DA:2473,1
DA:2474,1
DA:2475,1
DA:2476,1
DA:2477,1
DA:2478,1
DA:2481,1
DA:2482,1
DA:2483,1
DA:2484,1
DA:2485,1
DA:2486,1
DA:2487,1
DA:2488,1
DA:2489,1
DA:2490,1
DA:2491,1
DA:2492,1
DA:2493,1
DA:2494,1
DA:2495,1
DA:2496,1
DA:2497,1
DA:2500,1
DA:2501,1
DA:2502,1
DA:2503,1
DA:2504,1
DA:2505,1
DA:2506,1
DA:2507,1
DA:2508,1
DA:2509,1
DA:2510,1
DA:2511,1
DA:2512,1
DA:2513,1
DA:2514,1
DA:2515,1
DA:2516,1
DA:2519,1
DA:2520,1
DA:2521,1
DA:2522,1
DA:2523,1
DA:2524,1
DA:2525,1
DA:2526,1
DA:2527,1
DA:2528,1
DA:2529,1
DA:2530,1
DA:2531,1
DA:2532,1
DA:2533,1
DA:2534,1
DA:2535,1
DA:2538,1
DA:2539,1
DA:2540,1
DA:2541,1
DA:2542,1
DA:2543,1
DA:2544,1
DA:2545,1
DA:2546,1
DA:2547,1
DA:2548,1
DA:2549,1
DA:2550,1
DA:2551,1
DA:2552,1
DA:2553,1
DA:2554,1
DA:2557,1
DA:2558,1
DA:2559,1
DA:2560,1
DA:2561,1
DA:2562,1
DA:2563,1
DA:2564,1
DA:2565,1
DA:2566,1
DA:2567,1
DA:2568,1
DA:2569,1
DA:2570,1
DA:2571,1
DA:2572,1
DA:2573,1
DA:2576,1
DA:2577,1
DA:2578,1
DA:2579,1
DA:2580,1
DA:2581,1
DA:2582,1
DA:2583,1
DA:2584,1
DA:2585,1
DA:2586,1
DA:2587,1
DA:2588,1
DA:2589,1
DA:2590,1
DA:2591,1
DA:2592,1
DA:2593,1
DA:2594,1
DA:2595,1
DA:2596,1
DA:2597,1
DA:2598,1
DA:2599,1
DA:2600,1
DA:2603,1
DA:2604,1
DA:2605,1
DA:2606,1
DA:2607,1
DA:2608,1
DA:2609,1
DA:2610,1
DA:2611,1
DA:2612,1
DA:2613,1
DA:2614,1
DA:2615,1
DA:2616,1
DA:2617,1
DA:2618,1
DA:2619,1
DA:2620,1
DA:2621,1
DA:2622,1
DA:2623,1
DA:2624,1
DA:2625,1
DA:2626,1
DA:2629,1
DA:2630,1
DA:2631,1
DA:2632,1
DA:2633,1
DA:2634,1
DA:2635,1
DA:2636,1
DA:2637,1
DA:2638,1
DA:2639,1
DA:2640,1
DA:2641,1
DA:2642,1
DA:2643,1
DA:2644,1
DA:2645,1
DA:2646,1
DA:2647,1
DA:2648,1
DA:2649,1
DA:2650,1
DA:2651,1
DA:2652,1
DA:2655,1
DA:2656,1
DA:2657,1
DA:2658,1
DA:2659,1
DA:2660,1
DA:2661,1
DA:2662,1
DA:2663,1
DA:2664,1
DA:2665,1
DA:2666,1
DA:2667,1
DA:2668,1
DA:2669,1
DA:2670,1
DA:2671,1
DA:2672,1
DA:2673,1
DA:2674,1
DA:2675,1
DA:2676,1
DA:2677,1
DA:2678,1
DA:2681,1
DA:2682,1
DA:2683,1
DA:2684,1
DA:2685,1
DA:2686,1
DA:2687,1
DA:2688,1
DA:2689,1
DA:2690,1
DA:2691,1
DA:2692,1
DA:2693,1
DA:2694,1
DA:2695,1
DA:2696,1
DA:2697,1
DA:2698,1
DA:2699,1
DA:2700,1
DA:2701,1
DA:2702,1
DA:2703,1
DA:2704,1
DA:2707,1
DA:2708,1
DA:2709,1
DA:2710,1
DA:2711,1
DA:2712,1
DA:2713,1
DA:2714,1
DA:2715,1
DA:2716,1
DA:2717,1
DA:2718,1
DA:2719,1
DA:2720,1
DA:2721,1
DA:2722,1
DA:2723,1
DA:2724,1
DA:2725,1
DA:2726,1
DA:2727,1
DA:2728,1
DA:2729,1
DA:2730,1
DA:2731,1
DA:2734,1
DA:2735,1
DA:2736,1
DA:2737,1
DA:2738,1
DA:2739,1
DA:2740,1
DA:2741,1
DA:2742,1
DA:2743,1
DA:2744,1
DA:2745,1
DA:2746,1
DA:2747,1
DA:2748,1
DA:2749,1
DA:2750,1
DA:2751,1
DA:2752,1
DA:2753,1
DA:2754,1
DA:2755,1
DA:2756,1
DA:2757,1
DA:2758,1
DA:2761,1
DA:2762,1
DA:2763,1
DA:2764,1
DA:2765,1
DA:2766,1
DA:2767,1
DA:2768,1
DA:2769,1
DA:2770,1
DA:2771,1
DA:2772,1
DA:2773,1
DA:2774,1
DA:2775,1
DA:2776,1
DA:2777,1
DA:2778,1
DA:2779,1
DA:2780,1
DA:2781,1
DA:2782,1
DA:2783,1
DA:2784,1
DA:2785,1
DA:2786,1
DA:2787,1
DA:2788,1
DA:2789,1
DA:2792,1
DA:2793,1
DA:2794,1
DA:2795,1
DA:2796,1
DA:2797,1
DA:2798,1
DA:2799,1
DA:2800,1
DA:2801,1
DA:2802,1
DA:2803,1
DA:2804,1
DA:2805,1
DA:2806,1
DA:2807,1
DA:2808,1
DA:2809,1
DA:2810,1
DA:2811,1
DA:2812,1
DA:2813,1
DA:2814,1
DA:2815,1
DA:2816,1
DA:2817,1
DA:2818,1
DA:2819,1
DA:2820,1
DA:2823,1
DA:2824,1
DA:2825,1
DA:2826,1
DA:2827,1
DA:2828,1
DA:2829,1
DA:2830,1
DA:2831,1
DA:2832,1
DA:2833,1
DA:2834,1
DA:2835,1
DA:2836,1
DA:2837,1
DA:2838,1
DA:2839,1
DA:2840,1
DA:2841,1
DA:2842,1
DA:2843,1
DA:2844,1
DA:2845,1
DA:2846,1
DA:2847,1
DA:2848,1
DA:2849,1
DA:2850,1
DA:2851,1
BRF:0
BRH:0
LF:2389
LH:2311
end_of_record
SF:D:\opensource\hayabusa\src\detections\rule\mod.rs
FN:24,_RNvNtNtCs5DPfXlAluY4_8hayabusa10detections4rule11create_rule
FN:37,_RNvXNtNtCs5DPfXlAluY4_8hayabusa10detections4ruleNtB2_8RuleNodeNtNtCshEwRaVhoEM3_4core3fmt5Debug3fmt
FN:43,_RNvMs_NtNtCs5DPfXlAluY4_8hayabusa10detections4ruleNtB4_8RuleNode3new
FN:52,_RNvMs_NtNtCs5DPfXlAluY4_8hayabusa10detections4ruleNtB4_8RuleNode4init
FN:68,_RNvMs_NtNtCs5DPfXlAluY4_8hayabusa10detections4ruleNtB4_8RuleNode6select
FN:89,_RNvMs_NtNtCs5DPfXlAluY4_8hayabusa10detections4ruleNtB4_8RuleNode17has_agg_condition
FN:93,_RNvMs_NtNtCs5DPfXlAluY4_8hayabusa10detections4ruleNtB4_8RuleNode26judge_satisfy_aggcondition
FN:104,_RNvMs_NtNtCs5DPfXlAluY4_8hayabusa10detections4ruleNtB4_8RuleNode21check_exist_countdata
FN:108,_RNvMs_NtNtCs5DPfXlAluY4_8hayabusa10detections4ruleNtB4_8RuleNode17get_agg_condition
FN:117,_RNvNtNtCs5DPfXlAluY4_8hayabusa10detections4rule18get_detection_keys
FN:123,_RNCNvNtNtCs5DPfXlAluY4_8hayabusa10detections4rule18get_detection_keys0B7_
FN:130,_RNCNCNvNtNtCs5DPfXlAluY4_8hayabusa10detections4rule18get_detection_keys00B9_
FN:152,_RNvMs0_NtNtCs5DPfXlAluY4_8hayabusa10detections4ruleNtB5_13DetectionNode3new
FN:161,_RNvMs0_NtNtCs5DPfXlAluY4_8hayabusa10detections4ruleNtB5_13DetectionNode4init
FN:220,_RNvMs0_NtNtCs5DPfXlAluY4_8hayabusa10detections4ruleNtB5_13DetectionNode6select
FN:234,_RNvMs0_NtNtCs5DPfXlAluY4_8hayabusa10detections4ruleNtB5_13DetectionNode23parse_name_to_selection
FN:283,_RNvMs0_NtNtCs5DPfXlAluY4_8hayabusa10detections4ruleNtB5_13DetectionNode15parse_selection
FN:291,_RNvMs0_NtNtCs5DPfXlAluY4_8hayabusa10detections4ruleNtB5_13DetectionNode27parse_selection_recursively
FN:300,_RNCNvMs0_NtNtCs5DPfXlAluY4_8hayabusa10detections4ruleNtB7_13DetectionNode27parse_selection_recursively0Bb_
FN:315,_RNCNvMs0_NtNtCs5DPfXlAluY4_8hayabusa10detections4ruleNtB7_13DetectionNode27parse_selection_recursivelys_0Bb_
FN:323,_RNCNvMs0_NtNtCs5DPfXlAluY4_8hayabusa10detections4ruleNtB7_13DetectionNode27parse_selection_recursivelys0_0Bb_
FN:331,_RNCNvMs0_NtNtCs5DPfXlAluY4_8hayabusa10detections4ruleNtB7_13DetectionNode27parse_selection_recursivelys1_0Bb_
FN:362,_RNvMs1_NtNtCs5DPfXlAluY4_8hayabusa10detections4ruleNtB5_9AggResult3new
FN:24,_RNvNtNtCsNhz5SapXcJ_8hayabusa10detections4rule11create_rule
FN:43,_RNvMs_NtNtCsNhz5SapXcJ_8hayabusa10detections4ruleNtB4_8RuleNode3new
FN:52,_RNvMs_NtNtCsNhz5SapXcJ_8hayabusa10detections4ruleNtB4_8RuleNode4init
FN:68,_RNvMs_NtNtCsNhz5SapXcJ_8hayabusa10detections4ruleNtB4_8RuleNode6select
FN:89,_RNvMs_NtNtCsNhz5SapXcJ_8hayabusa10detections4ruleNtB4_8RuleNode17has_agg_condition
FN:93,_RNvMs_NtNtCsNhz5SapXcJ_8hayabusa10detections4ruleNtB4_8RuleNode26judge_satisfy_aggcondition
FN:108,_RNvMs_NtNtCsNhz5SapXcJ_8hayabusa10detections4ruleNtB4_8RuleNode17get_agg_condition
FN:117,_RNvNtNtCsNhz5SapXcJ_8hayabusa10detections4rule18get_detection_keys
FN:123,_RNCNvNtNtCsNhz5SapXcJ_8hayabusa10detections4rule18get_detection_keys0B7_
FN:130,_RNCNCNvNtNtCsNhz5SapXcJ_8hayabusa10detections4rule18get_detection_keys00B9_
FN:152,_RNvMs0_NtNtCsNhz5SapXcJ_8hayabusa10detections4ruleNtB5_13DetectionNode3new
FN:161,_RNvMs0_NtNtCsNhz5SapXcJ_8hayabusa10detections4ruleNtB5_13DetectionNode4init
FN:220,_RNvMs0_NtNtCsNhz5SapXcJ_8hayabusa10detections4ruleNtB5_13DetectionNode6select
FN:234,_RNvMs0_NtNtCsNhz5SapXcJ_8hayabusa10detections4ruleNtB5_13DetectionNode23parse_name_to_selection
FN:283,_RNvMs0_NtNtCsNhz5SapXcJ_8hayabusa10detections4ruleNtB5_13DetectionNode15parse_selection
FN:291,_RNvMs0_NtNtCsNhz5SapXcJ_8hayabusa10detections4ruleNtB5_13DetectionNode27parse_selection_recursively
FN:300,_RNCNvMs0_NtNtCsNhz5SapXcJ_8hayabusa10detections4ruleNtB7_13DetectionNode27parse_selection_recursively0Bb_
FN:315,_RNCNvMs0_NtNtCsNhz5SapXcJ_8hayabusa10detections4ruleNtB7_13DetectionNode27parse_selection_recursivelys_0Bb_
FN:323,_RNCNvMs0_NtNtCsNhz5SapXcJ_8hayabusa10detections4ruleNtB7_13DetectionNode27parse_selection_recursivelys0_0Bb_
FN:331,_RNCNvMs0_NtNtCsNhz5SapXcJ_8hayabusa10detections4ruleNtB7_13DetectionNode27parse_selection_recursivelys1_0Bb_
FN:362,_RNvMs1_NtNtCsNhz5SapXcJ_8hayabusa10detections4ruleNtB5_9AggResult3new
FN:37,_RNvXNtNtCsNhz5SapXcJ_8hayabusa10detections4ruleNtB2_8RuleNodeNtNtCshEwRaVhoEM3_4core3fmt5Debug3fmt
FN:104,_RNvMs_NtNtCsNhz5SapXcJ_8hayabusa10detections4ruleNtB4_8RuleNode21check_exist_countdata
FN:1043,_RNvNtNtNtCsNhz5SapXcJ_8hayabusa10detections4rule5tests12__check_count
FN:395,_RNvNtNtNtCsNhz5SapXcJ_8hayabusa10detections4rule5tests26create_dummy_stored_static
FN:466,_RNvNtNtNtCsNhz5SapXcJ_8hayabusa10detections4rule5tests19parse_rule_from_str
FN:476,_RNvNtNtNtCsNhz5SapXcJ_8hayabusa10detections4rule5tests12check_select
FN:504,_RNvNtNtNtCsNhz5SapXcJ_8hayabusa10detections4rule5testss_18test_detect_dotkey
FN:523,_RNvNtNtNtCsNhz5SapXcJ_8hayabusa10detections4rule5testss_21test_notdetect_dotkey
FN:542,_RNvNtNtNtCsNhz5SapXcJ_8hayabusa10detections4rule5testss_27test_notdetect_differentkey
FN:562,_RNvNtNtNtCsNhz5SapXcJ_8hayabusa10detections4rule5testss_21test_detect_attribute
FN:634,_RNvNtNtNtCsNhz5SapXcJ_8hayabusa10detections4rule5testss_24test_notdetect_attribute
FN:682,_RNvNtNtNtCsNhz5SapXcJ_8hayabusa10detections4rule5testss_21test_detect_eventdata
FN:737,_RNvNtNtNtCsNhz5SapXcJ_8hayabusa10detections4rule5testss_22test_detect_eventdata2
FN:770,_RNvNtNtNtCsNhz5SapXcJ_8hayabusa10detections4rule5testss_24test_notdetect_eventdata
FN:804,_RNvNtNtNtCsNhz5SapXcJ_8hayabusa10detections4rule5testss_29test_detect_special_eventdata
FN:858,_RNvNtNtNtCsNhz5SapXcJ_8hayabusa10detections4rule5testss_32test_notdetect_special_eventdata
FN:912,_RNvNtNtNtCsNhz5SapXcJ_8hayabusa10detections4rule5testss_30test_use_strfeature_in_or_node
FN:948,_RNvNtNtNtCsNhz5SapXcJ_8hayabusa10detections4rule5testss_33test_detect_undefined_rule_option
FN:971,_RNvNtNtNtCsNhz5SapXcJ_8hayabusa10detections4rule5testss_33test_detect_not_defined_selection
FN:988,_RNvNtNtNtCsNhz5SapXcJ_8hayabusa10detections4rule5testss_20test_use_allfeature_
FNDA:5,_RNvNtNtCs5DPfXlAluY4_8hayabusa10detections4rule11create_rule
FNDA:0,_RNvXNtNtCs5DPfXlAluY4_8hayabusa10detections4ruleNtB2_8RuleNodeNtNtCshEwRaVhoEM3_4core3fmt5Debug3fmt
FNDA:5,_RNvMs_NtNtCs5DPfXlAluY4_8hayabusa10detections4ruleNtB4_8RuleNode3new
FNDA:5,_RNvMs_NtNtCs5DPfXlAluY4_8hayabusa10detections4ruleNtB4_8RuleNode4init
FNDA:7,_RNvMs_NtNtCs5DPfXlAluY4_8hayabusa10detections4ruleNtB4_8RuleNode6select
FNDA:11,_RNvMs_NtNtCs5DPfXlAluY4_8hayabusa10detections4ruleNtB4_8RuleNode17has_agg_condition
FNDA:0,_RNvMs_NtNtCs5DPfXlAluY4_8hayabusa10detections4ruleNtB4_8RuleNode26judge_satisfy_aggcondition
FNDA:0,_RNvMs_NtNtCs5DPfXlAluY4_8hayabusa10detections4ruleNtB4_8RuleNode21check_exist_countdata
FNDA:0,_RNvMs_NtNtCs5DPfXlAluY4_8hayabusa10detections4ruleNtB4_8RuleNode17get_agg_condition
FNDA:5,_RNvNtNtCs5DPfXlAluY4_8hayabusa10detections4rule18get_detection_keys
FNDA:5,_RNCNvNtNtCs5DPfXlAluY4_8hayabusa10detections4rule18get_detection_keys0B7_
FNDA:5,_RNCNCNvNtNtCs5DPfXlAluY4_8hayabusa10detections4rule18get_detection_keys00B9_
FNDA:5,_RNvMs0_NtNtCs5DPfXlAluY4_8hayabusa10detections4ruleNtB5_13DetectionNode3new
FNDA:5,_RNvMs0_NtNtCs5DPfXlAluY4_8hayabusa10detections4ruleNtB5_13DetectionNode4init
FNDA:7,_RNvMs0_NtNtCs5DPfXlAluY4_8hayabusa10detections4ruleNtB5_13DetectionNode6select
FNDA:5,_RNvMs0_NtNtCs5DPfXlAluY4_8hayabusa10detections4ruleNtB5_13DetectionNode23parse_name_to_selection
FNDA:5,_RNvMs0_NtNtCs5DPfXlAluY4_8hayabusa10detections4ruleNtB5_13DetectionNode15parse_selection
FNDA:10,_RNvMs0_NtNtCs5DPfXlAluY4_8hayabusa10detections4ruleNtB5_13DetectionNode27parse_selection_recursively
FNDA:5,_RNCNvMs0_NtNtCs5DPfXlAluY4_8hayabusa10detections4ruleNtB7_13DetectionNode27parse_selection_recursively0Bb_
FNDA:0,_RNCNvMs0_NtNtCs5DPfXlAluY4_8hayabusa10detections4ruleNtB7_13DetectionNode27parse_selection_recursivelys_0Bb_
FNDA:0,_RNCNvMs0_NtNtCs5DPfXlAluY4_8hayabusa10detections4ruleNtB7_13DetectionNode27parse_selection_recursivelys0_0Bb_
FNDA:0,_RNCNvMs0_NtNtCs5DPfXlAluY4_8hayabusa10detections4ruleNtB7_13DetectionNode27parse_selection_recursivelys1_0Bb_
FNDA:0,_RNvMs1_NtNtCs5DPfXlAluY4_8hayabusa10detections4ruleNtB5_9AggResult3new
FNDA:195,_RNvNtNtCsNhz5SapXcJ_8hayabusa10detections4rule11create_rule
FNDA:197,_RNvMs_NtNtCsNhz5SapXcJ_8hayabusa10detections4ruleNtB4_8RuleNode3new
FNDA:195,_RNvMs_NtNtCsNhz5SapXcJ_8hayabusa10detections4ruleNtB4_8RuleNode4init
FNDA:248,_RNvMs_NtNtCsNhz5SapXcJ_8hayabusa10detections4ruleNtB4_8RuleNode6select
FNDA:218,_RNvMs_NtNtCsNhz5SapXcJ_8hayabusa10detections4ruleNtB4_8RuleNode17has_agg_condition
FNDA:35,_RNvMs_NtNtCsNhz5SapXcJ_8hayabusa10detections4ruleNtB4_8RuleNode26judge_satisfy_aggcondition
FNDA:272,_RNvMs_NtNtCsNhz5SapXcJ_8hayabusa10detections4ruleNtB4_8RuleNode17get_agg_condition
FNDA:252,_RNvNtNtCsNhz5SapXcJ_8hayabusa10detections4rule18get_detection_keys
FNDA:482,_RNCNvNtNtCsNhz5SapXcJ_8hayabusa10detections4rule18get_detection_keys0B7_
FNDA:441,_RNCNCNvNtNtCsNhz5SapXcJ_8hayabusa10detections4rule18get_detection_keys00B9_
FNDA:197,_RNvMs0_NtNtCsNhz5SapXcJ_8hayabusa10detections4ruleNtB5_13DetectionNode3new
FNDA:195,_RNvMs0_NtNtCsNhz5SapXcJ_8hayabusa10detections4ruleNtB5_13DetectionNode4init
FNDA:248,_RNvMs0_NtNtCsNhz5SapXcJ_8hayabusa10detections4ruleNtB5_13DetectionNode6select
FNDA:195,_RNvMs0_NtNtCsNhz5SapXcJ_8hayabusa10detections4ruleNtB5_13DetectionNode23parse_name_to_selection
FNDA:317,_RNvMs0_NtNtCsNhz5SapXcJ_8hayabusa10detections4ruleNtB5_13DetectionNode15parse_selection
FNDA:789,_RNvMs0_NtNtCsNhz5SapXcJ_8hayabusa10detections4ruleNtB5_13DetectionNode27parse_selection_recursively
FNDA:415,_RNCNvMs0_NtNtCsNhz5SapXcJ_8hayabusa10detections4ruleNtB7_13DetectionNode27parse_selection_recursively0Bb_
FNDA:4,_RNCNvMs0_NtNtCsNhz5SapXcJ_8hayabusa10detections4ruleNtB7_13DetectionNode27parse_selection_recursivelys_0Bb_
FNDA:6,_RNCNvMs0_NtNtCsNhz5SapXcJ_8hayabusa10detections4ruleNtB7_13DetectionNode27parse_selection_recursivelys0_0Bb_
FNDA:47,_RNCNvMs0_NtNtCsNhz5SapXcJ_8hayabusa10detections4ruleNtB7_13DetectionNode27parse_selection_recursivelys1_0Bb_
FNDA:64,_RNvMs1_NtNtCsNhz5SapXcJ_8hayabusa10detections4ruleNtB5_9AggResult3new
FNDA:0,_RNvXNtNtCsNhz5SapXcJ_8hayabusa10detections4ruleNtB2_8RuleNodeNtNtCshEwRaVhoEM3_4core3fmt5Debug3fmt
FNDA:0,_RNvMs_NtNtCsNhz5SapXcJ_8hayabusa10detections4ruleNtB4_8RuleNode21check_exist_countdata
FNDA:0,_RNvNtNtNtCsNhz5SapXcJ_8hayabusa10detections4rule5tests12__check_count
FNDA:149,_RNvNtNtNtCsNhz5SapXcJ_8hayabusa10detections4rule5tests26create_dummy_stored_static
FNDA:134,_RNvNtNtNtCsNhz5SapXcJ_8hayabusa10detections4rule5tests19parse_rule_from_str
FNDA:13,_RNvNtNtNtCsNhz5SapXcJ_8hayabusa10detections4rule5tests12check_select
FNDA:1,_RNvNtNtNtCsNhz5SapXcJ_8hayabusa10detections4rule5testss_18test_detect_dotkey
FNDA:1,_RNvNtNtNtCsNhz5SapXcJ_8hayabusa10detections4rule5testss_21test_notdetect_dotkey
FNDA:1,_RNvNtNtNtCsNhz5SapXcJ_8hayabusa10detections4rule5testss_27test_notdetect_differentkey
FNDA:1,_RNvNtNtNtCsNhz5SapXcJ_8hayabusa10detections4rule5testss_21test_detect_attribute
FNDA:1,_RNvNtNtNtCsNhz5SapXcJ_8hayabusa10detections4rule5testss_24test_notdetect_attribute
FNDA:1,_RNvNtNtNtCsNhz5SapXcJ_8hayabusa10detections4rule5testss_21test_detect_eventdata
FNDA:1,_RNvNtNtNtCsNhz5SapXcJ_8hayabusa10detections4rule5testss_22test_detect_eventdata2
FNDA:1,_RNvNtNtNtCsNhz5SapXcJ_8hayabusa10detections4rule5testss_24test_notdetect_eventdata
FNDA:1,_RNvNtNtNtCsNhz5SapXcJ_8hayabusa10detections4rule5testss_29test_detect_special_eventdata
FNDA:1,_RNvNtNtNtCsNhz5SapXcJ_8hayabusa10detections4rule5testss_32test_notdetect_special_eventdata
FNDA:1,_RNvNtNtNtCsNhz5SapXcJ_8hayabusa10detections4rule5testss_30test_use_strfeature_in_or_node
FNDA:1,_RNvNtNtNtCsNhz5SapXcJ_8hayabusa10detections4rule5testss_33test_detect_undefined_rule_option
FNDA:1,_RNvNtNtNtCsNhz5SapXcJ_8hayabusa10detections4rule5testss_33test_detect_not_defined_selection
FNDA:1,_RNvNtNtNtCsNhz5SapXcJ_8hayabusa10detections4rule5testss_20test_use_allfeature_
FNF:41
FNH:38
DA:24,200
DA:25,200
DA:26,200
DA:37,0
DA:38,0
DA:39,0
DA:43,202
DA:44,202
DA:45,202
DA:46,202
DA:47,202
DA:48,202
DA:49,202
DA:50,202
DA:52,200
DA:53,200
DA:54,200
DA:55,200
DA:56,200
DA:57,200
DA:58,13
DA:59,187
DA:61,200
DA:62,187
DA:64,13
DA:66,200
DA:68,255
DA:69,255
DA:70,255
DA:71,255
DA:72,255
DA:73,255
DA:74,255
DA:75,255
DA:76,255
DA:77,255
DA:78,115
DA:79,115
DA:80,115
DA:81,115
DA:82,115
DA:83,115
DA:84,115
DA:85,140
DA:86,255
DA:87,255
DA:89,229
DA:90,229
DA:91,229
DA:93,35
DA:94,35
DA:95,35
DA:96,0
DA:97,35
DA:98,35
DA:99,35
DA:100,35
DA:101,35
DA:102,35
DA:103,35
DA:104,0
DA:105,0
DA:106,0
DA:108,272
DA:109,272
DA:110,272
DA:111,0
DA:112,0
DA:113,272
DA:117,257
DA:118,257
DA:119,257
DA:120,362
DA:121,362
DA:122,362
DA:123,487
DA:124,487
DA:125,38
DA:126,449
DA:127,449
DA:128,449
DA:129,449
DA:130,449
DA:131,446
DA:132,0
DA:133,446
DA:134,446
DA:135,449
DA:136,449
DA:137,487
DA:138,362
DA:140,257
DA:141,257
DA:152,202
DA:153,202
DA:154,202
DA:155,202
DA:156,202
DA:157,202
DA:158,202
DA:159,202
DA:161,200
DA:162,200
DA:163,200
DA:164,200
DA:165,200
DA:166,200
DA:167,200
DA:170,198
DA:171,198
DA:172,33
DA:173,33
DA:174,33
DA:175,33
DA:176,165
DA:179,198
DA:180,198
DA:181,102
DA:184,96
DA:185,96
DA:186,1
DA:187,1
DA:188,1
DA:189,95
DA:190,95
DA:191,95
DA:195,197
DA:196,197
DA:197,197
DA:198,197
DA:199,10
DA:200,187
DA:201,187
DA:202,187
DA:205,197
DA:206,197
DA:207,197
DA:208,0
DA:209,197
DA:210,197
DA:211,197
DA:213,197
DA:214,187
DA:216,10
DA:218,200
DA:220,255
DA:221,255
DA:222,255
DA:223,255
DA:224,255
DA:225,255
DA:226,0
DA:227,255
DA:228,255
DA:229,255
DA:230,255
DA:231,255
DA:234,200
DA:235,200
DA:236,200
DA:237,1
DA:238,199
DA:239,199
DA:240,199
DA:241,199
DA:242,199
DA:243,199
DA:244,656
DA:245,457
DA:246,457
DA:247,0
DA:248,457
DA:249,457
DA:250,457
DA:251,135
DA:252,322
DA:253,322
DA:254,322
DA:255,322
DA:256,322
DA:257,322
DA:258,322
DA:259,322
DA:260,1
DA:261,321
DA:262,321
DA:263,321
DA:264,321
DA:265,321
DA:266,0
DA:268,199
DA:269,1
DA:270,198
DA:271,198
DA:272,198
DA:273,198
DA:274,0
DA:275,0
DA:276,0
DA:277,198
DA:278,198
DA:279,198
DA:280,200
DA:283,322
DA:284,322
DA:285,322
DA:286,322
DA:287,322
DA:288,322
DA:291,799
DA:292,799
DA:293,799
DA:294,799
DA:295,799
DA:297,330
DA:298,330
DA:299,330
DA:300,420
DA:301,420
DA:302,420
DA:303,420
DA:304,420
DA:305,420
DA:306,420
DA:307,330
DA:308,469
DA:309,32
DA:310,27
DA:311,5
DA:314,2
DA:315,4
DA:316,4
DA:317,4
DA:318,4
DA:319,2
DA:320,467
DA:322,3
DA:323,6
DA:324,6
DA:325,6
DA:326,6
DA:327,3
DA:328,464
DA:330,27
DA:331,47
DA:332,47
DA:333,47
DA:334,47
DA:335,27
DA:338,437
DA:339,437
DA:340,437
DA:341,437
DA:343,799
DA:362,64
DA:363,64
DA:364,64
DA:365,64
DA:366,64
DA:367,64
DA:368,64
DA:369,64
DA:370,64
DA:371,64
DA:372,64
DA:373,64
DA:374,64
DA:375,64
DA:376,64
DA:395,149
DA:396,149
DA:397,149
DA:398,149
DA:399,149
DA:400,149
DA:401,149
DA:402,149
DA:403,149
DA:404,149
DA:405,149
DA:406,149
DA:407,149
DA:408,149
DA:409,149
DA:410,149
DA:411,149
DA:412,149
DA:413,149
DA:414,149
DA:415,149
DA:416,149
DA:417,149
DA:418,149
DA:419,149
DA:420,149
DA:421,149
DA:422,149
DA:423,149
DA:424,149
DA:425,149
DA:426,149
DA:427,149
DA:428,149
DA:429,149
DA:430,149
DA:431,149
DA:432,149
DA:433,149
DA:434,149
DA:435,149
DA:436,149
DA:437,149
DA:438,149
DA:439,149
DA:440,149
DA:441,149
DA:442,149
DA:443,149
DA:444,149
DA:445,149
DA:446,149
DA:447,149
DA:448,149
DA:449,149
DA:450,149
DA:451,149
DA:452,149
DA:453,149
DA:454,149
DA:455,149
DA:456,149
DA:457,149
DA:458,149
DA:459,149
DA:460,149
DA:461,149
DA:462,149
DA:463,149
DA:464,149
DA:466,134
DA:467,134
DA:468,134
DA:469,134
DA:470,134
DA:471,134
DA:472,134
DA:473,134
DA:474,134
DA:476,13
DA:477,13
DA:478,13
DA:479,13
DA:480,13
DA:481,13
DA:482,13
DA:483,13
DA:484,13
DA:485,13
DA:486,13
DA:487,13
DA:488,13
DA:489,13
DA:490,13
DA:491,13
DA:492,13
DA:493,13
DA:494,13
DA:495,13
DA:497,0
DA:498,0
DA:501,13
DA:504,1
DA:505,1
DA:506,1
DA:507,1
DA:508,1
DA:509,1
DA:510,1
DA:511,1
DA:512,1
DA:513,1
DA:514,1
DA:515,1
DA:516,1
DA:517,1
DA:518,1
DA:519,1
DA:520,1
DA:523,1
DA:524,1
DA:525,1
DA:526,1
DA:527,1
DA:528,1
DA:529,1
DA:530,1
DA:531,1
DA:532,1
DA:533,1
DA:534,1
DA:535,1
DA:536,1
DA:537,1
DA:538,1
DA:539,1
DA:542,1
DA:543,1
DA:544,1
DA:545,1
DA:546,1
DA:547,1
DA:548,1
DA:549,1
DA:550,1
DA:551,1
DA:552,1
DA:553,1
DA:554,1
DA:555,1
DA:556,1
DA:557,1
DA:558,1
DA:559,1
DA:562,1
DA:563,1
DA:564,1
DA:565,1
DA:566,1
DA:567,1
DA:568,1
DA:569,1
DA:570,1
DA:571,1
DA:572,1
DA:573,1
DA:574,1
DA:575,1
DA:576,1
DA:577,1
DA:578,1
DA:579,1
DA:580,1
DA:581,1
DA:582,1
DA:583,1
DA:584,1
DA:585,1
DA:586,1
DA:587,1
DA:588,1
DA:589,1
DA:590,1
DA:591,1
DA:592,1
DA:593,1
DA:594,1
DA:595,1
DA:596,1
DA:597,1
DA:598,1
DA:599,1
DA:600,1
DA:601,1
DA:602,1
DA:603,1
DA:604,1
DA:605,1
DA:606,1
DA:607,1
DA:608,1
DA:609,1
DA:610,1
DA:611,1
DA:612,1
DA:613,1
DA:614,1
DA:615,1
DA:616,1
DA:617,1
DA:618,1
DA:619,1
DA:620,1
DA:621,1
DA:622,1
DA:623,1
DA:624,1
DA:625,1
DA:626,1
DA:627,1
DA:628,1
DA:629,1
DA:630,1
DA:631,1
DA:634,1
DA:635,1
DA:636,1
DA:637,1
DA:638,1
DA:639,1
DA:640,1
DA:641,1
DA:642,1
DA:643,1
DA:644,1
DA:645,1
DA:646,1
DA:647,1
DA:648,1
DA:649,1
DA:650,1
DA:651,1
DA:652,1
DA:653,1
DA:654,1
DA:655,1
DA:656,1
DA:657,1
DA:658,1
DA:659,1
DA:660,1
DA:661,1
DA:662,1
DA:663,1
DA:664,1
DA:665,1
DA:666,1
DA:667,1
DA:668,1
DA:669,1
DA:670,1
DA:671,1
DA:672,1
DA:673,1
DA:674,1
DA:675,1
DA:676,1
DA:677,1
DA:678,1
DA:679,1
DA:682,1
DA:683,1
DA:684,1
DA:685,1
DA:686,1
DA:687,1
DA:688,1
DA:689,1
DA:690,1
DA:691,1
DA:692,1
DA:693,1
DA:694,1
DA:695,1
DA:696,1
DA:697,1
DA:698,1
DA:699,1
DA:700,1
DA:701,1
DA:702,1
DA:703,1
DA:704,1
DA:705,1
DA:706,1
DA:707,1
DA:708,1
DA:709,1
DA:710,1
DA:711,1
DA:712,1
DA:713,1
DA:714,1
DA:715,1
DA:716,1
DA:717,1
DA:718,1
DA:719,1
DA:720,1
DA:721,1
DA:722,1
DA:723,1
DA:724,1
DA:725,1
DA:726,1
DA:727,1
DA:728,1
DA:729,1
DA:730,1
DA:731,1
DA:732,1
DA:733,1
DA:734,1
DA:737,1
DA:738,1
DA:739,1
DA:740,1
DA:741,1
DA:742,1
DA:743,1
DA:744,1
DA:745,1
DA:746,1
DA:747,1
DA:748,1
DA:749,1
DA:750,1
DA:751,1
DA:752,1
DA:753,1
DA:754,1
DA:755,1
DA:756,1
DA:757,1
DA:758,1
DA:759,1
DA:760,1
DA:761,1
DA:762,1
DA:763,1
DA:764,1
DA:765,1
DA:766,1
DA:767,1
DA:770,1
DA:771,1
DA:772,1
DA:773,1
DA:774,1
DA:775,1
DA:776,1
DA:777,1
DA:778,1
DA:779,1
DA:780,1
DA:781,1
DA:782,1
DA:783,1
DA:784,1
DA:785,1
DA:786,1
DA:787,1
DA:788,1
DA:789,1
DA:790,1
DA:791,1
DA:792,1
DA:793,1
DA:794,1
DA:795,1
DA:796,1
DA:797,1
DA:798,1
DA:799,1
DA:800,1
DA:801,1
DA:804,1
DA:805,1
DA:806,1
DA:807,1
DA:808,1
DA:809,1
DA:810,1
DA:811,1
DA:812,1
DA:813,1
DA:814,1
DA:815,1
DA:816,1
DA:817,1
DA:818,1
DA:819,1
DA:820,1
DA:821,1
DA:822,1
DA:823,1
DA:824,1
DA:825,1
DA:826,1
DA:827,1
DA:828,1
DA:829,1
DA:830,1
DA:831,1
DA:832,1
DA:833,1
DA:834,1
DA:835,1
DA:836,1
DA:837,1
DA:838,1
DA:839,1
DA:840,1
DA:841,1
DA:842,1
DA:843,1
DA:844,1
DA:845,1
DA:846,1
DA:847,1
DA:848,1
DA:849,1
DA:850,1
DA:851,1
DA:852,1
DA:853,1
DA:854,1
DA:855,1
DA:858,1
DA:859,1
DA:860,1
DA:861,1
DA:862,1
DA:863,1
DA:864,1
DA:865,1
DA:866,1
DA:867,1
DA:868,1
DA:869,1
DA:870,1
DA:871,1
DA:872,1
DA:873,1
DA:874,1
DA:875,1
DA:876,1
DA:877,1
DA:878,1
DA:879,1
DA:880,1
DA:881,1
DA:882,1
DA:883,1
DA:884,1
DA:885,1
DA:886,1
DA:887,1
DA:888,1
DA:889,1
DA:890,1
DA:891,1
DA:892,1
DA:893,1
DA:894,1
DA:895,1
DA:896,1
DA:897,1
DA:898,1
DA:899,1
DA:900,1
DA:901,1
DA:902,1
DA:903,1
DA:904,1
DA:905,1
DA:906,1
DA:907,1
DA:908,1
DA:909,1
DA:912,1
DA:913,1
DA:914,1
DA:915,1
DA:916,1
DA:917,1
DA:918,1
DA:919,1
DA:920,1
DA:921,1
DA:922,1
DA:923,1
DA:924,1
DA:925,1
DA:926,1
DA:927,1
DA:928,1
DA:929,1
DA:930,1
DA:931,1
DA:932,1
DA:933,1
DA:934,1
DA:935,1
DA:936,1
DA:937,1
DA:938,1
DA:939,1
DA:940,1
DA:941,1
DA:942,1
DA:943,1
DA:944,1
DA:945,1
DA:948,1
DA:949,1
DA:950,1
DA:951,1
DA:952,1
DA:953,1
DA:954,1
DA:955,1
DA:956,1
DA:957,1
DA:958,1
DA:959,1
DA:960,1
DA:961,1
DA:962,1
DA:963,1
DA:964,1
DA:965,1
DA:966,1
DA:967,1
DA:968,1
DA:971,1
DA:972,1
DA:973,1
DA:974,1
DA:975,1
DA:976,1
DA:977,1
DA:978,1
DA:979,1
DA:980,1
DA:981,1
DA:982,1
DA:983,1
DA:984,1
DA:985,1
DA:988,1
DA:989,1
DA:990,1
DA:991,1
DA:992,1
DA:993,1
DA:994,1
DA:995,1
DA:996,1
DA:997,1
DA:998,1
DA:999,1
DA:1000,1
DA:1001,1
DA:1002,1
DA:1003,1
DA:1004,1
DA:1005,1
DA:1006,1
DA:1007,1
DA:1008,1
DA:1009,1
DA:1010,1
DA:1011,1
DA:1012,1
DA:1013,1
DA:1014,1
DA:1015,1
DA:1016,1
DA:1017,1
DA:1018,1
DA:1019,1
DA:1020,1
DA:1021,1
DA:1022,1
DA:1023,1
DA:1024,1
DA:1025,1
DA:1026,1
DA:1027,1
DA:1028,1
DA:1029,1
DA:1030,1
DA:1031,1
DA:1032,1
DA:1033,1
DA:1034,1
DA:1035,1
DA:1036,1
DA:1037,1
DA:1038,1
DA:1039,1
DA:1040,1
DA:1043,0
DA:1044,0
DA:1045,0
DA:1046,0
DA:1047,0
DA:1048,0
DA:1049,0
DA:1050,0
DA:1051,0
DA:1052,0
DA:1053,0
DA:1054,0
DA:1055,0
DA:1056,0
DA:1057,0
DA:1058,0
DA:1059,0
DA:1060,0
DA:1061,0
DA:1062,0
DA:1063,0
DA:1064,0
DA:1065,0
DA:1066,0
DA:1067,0
DA:1068,0
DA:1070,0
DA:1071,0
DA:1074,0
BRF:0
BRH:0
LF:923
LH:875
end_of_record
SF:D:\opensource\hayabusa\src\detections\rule\selectionnodes.rs
FN:36,_RNvMNtNtNtCs5DPfXlAluY4_8hayabusa10detections4rule14selectionnodesNtB2_16AndSelectionNode3new
FN:44,_RNvXs_NtNtNtCs5DPfXlAluY4_8hayabusa10detections4rule14selectionnodesNtB4_16AndSelectionNodeNtB4_13SelectionNode6select
FN:47,_RNCNvXs_NtNtNtCs5DPfXlAluY4_8hayabusa10detections4rule14selectionnodesNtB6_16AndSelectionNodeNtB6_13SelectionNode6select0Bc_
FN:50,_RNvXs_NtNtNtCs5DPfXlAluY4_8hayabusa10detections4rule14selectionnodesNtB4_16AndSelectionNodeNtB4_13SelectionNode4init
FN:54,_RNCNvXs_NtNtNtCs5DPfXlAluY4_8hayabusa10detections4rule14selectionnodesNtB6_16AndSelectionNodeNtB6_13SelectionNode4init0Bc_
FN:64,_RNCNvXs_NtNtNtCs5DPfXlAluY4_8hayabusa10detections4rule14selectionnodesNtB6_16AndSelectionNodeNtB6_13SelectionNode4inits_0Bc_
FN:77,_RNvXs_NtNtNtCs5DPfXlAluY4_8hayabusa10detections4rule14selectionnodesNtB4_16AndSelectionNodeNtB4_13SelectionNode10get_childs
FN:79,_RNCNvXs_NtNtNtCs5DPfXlAluY4_8hayabusa10detections4rule14selectionnodesNtB6_16AndSelectionNodeNtB6_13SelectionNode10get_childs0Bc_
FN:86,_RNvXs_NtNtNtCs5DPfXlAluY4_8hayabusa10detections4rule14selectionnodesNtB4_16AndSelectionNodeNtB4_13SelectionNode15get_descendants
FN:91,_RNCNvXs_NtNtNtCs5DPfXlAluY4_8hayabusa10detections4rule14selectionnodesNtB6_16AndSelectionNodeNtB6_13SelectionNode15get_descendants0Bc_
FN:92,_RNCNvXs_NtNtNtCs5DPfXlAluY4_8hayabusa10detections4rule14selectionnodesNtB6_16AndSelectionNodeNtB6_13SelectionNode15get_descendantss_0Bc_
FN:106,_RNvMs0_NtNtNtCs5DPfXlAluY4_8hayabusa10detections4rule14selectionnodesNtB5_16AllSelectionNode3new
FN:114,_RNvXs1_NtNtNtCs5DPfXlAluY4_8hayabusa10detections4rule14selectionnodesNtB5_16AllSelectionNodeNtB5_13SelectionNode6select
FN:117,_RNCNvXs1_NtNtNtCs5DPfXlAluY4_8hayabusa10detections4rule14selectionnodesNtB7_16AllSelectionNodeNtB7_13SelectionNode6select0Bd_
FN:120,_RNvXs1_NtNtNtCs5DPfXlAluY4_8hayabusa10detections4rule14selectionnodesNtB5_16AllSelectionNodeNtB5_13SelectionNode4init
FN:124,_RNCNvXs1_NtNtNtCs5DPfXlAluY4_8hayabusa10detections4rule14selectionnodesNtB7_16AllSelectionNodeNtB7_13SelectionNode4init0Bd_
FN:134,_RNCNvXs1_NtNtNtCs5DPfXlAluY4_8hayabusa10detections4rule14selectionnodesNtB7_16AllSelectionNodeNtB7_13SelectionNode4inits_0Bd_
FN:147,_RNvXs1_NtNtNtCs5DPfXlAluY4_8hayabusa10detections4rule14selectionnodesNtB5_16AllSelectionNodeNtB5_13SelectionNode10get_childs
FN:149,_RNCNvXs1_NtNtNtCs5DPfXlAluY4_8hayabusa10detections4rule14selectionnodesNtB7_16AllSelectionNodeNtB7_13SelectionNode10get_childs0Bd_
FN:156,_RNvXs1_NtNtNtCs5DPfXlAluY4_8hayabusa10detections4rule14selectionnodesNtB5_16AllSelectionNodeNtB5_13SelectionNode15get_descendants
FN:161,_RNCNvXs1_NtNtNtCs5DPfXlAluY4_8hayabusa10detections4rule14selectionnodesNtB7_16AllSelectionNodeNtB7_13SelectionNode15get_descendants0Bd_
FN:162,_RNCNvXs1_NtNtNtCs5DPfXlAluY4_8hayabusa10detections4rule14selectionnodesNtB7_16AllSelectionNodeNtB7_13SelectionNode15get_descendantss_0Bd_
FN:176,_RNvMs2_NtNtNtCs5DPfXlAluY4_8hayabusa10detections4rule14selectionnodesNtB5_15OrSelectionNode3new
FN:184,_RNvXs3_NtNtNtCs5DPfXlAluY4_8hayabusa10detections4rule14selectionnodesNtB5_15OrSelectionNodeNtB5_13SelectionNode6select
FN:187,_RNCNvXs3_NtNtNtCs5DPfXlAluY4_8hayabusa10detections4rule14selectionnodesNtB7_15OrSelectionNodeNtB7_13SelectionNode6select0Bd_
FN:190,_RNvXs3_NtNtNtCs5DPfXlAluY4_8hayabusa10detections4rule14selectionnodesNtB5_15OrSelectionNodeNtB5_13SelectionNode4init
FN:194,_RNCNvXs3_NtNtNtCs5DPfXlAluY4_8hayabusa10detections4rule14selectionnodesNtB7_15OrSelectionNodeNtB7_13SelectionNode4init0Bd_
FN:204,_RNCNvXs3_NtNtNtCs5DPfXlAluY4_8hayabusa10detections4rule14selectionnodesNtB7_15OrSelectionNodeNtB7_13SelectionNode4inits_0Bd_
FN:217,_RNvXs3_NtNtNtCs5DPfXlAluY4_8hayabusa10detections4rule14selectionnodesNtB5_15OrSelectionNodeNtB5_13SelectionNode10get_childs
FN:219,_RNCNvXs3_NtNtNtCs5DPfXlAluY4_8hayabusa10detections4rule14selectionnodesNtB7_15OrSelectionNodeNtB7_13SelectionNode10get_childs0Bd_
FN:226,_RNvXs3_NtNtNtCs5DPfXlAluY4_8hayabusa10detections4rule14selectionnodesNtB5_15OrSelectionNodeNtB5_13SelectionNode15get_descendants
FN:231,_RNCNvXs3_NtNtNtCs5DPfXlAluY4_8hayabusa10detections4rule14selectionnodesNtB7_15OrSelectionNodeNtB7_13SelectionNode15get_descendants0Bd_
FN:232,_RNCNvXs3_NtNtNtCs5DPfXlAluY4_8hayabusa10detections4rule14selectionnodesNtB7_15OrSelectionNodeNtB7_13SelectionNode15get_descendantss_0Bd_
FN:246,_RNvMs4_NtNtNtCs5DPfXlAluY4_8hayabusa10detections4rule14selectionnodesNtB5_16NotSelectionNode3new
FN:252,_RNvXs5_NtNtNtCs5DPfXlAluY4_8hayabusa10detections4rule14selectionnodesNtB5_16NotSelectionNodeNtB5_13SelectionNode6select
FN:256,_RNvXs5_NtNtNtCs5DPfXlAluY4_8hayabusa10detections4rule14selectionnodesNtB5_16NotSelectionNodeNtB5_13SelectionNode4init
FN:260,_RNvXs5_NtNtNtCs5DPfXlAluY4_8hayabusa10detections4rule14selectionnodesNtB5_16NotSelectionNodeNtB5_13SelectionNode10get_childs
FN:264,_RNvXs5_NtNtNtCs5DPfXlAluY4_8hayabusa10detections4rule14selectionnodesNtB5_16NotSelectionNodeNtB5_13SelectionNode15get_descendants
FN:278,_RNvMs6_NtNtNtCs5DPfXlAluY4_8hayabusa10detections4rule14selectionnodesNtB5_16RefSelectionNode3new
FN:286,_RNvXs7_NtNtNtCs5DPfXlAluY4_8hayabusa10detections4rule14selectionnodesNtB5_16RefSelectionNodeNtB5_13SelectionNode6select
FN:290,_RNvXs7_NtNtNtCs5DPfXlAluY4_8hayabusa10detections4rule14selectionnodesNtB5_16RefSelectionNodeNtB5_13SelectionNode4init
FN:294,_RNvXs7_NtNtNtCs5DPfXlAluY4_8hayabusa10detections4rule14selectionnodesNtB5_16RefSelectionNodeNtB5_13SelectionNode10get_childs
FN:298,_RNvXs7_NtNtNtCs5DPfXlAluY4_8hayabusa10detections4rule14selectionnodesNtB5_16RefSelectionNodeNtB5_13SelectionNode15get_descendants
FN:312,_RNvMs8_NtNtNtCs5DPfXlAluY4_8hayabusa10detections4rule14selectionnodesNtB5_17LeafSelectionNode3new
FN:321,_RNvMs8_NtNtNtCs5DPfXlAluY4_8hayabusa10detections4rule14selectionnodesNtB5_17LeafSelectionNode7get_key
FN:325,_RNvMs8_NtNtNtCs5DPfXlAluY4_8hayabusa10detections4rule14selectionnodesNtB5_17LeafSelectionNode8get_keys
FN:343,_RNvMs8_NtNtNtCs5DPfXlAluY4_8hayabusa10detections4rule14selectionnodesNtB5_17LeafSelectionNode11__create_key
FN:353,_RNvMs8_NtNtNtCs5DPfXlAluY4_8hayabusa10detections4rule14selectionnodesNtB5_17LeafSelectionNode15get_event_value
FN:364,_RNvMs8_NtNtNtCs5DPfXlAluY4_8hayabusa10detections4rule14selectionnodesNtB5_17LeafSelectionNode12get_matchers
FN:375,_RNvXs9_NtNtNtCs5DPfXlAluY4_8hayabusa10detections4rule14selectionnodesNtB5_17LeafSelectionNodeNtB5_13SelectionNode6select
FN:430,_RNCNvXs9_NtNtNtCs5DPfXlAluY4_8hayabusa10detections4rule14selectionnodesNtB7_17LeafSelectionNodeNtB7_13SelectionNode6select0Bd_
FN:466,_RNvXs9_NtNtNtCs5DPfXlAluY4_8hayabusa10detections4rule14selectionnodesNtB5_17LeafSelectionNodeNtB5_13SelectionNode4init
FN:470,_RNCNvXs9_NtNtNtCs5DPfXlAluY4_8hayabusa10detections4rule14selectionnodesNtB7_17LeafSelectionNodeNtB7_13SelectionNode4init0Bd_
FN:495,_RNvXs9_NtNtNtCs5DPfXlAluY4_8hayabusa10detections4rule14selectionnodesNtB5_17LeafSelectionNodeNtB5_13SelectionNode10get_childs
FN:499,_RNvXs9_NtNtNtCs5DPfXlAluY4_8hayabusa10detections4rule14selectionnodesNtB5_17LeafSelectionNodeNtB5_13SelectionNode15get_descendants
FN:518,_RNvNtNtNtNtCsNhz5SapXcJ_8hayabusa10detections4rule14selectionnodes5tests26create_dummy_stored_static
FN:589,_RNvNtNtNtNtCsNhz5SapXcJ_8hayabusa10detections4rule14selectionnodes5tests12check_select
FN:617,_RNvNtNtNtNtCsNhz5SapXcJ_8hayabusa10detections4rule14selectionnodes5testss_29test_detect_mutiple_regex_and
FN:638,_RNvNtNtNtNtCsNhz5SapXcJ_8hayabusa10detections4rule14selectionnodes5testss_32test_notdetect_mutiple_regex_and
FN:660,_RNvNtNtNtNtCsNhz5SapXcJ_8hayabusa10detections4rule14selectionnodes5testss_14test_detect_or
FN:682,_RNvNtNtNtNtCsNhz5SapXcJ_8hayabusa10detections4rule14selectionnodes5testss_15test_detect_or2
FN:704,_RNvNtNtNtNtCsNhz5SapXcJ_8hayabusa10detections4rule14selectionnodes5testss_17test_notdetect_or
FN:726,_RNvNtNtNtNtCsNhz5SapXcJ_8hayabusa10detections4rule14selectionnodes5testss_29test_detect_event_id_wildcard
FN:747,_RNvNtNtNtNtCsNhz5SapXcJ_8hayabusa10detections4rule14selectionnodes5testss_29test_detect_event_id_question
FN:36,_RNvMNtNtNtCsNhz5SapXcJ_8hayabusa10detections4rule14selectionnodesNtB2_16AndSelectionNode3new
FN:44,_RNvXs_NtNtNtCsNhz5SapXcJ_8hayabusa10detections4rule14selectionnodesNtB4_16AndSelectionNodeNtB4_13SelectionNode6select
FN:47,_RNCNvXs_NtNtNtCsNhz5SapXcJ_8hayabusa10detections4rule14selectionnodesNtB6_16AndSelectionNodeNtB6_13SelectionNode6select0Bc_
FN:50,_RNvXs_NtNtNtCsNhz5SapXcJ_8hayabusa10detections4rule14selectionnodesNtB4_16AndSelectionNodeNtB4_13SelectionNode4init
FN:54,_RNCNvXs_NtNtNtCsNhz5SapXcJ_8hayabusa10detections4rule14selectionnodesNtB6_16AndSelectionNodeNtB6_13SelectionNode4init0Bc_
FN:64,_RNCNvXs_NtNtNtCsNhz5SapXcJ_8hayabusa10detections4rule14selectionnodesNtB6_16AndSelectionNodeNtB6_13SelectionNode4inits_0Bc_
FN:77,_RNvXs_NtNtNtCsNhz5SapXcJ_8hayabusa10detections4rule14selectionnodesNtB4_16AndSelectionNodeNtB4_13SelectionNode10get_childs
FN:79,_RNCNvXs_NtNtNtCsNhz5SapXcJ_8hayabusa10detections4rule14selectionnodesNtB6_16AndSelectionNodeNtB6_13SelectionNode10get_childs0Bc_
FN:86,_RNvXs_NtNtNtCsNhz5SapXcJ_8hayabusa10detections4rule14selectionnodesNtB4_16AndSelectionNodeNtB4_13SelectionNode15get_descendants
FN:91,_RNCNvXs_NtNtNtCsNhz5SapXcJ_8hayabusa10detections4rule14selectionnodesNtB6_16AndSelectionNodeNtB6_13SelectionNode15get_descendants0Bc_
FN:92,_RNCNvXs_NtNtNtCsNhz5SapXcJ_8hayabusa10detections4rule14selectionnodesNtB6_16AndSelectionNodeNtB6_13SelectionNode15get_descendantss_0Bc_
FN:106,_RNvMs0_NtNtNtCsNhz5SapXcJ_8hayabusa10detections4rule14selectionnodesNtB5_16AllSelectionNode3new
FN:114,_RNvXs1_NtNtNtCsNhz5SapXcJ_8hayabusa10detections4rule14selectionnodesNtB5_16AllSelectionNodeNtB5_13SelectionNode6select
FN:117,_RNCNvXs1_NtNtNtCsNhz5SapXcJ_8hayabusa10detections4rule14selectionnodesNtB7_16AllSelectionNodeNtB7_13SelectionNode6select0Bd_
FN:120,_RNvXs1_NtNtNtCsNhz5SapXcJ_8hayabusa10detections4rule14selectionnodesNtB5_16AllSelectionNodeNtB5_13SelectionNode4init
FN:124,_RNCNvXs1_NtNtNtCsNhz5SapXcJ_8hayabusa10detections4rule14selectionnodesNtB7_16AllSelectionNodeNtB7_13SelectionNode4init0Bd_
FN:134,_RNCNvXs1_NtNtNtCsNhz5SapXcJ_8hayabusa10detections4rule14selectionnodesNtB7_16AllSelectionNodeNtB7_13SelectionNode4inits_0Bd_
FN:147,_RNvXs1_NtNtNtCsNhz5SapXcJ_8hayabusa10detections4rule14selectionnodesNtB5_16AllSelectionNodeNtB5_13SelectionNode10get_childs
FN:149,_RNCNvXs1_NtNtNtCsNhz5SapXcJ_8hayabusa10detections4rule14selectionnodesNtB7_16AllSelectionNodeNtB7_13SelectionNode10get_childs0Bd_
FN:156,_RNvXs1_NtNtNtCsNhz5SapXcJ_8hayabusa10detections4rule14selectionnodesNtB5_16AllSelectionNodeNtB5_13SelectionNode15get_descendants
FN:161,_RNCNvXs1_NtNtNtCsNhz5SapXcJ_8hayabusa10detections4rule14selectionnodesNtB7_16AllSelectionNodeNtB7_13SelectionNode15get_descendants0Bd_
FN:162,_RNCNvXs1_NtNtNtCsNhz5SapXcJ_8hayabusa10detections4rule14selectionnodesNtB7_16AllSelectionNodeNtB7_13SelectionNode15get_descendantss_0Bd_
FN:176,_RNvMs2_NtNtNtCsNhz5SapXcJ_8hayabusa10detections4rule14selectionnodesNtB5_15OrSelectionNode3new
FN:184,_RNvXs3_NtNtNtCsNhz5SapXcJ_8hayabusa10detections4rule14selectionnodesNtB5_15OrSelectionNodeNtB5_13SelectionNode6select
FN:187,_RNCNvXs3_NtNtNtCsNhz5SapXcJ_8hayabusa10detections4rule14selectionnodesNtB7_15OrSelectionNodeNtB7_13SelectionNode6select0Bd_
FN:190,_RNvXs3_NtNtNtCsNhz5SapXcJ_8hayabusa10detections4rule14selectionnodesNtB5_15OrSelectionNodeNtB5_13SelectionNode4init
FN:194,_RNCNvXs3_NtNtNtCsNhz5SapXcJ_8hayabusa10detections4rule14selectionnodesNtB7_15OrSelectionNodeNtB7_13SelectionNode4init0Bd_
FN:204,_RNCNvXs3_NtNtNtCsNhz5SapXcJ_8hayabusa10detections4rule14selectionnodesNtB7_15OrSelectionNodeNtB7_13SelectionNode4inits_0Bd_
FN:217,_RNvXs3_NtNtNtCsNhz5SapXcJ_8hayabusa10detections4rule14selectionnodesNtB5_15OrSelectionNodeNtB5_13SelectionNode10get_childs
FN:219,_RNCNvXs3_NtNtNtCsNhz5SapXcJ_8hayabusa10detections4rule14selectionnodesNtB7_15OrSelectionNodeNtB7_13SelectionNode10get_childs0Bd_
FN:226,_RNvXs3_NtNtNtCsNhz5SapXcJ_8hayabusa10detections4rule14selectionnodesNtB5_15OrSelectionNodeNtB5_13SelectionNode15get_descendants
FN:231,_RNCNvXs3_NtNtNtCsNhz5SapXcJ_8hayabusa10detections4rule14selectionnodesNtB7_15OrSelectionNodeNtB7_13SelectionNode15get_descendants0Bd_
FN:232,_RNCNvXs3_NtNtNtCsNhz5SapXcJ_8hayabusa10detections4rule14selectionnodesNtB7_15OrSelectionNodeNtB7_13SelectionNode15get_descendantss_0Bd_
FN:246,_RNvMs4_NtNtNtCsNhz5SapXcJ_8hayabusa10detections4rule14selectionnodesNtB5_16NotSelectionNode3new
FN:252,_RNvXs5_NtNtNtCsNhz5SapXcJ_8hayabusa10detections4rule14selectionnodesNtB5_16NotSelectionNodeNtB5_13SelectionNode6select
FN:256,_RNvXs5_NtNtNtCsNhz5SapXcJ_8hayabusa10detections4rule14selectionnodesNtB5_16NotSelectionNodeNtB5_13SelectionNode4init
FN:260,_RNvXs5_NtNtNtCsNhz5SapXcJ_8hayabusa10detections4rule14selectionnodesNtB5_16NotSelectionNodeNtB5_13SelectionNode10get_childs
FN:264,_RNvXs5_NtNtNtCsNhz5SapXcJ_8hayabusa10detections4rule14selectionnodesNtB5_16NotSelectionNodeNtB5_13SelectionNode15get_descendants
FN:278,_RNvMs6_NtNtNtCsNhz5SapXcJ_8hayabusa10detections4rule14selectionnodesNtB5_16RefSelectionNode3new
FN:286,_RNvXs7_NtNtNtCsNhz5SapXcJ_8hayabusa10detections4rule14selectionnodesNtB5_16RefSelectionNodeNtB5_13SelectionNode6select
FN:290,_RNvXs7_NtNtNtCsNhz5SapXcJ_8hayabusa10detections4rule14selectionnodesNtB5_16RefSelectionNodeNtB5_13SelectionNode4init
FN:294,_RNvXs7_NtNtNtCsNhz5SapXcJ_8hayabusa10detections4rule14selectionnodesNtB5_16RefSelectionNodeNtB5_13SelectionNode10get_childs
FN:298,_RNvXs7_NtNtNtCsNhz5SapXcJ_8hayabusa10detections4rule14selectionnodesNtB5_16RefSelectionNodeNtB5_13SelectionNode15get_descendants
FN:312,_RNvMs8_NtNtNtCsNhz5SapXcJ_8hayabusa10detections4rule14selectionnodesNtB5_17LeafSelectionNode3new
FN:321,_RNvMs8_NtNtNtCsNhz5SapXcJ_8hayabusa10detections4rule14selectionnodesNtB5_17LeafSelectionNode7get_key
FN:325,_RNvMs8_NtNtNtCsNhz5SapXcJ_8hayabusa10detections4rule14selectionnodesNtB5_17LeafSelectionNode8get_keys
FN:343,_RNvMs8_NtNtNtCsNhz5SapXcJ_8hayabusa10detections4rule14selectionnodesNtB5_17LeafSelectionNode11__create_key
FN:353,_RNvMs8_NtNtNtCsNhz5SapXcJ_8hayabusa10detections4rule14selectionnodesNtB5_17LeafSelectionNode15get_event_value
FN:364,_RNvMs8_NtNtNtCsNhz5SapXcJ_8hayabusa10detections4rule14selectionnodesNtB5_17LeafSelectionNode12get_matchers
FN:375,_RNvXs9_NtNtNtCsNhz5SapXcJ_8hayabusa10detections4rule14selectionnodesNtB5_17LeafSelectionNodeNtB5_13SelectionNode6select
FN:430,_RNCNvXs9_NtNtNtCsNhz5SapXcJ_8hayabusa10detections4rule14selectionnodesNtB7_17LeafSelectionNodeNtB7_13SelectionNode6select0Bd_
FN:466,_RNvXs9_NtNtNtCsNhz5SapXcJ_8hayabusa10detections4rule14selectionnodesNtB5_17LeafSelectionNodeNtB5_13SelectionNode4init
FN:470,_RNCNvXs9_NtNtNtCsNhz5SapXcJ_8hayabusa10detections4rule14selectionnodesNtB7_17LeafSelectionNodeNtB7_13SelectionNode4init0Bd_
FN:495,_RNvXs9_NtNtNtCsNhz5SapXcJ_8hayabusa10detections4rule14selectionnodesNtB5_17LeafSelectionNodeNtB5_13SelectionNode10get_childs
FN:499,_RNvXs9_NtNtNtCsNhz5SapXcJ_8hayabusa10detections4rule14selectionnodesNtB5_17LeafSelectionNodeNtB5_13SelectionNode15get_descendants
FNDA:5,_RNvMNtNtNtCs5DPfXlAluY4_8hayabusa10detections4rule14selectionnodesNtB2_16AndSelectionNode3new
FNDA:7,_RNvXs_NtNtNtCs5DPfXlAluY4_8hayabusa10detections4rule14selectionnodesNtB4_16AndSelectionNodeNtB4_13SelectionNode6select
FNDA:7,_RNCNvXs_NtNtNtCs5DPfXlAluY4_8hayabusa10detections4rule14selectionnodesNtB6_16AndSelectionNodeNtB6_13SelectionNode6select0Bc_
FNDA:5,_RNvXs_NtNtNtCs5DPfXlAluY4_8hayabusa10detections4rule14selectionnodesNtB4_16AndSelectionNodeNtB4_13SelectionNode4init
FNDA:5,_RNCNvXs_NtNtNtCs5DPfXlAluY4_8hayabusa10detections4rule14selectionnodesNtB6_16AndSelectionNodeNtB6_13SelectionNode4init0Bc_
FNDA:5,_RNCNvXs_NtNtNtCs5DPfXlAluY4_8hayabusa10detections4rule14selectionnodesNtB6_16AndSelectionNodeNtB6_13SelectionNode4inits_0Bc_
FNDA:5,_RNvXs_NtNtNtCs5DPfXlAluY4_8hayabusa10detections4rule14selectionnodesNtB4_16AndSelectionNodeNtB4_13SelectionNode10get_childs
FNDA:5,_RNCNvXs_NtNtNtCs5DPfXlAluY4_8hayabusa10detections4rule14selectionnodesNtB6_16AndSelectionNodeNtB6_13SelectionNode10get_childs0Bc_
FNDA:5,_RNvXs_NtNtNtCs5DPfXlAluY4_8hayabusa10detections4rule14selectionnodesNtB4_16AndSelectionNodeNtB4_13SelectionNode15get_descendants
FNDA:5,_RNCNvXs_NtNtNtCs5DPfXlAluY4_8hayabusa10detections4rule14selectionnodesNtB6_16AndSelectionNodeNtB6_13SelectionNode15get_descendants0Bc_
FNDA:0,_RNCNvXs_NtNtNtCs5DPfXlAluY4_8hayabusa10detections4rule14selectionnodesNtB6_16AndSelectionNodeNtB6_13SelectionNode15get_descendantss_0Bc_
FNDA:0,_RNvMs0_NtNtNtCs5DPfXlAluY4_8hayabusa10detections4rule14selectionnodesNtB5_16AllSelectionNode3new
FNDA:0,_RNvXs1_NtNtNtCs5DPfXlAluY4_8hayabusa10detections4rule14selectionnodesNtB5_16AllSelectionNodeNtB5_13SelectionNode6select
FNDA:0,_RNCNvXs1_NtNtNtCs5DPfXlAluY4_8hayabusa10detections4rule14selectionnodesNtB7_16AllSelectionNodeNtB7_13SelectionNode6select0Bd_
FNDA:0,_RNvXs1_NtNtNtCs5DPfXlAluY4_8hayabusa10detections4rule14selectionnodesNtB5_16AllSelectionNodeNtB5_13SelectionNode4init
FNDA:0,_RNCNvXs1_NtNtNtCs5DPfXlAluY4_8hayabusa10detections4rule14selectionnodesNtB7_16AllSelectionNodeNtB7_13SelectionNode4init0Bd_
FNDA:0,_RNCNvXs1_NtNtNtCs5DPfXlAluY4_8hayabusa10detections4rule14selectionnodesNtB7_16AllSelectionNodeNtB7_13SelectionNode4inits_0Bd_
